

HI-TECH Software PIC LITE Macro Assembler V9.83 build 10920 
                                                                                               Mon Nov 17 15:17:50 2014

HI-TECH Software Omniscient Code Generator (Lite mode) build 10920
     1  0000                     opt subtitle "HI-TECH Software Omniscient Code Generator (Lite mode) build 10920"
     2                           
     3                           opt pagewidth 120
     4                           
     5                           	opt lm
     6                           
     7                           	processor	16F1936
     8                           clrc	macro
     9                           	bcf	3,0
    10  0000                     	endm
    11                           clrz	macro
    12                           	bcf	3,2
    13  0000                     	endm
    14                           setc	macro
    15                           	bsf	3,0
    16  0000                     	endm
    17                           setz	macro
    18                           	bsf	3,2
    19  0000                     	endm
    20                           skipc	macro
    21                           	btfss	3,0
    22  0000                     	endm
    23                           skipz	macro
    24                           	btfss	3,2
    25  0000                     	endm
    26                           skipnc	macro
    27                           	btfsc	3,0
    28  0000                     	endm
    29                           skipnz	macro
    30                           	btfsc	3,2
    31  0000                     	endm
    32  0000                     indf	equ	0
    33  0000                     indf0	equ	0
    34  0001                     indf1	equ	1
    35  0002                     pc	equ	2
    36  0002                     pcl	equ	2
    37  0003                     status	equ	3
    38  0004                     fsr0l	equ	4
    39  0005                     fsr0h	equ	5
    40  0006                     fsr1l	equ	6
    41  0007                     fsr1h	equ	7
    42  0008                     bsr	equ	8
    43  0009                     wreg	equ	9
    44  000B                     intcon	equ	11
    45  0001                     c	equ	1
    46  0000                     z	equ	0
    47  000A                     pclath	equ	10
    48                           # 16 "newmain.c"
    49                           	psect config,class=CONFIG,delta=2 ;#
    50                           # 16 "newmain.c"
    51  8007  DFA4               	dw 0xFFFC & 0xFFE7 & 0xFFFF & 0xFFBF & 0xFFFF & 0xFFFF & 0xFFFF & 0xFFFF & 0xFFFF & 0xD
                                 FFF ;#
    52                           # 17 "newmain.c"
    53                           	psect config,class=CONFIG,delta=2 ;#
    54                           # 17 "newmain.c"
    55  8008  DFFF               	dw 0xFFFF & 0xFFFF & 0xFFFF & 0xFFFF & 0xFFFF & 0xDFFF ;#
    56                           	FNCALL	_main,_capsensinit
    57                           	FNCALL	_main,_usartinit
    58                           	FNCALL	_main,_scanchannel
    59                           	FNCALL	_main,_USARTWriteChar
    60                           	FNCALL	_main,_USARTWriteInt
    61                           	FNCALL	_USARTWriteInt,_USARTWriteChar
    62                           	FNCALL	_USARTWriteInt,___awmod
    63                           	FNCALL	_USARTWriteInt,___awdiv
    64                           	FNROOT	_main
    65                           	FNCALL	intlevel1,_isr
    66                           	global	intlevel1
    67                           	FNROOT	intlevel1
    68                           	global	_average
    69                           	global	_avgflag
    70                           	global	_count
    71                           	global	_channelno
    72                           	global	_curreading1
    73                           	global	_curreading2
    74                           	global	_curreading3
    75                           	global	_curreading4
    76                           	global	_curreading5
    77                           	global	_curreading6
    78                           	global	_curreading7
    79                           	global	_thold
    80                           	global	_raw_reading
    81                           	global	_curreading0
    82                           	global	_debounc
    83                           	global	_i2c_rx_buff
    84                           	global	_i2c_tx_buff
    85                           	global	USARTWriteInt@F3416
    86                           	global	_CPSCON0
    87                           psect	intentry,class=CODE,delta=2
    88                           global __pintentry
    89  0004                     __pintentry:
    90  001E                     _CPSCON0	set	30
    91                           	global	_CPSCON1
    92  001F                     _CPSCON1	set	31
    93                           	global	_PIR1bits
    94  0011                     _PIR1bits	set	17
    95                           	global	_T1CON
    96  0018                     _T1CON	set	24
    97                           	global	_T1GCON
    98  0019                     _T1GCON	set	25
    99                           	global	_TMR0
   100  0015                     _TMR0	set	21
   101                           	global	_TMR1H
   102  0017                     _TMR1H	set	23
   103                           	global	_TMR1L
   104  0016                     _TMR1L	set	22
   105                           	global	_CARRY
   106  0018                     _CARRY	set	24
   107                           	global	_GIE
   108  005F                     _GIE	set	95
   109                           	global	_SSPIF
   110  008B                     _SSPIF	set	139
   111                           	global	_T1GGO
   112  00CB                     _T1GGO	set	203
   113                           	global	_TMR0IE
   114  005D                     _TMR0IE	set	93
   115                           	global	_TMR0IF
   116  005A                     _TMR0IF	set	90
   117                           	global	_TMR1GIF
   118  008F                     _TMR1GIF	set	143
   119                           	global	_TMR1IF
   120  0088                     _TMR1IF	set	136
   121                           	global	_TMR1ON
   122  00C0                     _TMR1ON	set	192
   123                           	global	_ADCON0
   124  009D                     _ADCON0	set	157
   125                           	global	_ADCON1
   126  009E                     _ADCON1	set	158
   127                           	global	_OPTION_REG
   128  0095                     _OPTION_REG	set	149
   129                           	global	_OSCCON
   130  0099                     _OSCCON	set	153
   131                           	global	_OSCTUNE
   132  0098                     _OSCTUNE	set	152
   133                           	global	_PIE1bits
   134  0091                     _PIE1bits	set	145
   135                           	global	_TRISA
   136  008C                     _TRISA	set	140
   137                           	global	_TRISB
   138  008D                     _TRISB	set	141
   139                           	global	_TRISC
   140  008E                     _TRISC	set	142
   141                           	global	_TRISCbits
   142  008E                     _TRISCbits	set	142
   143                           	global	_SSPIE
   144  048B                     _SSPIE	set	1163
   145                           	global	_TMR1GIE
   146  048F                     _TMR1GIE	set	1167
   147                           	global	_TMR1IE
   148  0488                     _TMR1IE	set	1160
   149                           	global	_LATB
   150  010D                     _LATB	set	269
   151                           	global	_LATCbits
   152  010E                     _LATCbits	set	270
   153                           	global	_EEADR
   154  0191                     _EEADR	set	401
   155                           	global	_ANSELA
   156  018C                     _ANSELA	set	396
   157                           	global	_ANSELB
   158  018D                     _ANSELB	set	397
   159                           	global	_EECON1
   160  0195                     _EECON1	set	405
   161                           	global	_EECON2
   162  0196                     _EECON2	set	406
   163                           	global	_EEDATA
   164  0193                     _EEDATA	set	403
   165                           	global	_RCSTAbits
   166  019D                     _RCSTAbits	set	413
   167                           	global	_SPBRGH
   168  019C                     _SPBRGH	set	412
   169                           	global	_SPBRGL
   170  019B                     _SPBRGL	set	411
   171                           	global	_TXREG
   172  019A                     _TXREG	set	410
   173                           	global	_TXSTAbits
   174  019E                     _TXSTAbits	set	414
   175                           	global	_RD
   176  0CA8                     _RD	set	3240
   177                           	global	_WR
   178  0CA9                     _WR	set	3241
   179                           	global	_WREN
   180  0CAA                     _WREN	set	3242
   181                           	global	_SSPBUF
   182  0211                     _SSPBUF	set	529
   183                           	global	_SSPCON1bits
   184  0215                     _SSPCON1bits	set	533
   185                           	global	_SSPCON2bits
   186  0216                     _SSPCON2bits	set	534
   187                           	global	_SSPSTAT
   188  0214                     _SSPSTAT	set	532
   189                           	file	"C:\Users\Admin\AppData\Local\Temp\s53k."
   190                           	line	#
   191                           psect cinit,class=CODE,delta=2
   192                           global start_initialization
   193  0794                     start_initialization:
   194                           
   195                           psect	bssCOMMON,class=COMMON,space=1
   196                           global __pbssCOMMON
   197  0078                     __pbssCOMMON:
   198  0078                     _raw_reading:
   199  0078                            ds      4
   200                           
   201                           psect	bssBANK0,class=BANK0,space=1
   202                           global __pbssBANK0
   203  0020                     __pbssBANK0:
   204  0020                     _average:
   205  0020                            ds      32
   206                           
   207  0040                     _avgflag:
   208  0040                            ds      8
   209                           
   210  0048                     _count:
   211  0048                            ds      8
   212                           
   213  0050                     _channelno:
   214  0050                            ds      1
   215                           
   216                           psect	bssBANK1,class=BANK1,space=1
   217                           global __pbssBANK1
   218  00A0                     __pbssBANK1:
   219  00A0                     _curreading0:
   220  00A0                            ds      32
   221                           
   222  00C0                     _debounc:
   223  00C0                            ds      16
   224                           
   225  00D0                     _i2c_rx_buff:
   226  00D0                            ds      8
   227                           
   228  00D8                     _i2c_tx_buff:
   229  00D8                            ds      8
   230                           
   231  00E0                     USARTWriteInt@F3416:
   232  00E0                            ds      5
   233                           
   234                           psect	bssBANK2,class=BANK2,space=1
   235                           global __pbssBANK2
   236  0120                     __pbssBANK2:
   237  0120                     _curreading1:
   238  0120                            ds      32
   239                           
   240  0140                     _curreading2:
   241  0140                            ds      32
   242                           
   243                           psect	bssBANK3,class=BANK3,space=1
   244                           global __pbssBANK3
   245  01A0                     __pbssBANK3:
   246  01A0                     _curreading3:
   247  01A0                            ds      32
   248                           
   249  01C0                     _curreading4:
   250  01C0                            ds      32
   251                           
   252                           psect	bssBANK4,class=BANK4,space=1
   253                           global __pbssBANK4
   254  0220                     __pbssBANK4:
   255  0220                     _curreading5:
   256  0220                            ds      32
   257                           
   258  0240                     _curreading6:
   259  0240                            ds      32
   260                           
   261                           psect	bssBANK5,class=BANK5,space=1
   262                           global __pbssBANK5
   263  02A0                     __pbssBANK5:
   264  02A0                     _curreading7:
   265  02A0                            ds      32
   266                           
   267  02C0                     _thold:
   268  02C0                            ds      32
   269                           
   270                           psect clrtext,class=CODE,delta=2
   271                           global clear_ram
   272                           ;	Called with FSR0 containing the base address, and
   273                           ;	WREG with the size to clear
   274  0FDA                     clear_ram:
   275  0FDA  0064               	clrwdt			;clear the watchdog before getting into this loop
   276  0FDB                     clrloop:
   277  0FDB  0180               	clrf	indf0		;clear RAM location pointed to by FSR
   278  0FDC  3101               	addfsr	0,1
   279  0FDD  0B89               	decfsz wreg		;Have we reached the end of clearing yet?
   280  0FDE  2FDB               	goto clrloop	;have we reached the end yet?
   281  0FDF  3400               	retlw	0		;all done for this memory range, return
   282                           ; Clear objects allocated to COMMON
   283                           psect cinit,class=CODE,delta=2
   284                           	global __pbssCOMMON
   285  0794  01F8               	clrf	((__pbssCOMMON)+0)&07Fh
   286  0795  01F9               	clrf	((__pbssCOMMON)+1)&07Fh
   287  0796  01FA               	clrf	((__pbssCOMMON)+2)&07Fh
   288  0797  01FB               	clrf	((__pbssCOMMON)+3)&07Fh
   289                           ; Clear objects allocated to BANK0
   290                           psect cinit,class=CODE,delta=2
   291                           	global __pbssBANK0
   292  0798  3020               	movlw	low(__pbssBANK0)
   293  0799  0084               	movwf	fsr0l
   294  079A  3000               	movlw	high(__pbssBANK0)
   295  079B  0085               	movwf	fsr0h
   296  079C  3031               	movlw	031h
   297  079D  318F  27DA  3187   	fcall	clear_ram
   298                           ; Clear objects allocated to BANK1
   299                           psect cinit,class=CODE,delta=2
   300                           	global __pbssBANK1
   301  07A0  30A0               	movlw	low(__pbssBANK1)
   302  07A1  0084               	movwf	fsr0l
   303  07A2  3000               	movlw	high(__pbssBANK1)
   304  07A3  0085               	movwf	fsr0h
   305  07A4  3045               	movlw	045h
   306  07A5  318F  27DA  3187   	fcall	clear_ram
   307                           ; Clear objects allocated to BANK2
   308                           psect cinit,class=CODE,delta=2
   309                           	global __pbssBANK2
   310  07A8  3020               	movlw	low(__pbssBANK2)
   311  07A9  0084               	movwf	fsr0l
   312  07AA  3001               	movlw	high(__pbssBANK2)
   313  07AB  0085               	movwf	fsr0h
   314  07AC  3040               	movlw	040h
   315  07AD  318F  27DA  3187   	fcall	clear_ram
   316                           ; Clear objects allocated to BANK3
   317                           psect cinit,class=CODE,delta=2
   318                           	global __pbssBANK3
   319  07B0  30A0               	movlw	low(__pbssBANK3)
   320  07B1  0084               	movwf	fsr0l
   321  07B2  3001               	movlw	high(__pbssBANK3)
   322  07B3  0085               	movwf	fsr0h
   323  07B4  3040               	movlw	040h
   324  07B5  318F  27DA  3187   	fcall	clear_ram
   325                           ; Clear objects allocated to BANK4
   326                           psect cinit,class=CODE,delta=2
   327                           	global __pbssBANK4
   328  07B8  3020               	movlw	low(__pbssBANK4)
   329  07B9  0084               	movwf	fsr0l
   330  07BA  3002               	movlw	high(__pbssBANK4)
   331  07BB  0085               	movwf	fsr0h
   332  07BC  3040               	movlw	040h
   333  07BD  318F  27DA  3187   	fcall	clear_ram
   334                           ; Clear objects allocated to BANK5
   335                           psect cinit,class=CODE,delta=2
   336                           	global __pbssBANK5
   337  07C0  30A0               	movlw	low(__pbssBANK5)
   338  07C1  0084               	movwf	fsr0l
   339  07C2  3002               	movlw	high(__pbssBANK5)
   340  07C3  0085               	movwf	fsr0h
   341  07C4  3040               	movlw	040h
   342  07C5  318F  27DA  3187   	fcall	clear_ram
   343                           psect cinit,class=CODE,delta=2
   344                           global end_of_initialization
   345                           
   346                           ;End of C runtime variable initialization code
   347                           
   348  07C8                     end_of_initialization:
   349  07C8  0020               movlb 0
   350  07C9  3182  2A94         ljmp _main	;jump to C main() function
   351                           psect	cstackCOMMON,class=COMMON,space=1
   352                           global __pcstackCOMMON
   353  0070                     __pcstackCOMMON:
   354                           	global	?_scanchannel
   355  0070                     ?_scanchannel:	; 0 bytes @ 0x0
   356                           	global	?_capsensinit
   357  0070                     ?_capsensinit:	; 0 bytes @ 0x0
   358                           	global	?_usartinit
   359  0070                     ?_usartinit:	; 0 bytes @ 0x0
   360                           	global	?_USARTWriteChar
   361  0070                     ?_USARTWriteChar:	; 0 bytes @ 0x0
   362                           	global	?_main
   363  0070                     ?_main:	; 0 bytes @ 0x0
   364                           	global	?_isr
   365  0070                     ?_isr:	; 0 bytes @ 0x0
   366                           	global	??_isr
   367  0070                     ??_isr:	; 0 bytes @ 0x0
   368  0070                     	ds	5
   369                           	global	isr@sspstat
   370  0075                     isr@sspstat:	; 1 bytes @ 0x5
   371  0075                     	ds	1
   372                           	global	isr@buff_idx
   373  0076                     isr@buff_idx:	; 1 bytes @ 0x6
   374  0076                     	ds	1
   375                           	global	isr@no
   376  0077                     isr@no:	; 1 bytes @ 0x7
   377  0077                     	ds	1
   378                           psect	cstackBANK0,class=BANK0,space=1
   379                           global __pcstackBANK0
   380  0051                     __pcstackBANK0:
   381                           	global	??_scanchannel
   382  0051                     ??_scanchannel:	; 0 bytes @ 0x0
   383                           	global	??_capsensinit
   384  0051                     ??_capsensinit:	; 0 bytes @ 0x0
   385                           	global	??_usartinit
   386  0051                     ??_usartinit:	; 0 bytes @ 0x0
   387                           	global	??_USARTWriteChar
   388  0051                     ??_USARTWriteChar:	; 0 bytes @ 0x0
   389                           	global	?___awdiv
   390  0051                     ?___awdiv:	; 2 bytes @ 0x0
   391                           	global	?___awmod
   392  0051                     ?___awmod:	; 2 bytes @ 0x0
   393                           	global	USARTWriteChar@ch
   394  0051                     USARTWriteChar@ch:	; 1 bytes @ 0x0
   395                           	global	___awdiv@divisor
   396  0051                     ___awdiv@divisor:	; 2 bytes @ 0x0
   397                           	global	___awmod@divisor
   398  0051                     ___awmod@divisor:	; 2 bytes @ 0x0
   399  0051                     	ds	2
   400                           	global	scanchannel@i
   401  0053                     scanchannel@i:	; 2 bytes @ 0x2
   402                           	global	___awdiv@dividend
   403  0053                     ___awdiv@dividend:	; 2 bytes @ 0x2
   404                           	global	___awmod@dividend
   405  0053                     ___awmod@dividend:	; 2 bytes @ 0x2
   406  0053                     	ds	2
   407                           	global	??___awdiv
   408  0055                     ??___awdiv:	; 0 bytes @ 0x4
   409                           	global	??___awmod
   410  0055                     ??___awmod:	; 0 bytes @ 0x4
   411  0055                     	ds	1
   412                           	global	___awdiv@counter
   413  0056                     ___awdiv@counter:	; 1 bytes @ 0x5
   414                           	global	___awmod@counter
   415  0056                     ___awmod@counter:	; 1 bytes @ 0x5
   416  0056                     	ds	1
   417                           	global	___awdiv@sign
   418  0057                     ___awdiv@sign:	; 1 bytes @ 0x6
   419                           	global	___awmod@sign
   420  0057                     ___awmod@sign:	; 1 bytes @ 0x6
   421  0057                     	ds	1
   422                           	global	___awdiv@quotient
   423  0058                     ___awdiv@quotient:	; 2 bytes @ 0x7
   424  0058                     	ds	2
   425                           	global	?_USARTWriteInt
   426  005A                     ?_USARTWriteInt:	; 0 bytes @ 0x9
   427                           	global	USARTWriteInt@val
   428  005A                     USARTWriteInt@val:	; 2 bytes @ 0x9
   429  005A                     	ds	2
   430                           	global	USARTWriteInt@field_length
   431  005C                     USARTWriteInt@field_length:	; 2 bytes @ 0xB
   432  005C                     	ds	2
   433                           	global	??_USARTWriteInt
   434  005E                     ??_USARTWriteInt:	; 0 bytes @ 0xD
   435  005E                     	ds	2
   436                           	global	USARTWriteInt@str
   437  0060                     USARTWriteInt@str:	; 5 bytes @ 0xF
   438  0060                     	ds	5
   439                           	global	USARTWriteInt@j
   440  0065                     USARTWriteInt@j:	; 2 bytes @ 0x14
   441  0065                     	ds	2
   442                           	global	USARTWriteInt@i
   443  0067                     USARTWriteInt@i:	; 2 bytes @ 0x16
   444  0067                     	ds	2
   445                           	global	??_main
   446  0069                     ??_main:	; 0 bytes @ 0x18
   447  0069                     	ds	1
   448                           	global	main@keyno
   449  006A                     main@keyno:	; 1 bytes @ 0x19
   450  006A                     	ds	1
   451                           	global	main@tholdflg
   452  006B                     main@tholdflg:	; 1 bytes @ 0x1A
   453  006B                     	ds	1
   454                           	global	main@tcount
   455  006C                     main@tcount:	; 1 bytes @ 0x1B
   456  006C                     	ds	1
   457                           	global	main@i
   458  006D                     main@i:	; 1 bytes @ 0x1C
   459  006D                     	ds	1
   460                           	global	main@j
   461  006E                     main@j:	; 1 bytes @ 0x1D
   462  006E                     	ds	1
   463 ;;Data sizes: Strings 0, constant 0, data 0, bss 378, persistent 0 stack 0
   464 ;;Auto spaces:   Size  Autos    Used
   465 ;; COMMON          14      8      12
   466 ;; BANK0           80     30      79
   467 ;; BANK1           80      0      69
   468 ;; BANK2           80      0      64
   469 ;; BANK3           80      0      64
   470 ;; BANK4           80      0      64
   471 ;; BANK5           80      0      64
   472 ;; BANK6           16      0       0
   473                           
   474 ;;
   475 ;; Pointer list with targets:
   476                           
   477 ;; ?___awdiv	int  size(1) Largest target is 0
   478 ;;
   479 ;; ?___awmod	int  size(1) Largest target is 2
   480 ;;		 -> USARTWriteInt@val(BANK0[2]), 
   481 ;;
   482                           
   483                           
   484 ;;
   485 ;; Critical Paths under _main in COMMON
   486 ;;
   487 ;;   None.
   488 ;;
   489 ;; Critical Paths under _isr in COMMON
   490 ;;
   491 ;;   None.
   492 ;;
   493 ;; Critical Paths under _main in BANK0
   494 ;;
   495 ;;   _main->_USARTWriteInt
   496 ;;   _USARTWriteInt->___awdiv
   497 ;;
   498 ;; Critical Paths under _isr in BANK0
   499 ;;
   500 ;;   None.
   501 ;;
   502 ;; Critical Paths under _main in BANK1
   503 ;;
   504 ;;   None.
   505 ;;
   506 ;; Critical Paths under _isr in BANK1
   507 ;;
   508 ;;   None.
   509 ;;
   510 ;; Critical Paths under _main in BANK2
   511 ;;
   512 ;;   None.
   513 ;;
   514 ;; Critical Paths under _isr in BANK2
   515 ;;
   516 ;;   None.
   517 ;;
   518 ;; Critical Paths under _main in BANK3
   519 ;;
   520 ;;   None.
   521 ;;
   522 ;; Critical Paths under _isr in BANK3
   523 ;;
   524 ;;   None.
   525 ;;
   526 ;; Critical Paths under _main in BANK4
   527 ;;
   528 ;;   None.
   529 ;;
   530 ;; Critical Paths under _isr in BANK4
   531 ;;
   532 ;;   None.
   533 ;;
   534 ;; Critical Paths under _main in BANK5
   535 ;;
   536 ;;   None.
   537 ;;
   538 ;; Critical Paths under _isr in BANK5
   539 ;;
   540 ;;   None.
   541 ;;
   542 ;; Critical Paths under _main in BANK6
   543 ;;
   544 ;;   None.
   545 ;;
   546 ;; Critical Paths under _isr in BANK6
   547 ;;
   548 ;;   None.
   549                           
   550 ;;
   551 ;;Main: autosize = 0, tempsize = 1, incstack = 0, save=0
   552 ;;
   553                           
   554 ;;
   555 ;;Call Graph Tables:
   556 ;;
   557 ;; ---------------------------------------------------------------------------------
   558 ;; (Depth) Function   	        Calls       Base Space   Used Autos Params    Refs
   559 ;; ---------------------------------------------------------------------------------
   560 ;; (0) _main                                                14    14      0    1759
   561 ;;                                             24 BANK0      6     6      0
   562 ;;                        _capsensinit
   563 ;;                          _usartinit
   564 ;;                        _scanchannel
   565 ;;                     _USARTWriteChar
   566 ;;                      _USARTWriteInt
   567 ;; ---------------------------------------------------------------------------------
   568 ;; (1) _USARTWriteInt                                       15    11      4    1028
   569 ;;                                              9 BANK0     15    11      4
   570 ;;                     _USARTWriteChar
   571 ;;                            ___awmod
   572 ;;                            ___awdiv
   573 ;; ---------------------------------------------------------------------------------
   574 ;; (2) ___awmod                                              7     3      4     296
   575 ;;                                              0 BANK0      7     3      4
   576 ;; ---------------------------------------------------------------------------------
   577 ;; (2) ___awdiv                                              9     5      4     300
   578 ;;                                              0 BANK0      9     5      4
   579 ;; ---------------------------------------------------------------------------------
   580 ;; (2) _USARTWriteChar                                       1     1      0      22
   581 ;;                                              0 BANK0      1     1      0
   582 ;; ---------------------------------------------------------------------------------
   583 ;; (1) _usartinit                                            0     0      0       0
   584 ;; ---------------------------------------------------------------------------------
   585 ;; (1) _capsensinit                                          1     1      0       0
   586 ;;                                              0 BANK0      1     1      0
   587 ;; ---------------------------------------------------------------------------------
   588 ;; (1) _scanchannel                                          4     4      0     113
   589 ;;                                              0 BANK0      4     4      0
   590 ;; ---------------------------------------------------------------------------------
   591 ;; Estimated maximum stack depth 2
   592 ;; ---------------------------------------------------------------------------------
   593 ;; (Depth) Function   	        Calls       Base Space   Used Autos Params    Refs
   594 ;; ---------------------------------------------------------------------------------
   595 ;; (3) _isr                                                  8     8      0     293
   596 ;;                                              0 COMMON     8     8      0
   597 ;; ---------------------------------------------------------------------------------
   598 ;; Estimated maximum stack depth 3
   599 ;; ---------------------------------------------------------------------------------
   600                           
   601 ;; Call Graph Graphs:
   602                           
   603 ;; _main (ROOT)
   604 ;;   _capsensinit
   605 ;;   _usartinit
   606 ;;   _scanchannel
   607 ;;   _USARTWriteChar
   608 ;;   _USARTWriteInt
   609 ;;     _USARTWriteChar
   610 ;;     ___awmod
   611 ;;     ___awdiv
   612 ;;
   613 ;; _isr (ROOT)
   614 ;;
   615                           
   616 ;; Address spaces:
   617                           
   618 ;;Name               Size   Autos  Total    Cost      Usage
   619 ;;BIGRAM             1F0      0       0       0        0.0%
   620 ;;EEDATA             100      0       0       0        0.0%
   621 ;;NULL                 0      0       0       0        0.0%
   622 ;;CODE                 0      0       0       0        0.0%
   623 ;;BITCOMMON            E      0       0       1        0.0%
   624 ;;BITSFR0              0      0       0       1        0.0%
   625 ;;SFR0                 0      0       0       1        0.0%
   626 ;;COMMON               E      8       C       2       85.7%
   627 ;;BITSFR1              0      0       0       2        0.0%
   628 ;;SFR1                 0      0       0       2        0.0%
   629 ;;BITSFR2              0      0       0       3        0.0%
   630 ;;SFR2                 0      0       0       3        0.0%
   631 ;;STACK                0      0       2       3        0.0%
   632 ;;BITSFR3              0      0       0       4        0.0%
   633 ;;SFR3                 0      0       0       4        0.0%
   634 ;;ABS                  0      0     1A0       4        0.0%
   635 ;;BITBANK0            50      0       0       5        0.0%
   636 ;;BITSFR4              0      0       0       5        0.0%
   637 ;;SFR4                 0      0       0       5        0.0%
   638 ;;BANK0               50     1E      4F       6       98.8%
   639 ;;BITSFR5              0      0       0       6        0.0%
   640 ;;SFR5                 0      0       0       6        0.0%
   641 ;;BITBANK1            50      0       0       7        0.0%
   642 ;;BITSFR6              0      0       0       7        0.0%
   643 ;;SFR6                 0      0       0       7        0.0%
   644 ;;BANK1               50      0      45       8       86.3%
   645 ;;BITSFR7              0      0       0       8        0.0%
   646 ;;SFR7                 0      0       0       8        0.0%
   647 ;;BITBANK2            50      0       0       9        0.0%
   648 ;;BITSFR8              0      0       0       9        0.0%
   649 ;;SFR8                 0      0       0       9        0.0%
   650 ;;BANK2               50      0      40      10       80.0%
   651 ;;BITSFR9              0      0       0      10        0.0%
   652 ;;SFR9                 0      0       0      10        0.0%
   653 ;;BITBANK3            50      0       0      11        0.0%
   654 ;;BITSFR10             0      0       0      11        0.0%
   655 ;;SFR10                0      0       0      11        0.0%
   656 ;;BANK3               50      0      40      12       80.0%
   657 ;;BITSFR11             0      0       0      12        0.0%
   658 ;;SFR11                0      0       0      12        0.0%
   659 ;;BITBANK4            50      0       0      13        0.0%
   660 ;;BITSFR12             0      0       0      13        0.0%
   661 ;;SFR12                0      0       0      13        0.0%
   662 ;;BANK4               50      0      40      14       80.0%
   663 ;;BITSFR13             0      0       0      14        0.0%
   664 ;;SFR13                0      0       0      14        0.0%
   665 ;;BITBANK5            50      0       0      15        0.0%
   666 ;;BITSFR14             0      0       0      15        0.0%
   667 ;;SFR14                0      0       0      15        0.0%
   668 ;;BANK5               50      0      40      16       80.0%
   669 ;;BITSFR15             0      0       0      16        0.0%
   670 ;;SFR15                0      0       0      16        0.0%
   671 ;;BITBANK6            10      0       0      17        0.0%
   672 ;;BITSFR16             0      0       0      17        0.0%
   673 ;;SFR16                0      0       0      17        0.0%
   674 ;;BANK6               10      0       0      18        0.0%
   675 ;;BITSFR17             0      0       0      18        0.0%
   676 ;;SFR17                0      0       0      18        0.0%
   677 ;;BITSFR18             0      0       0      19        0.0%
   678 ;;SFR18                0      0       0      19        0.0%
   679 ;;DATA                 0      0     1A2      19        0.0%
   680 ;;BITSFR19             0      0       0      20        0.0%
   681 ;;SFR19                0      0       0      20        0.0%
   682 ;;BITSFR20             0      0       0      21        0.0%
   683 ;;SFR20                0      0       0      21        0.0%
   684 ;;BITSFR21             0      0       0      22        0.0%
   685 ;;SFR21                0      0       0      22        0.0%
   686 ;;BITSFR22             0      0       0      23        0.0%
   687 ;;SFR22                0      0       0      23        0.0%
   688 ;;BITSFR23             0      0       0      24        0.0%
   689 ;;SFR23                0      0       0      24        0.0%
   690 ;;BITSFR24             0      0       0      25        0.0%
   691 ;;SFR24                0      0       0      25        0.0%
   692 ;;BITSFR25             0      0       0      26        0.0%
   693 ;;SFR25                0      0       0      26        0.0%
   694 ;;BITSFR26             0      0       0      27        0.0%
   695 ;;SFR26                0      0       0      27        0.0%
   696 ;;BITSFR27             0      0       0      28        0.0%
   697 ;;SFR27                0      0       0      28        0.0%
   698 ;;BITSFR28             0      0       0      29        0.0%
   699 ;;SFR28                0      0       0      29        0.0%
   700 ;;BITSFR29             0      0       0      30        0.0%
   701 ;;SFR29                0      0       0      30        0.0%
   702 ;;BITSFR30             0      0       0      31        0.0%
   703 ;;SFR30                0      0       0      31        0.0%
   704 ;;BITSFR31             0      0       0      32        0.0%
   705 ;;SFR31                0      0       0      32        0.0%
   706                           
   707                           	global	_main
   708                           psect	maintext,global,class=CODE,delta=2
   709                           global __pmaintext
   710  0294                     __pmaintext:
   711                           
   712 ;; *************** function _main *****************
   713 ;; Defined at:
   714 ;;		line 290 in file "newmain.c"
   715 ;; Parameters:    Size  Location     Type
   716 ;;		None
   717 ;; Auto vars:     Size  Location     Type
   718 ;;  buttondetect    8    0        unsigned char [8]
   719 ;;  j               1   29[BANK0 ] unsigned char 
   720 ;;  i               1   28[BANK0 ] unsigned char 
   721 ;;  tcount          1   27[BANK0 ] unsigned char 
   722 ;;  tholdflg        1   26[BANK0 ] unsigned char 
   723 ;;  keyno           1   25[BANK0 ] unsigned char 
   724 ;; Return value:  Size  Location     Type
   725 ;;		None               void
   726 ;; Registers used:
   727 ;;		wreg, fsr0l, fsr0h, fsr1l, fsr1h, status,2, status,0, btemp+1, pclath, cstack
   728 ;; Tracked objects:
   729 ;;		On entry : 17F/0
   730 ;;		On exit  : 0/0
   731 ;;		Unchanged: 0/0
   732 ;; Data sizes:     COMMON   BANK0   BANK1   BANK2   BANK3   BANK4   BANK5   BANK6
   733 ;;      Params:         0       0       0       0       0       0       0       0
   734 ;;      Locals:         0       5       0       0       0       0       0       0
   735 ;;      Temps:          0       1       0       0       0       0       0       0
   736 ;;      Totals:         0       6       0       0       0       0       0       0
   737 ;;Total ram usage:        6 bytes
   738 ;; Hardware stack levels required when called:    3
   739 ;; This function calls:
   740 ;;		_capsensinit
   741 ;;		_usartinit
   742 ;;		_scanchannel
   743 ;;		_USARTWriteChar
   744 ;;		_USARTWriteInt
   745 ;; This function is called by:
   746 ;;		Startup code after reset
   747 ;; This function uses a non-reentrant model
   748 ;;
   749                           psect	maintext
   750                           	file	"newmain.c"
   751                           	line	290
   752                           	global	__size_of_main
   753  02C9                     	__size_of_main	equ	__end_of_main-_main
   754                           	
   755  0294                     _main:	
   756                           	opt	stack 13
   757                           ; Regs used in _main: [allreg]
   758                           	line	292
   759                           	
   760  0294                     l5785:	
   761                           ;newmain.c: 292: UINT8 i=0,j=0,buttondetect[8],keyno = 0;
   762  0294  0020               	movlb 0	; select bank0
   763  0295  01ED               	clrf	(main@i)
   764  0296  01EE               	clrf	(main@j)
   765  0297  01EA               	clrf	(main@keyno)
   766                           	line	293
   767                           	
   768  0298                     l5787:	
   769                           ;newmain.c: 293: OSCCON = 0b01111000;
   770  0298  3078               	movlw	(078h)
   771  0299  0021               	movlb 1	; select bank1
   772  029A  0099               	movwf	(153)^080h	;volatile
   773                           	line	294
   774                           	
   775  029B                     l5789:	
   776                           ;newmain.c: 294: OSCTUNE = 0b00000000;
   777  029B  0198               	clrf	(152)^080h	;volatile
   778                           	line	295
   779                           	
   780  029C                     l5791:	
   781                           ;newmain.c: 295: UINT8 tholdflg = 0,tcount =0;
   782  029C  0020               	movlb 0	; select bank0
   783  029D  01EB               	clrf	(main@tholdflg)
   784                           	
   785  029E                     l5793:	
   786  029E  01EC               	clrf	(main@tcount)
   787                           	line	296
   788                           	
   789  029F                     l5795:	
   790                           ;newmain.c: 296: ANSELA = 0;
   791  029F  0023               	movlb 3	; select bank3
   792  02A0  018C               	clrf	(396)^0180h	;volatile
   793                           	line	297
   794                           	
   795  02A1                     l5797:	
   796                           ;newmain.c: 297: ANSELB = 0;
   797  02A1  018D               	clrf	(397)^0180h	;volatile
   798                           	line	298
   799                           	
   800  02A2                     l5799:	
   801                           ;newmain.c: 298: TRISA = 0;
   802  02A2  0021               	movlb 1	; select bank1
   803  02A3  018C               	clrf	(140)^080h	;volatile
   804                           	line	299
   805                           	
   806  02A4                     l5801:	
   807                           ;newmain.c: 299: TRISB = 0;
   808  02A4  018D               	clrf	(141)^080h	;volatile
   809                           	line	300
   810                           	
   811  02A5                     l5803:	
   812                           ;newmain.c: 300: TRISC = 0;
   813  02A5  018E               	clrf	(142)^080h	;volatile
   814                           	line	302
   815                           	
   816  02A6                     l5805:	
   817                           ;newmain.c: 302: TRISCbits.TRISC5 = 0;
   818  02A6  128E               	bcf	(142)^080h,5	;volatile
   819                           	line	303
   820                           	
   821  02A7                     l5807:	
   822                           ;newmain.c: 303: LATCbits.LATC5 = 1;
   823  02A7  0022               	movlb 2	; select bank2
   824  02A8  168E               	bsf	(270)^0100h,5	;volatile
   825                           	line	304
   826                           	
   827  02A9                     l5809:	
   828                           ;newmain.c: 304: capsensinit();
   829  02A9  3187  27CB  3182   	fcall	_capsensinit
   830                           	line	306
   831                           	
   832  02AC                     l5811:	
   833                           ;newmain.c: 306: usartinit();
   834  02AC  318F  27EE  3182   	fcall	_usartinit
   835                           	line	321
   836                           	
   837  02AF                     l5813:	
   838                           ;newmain.c: 321: i = 0;
   839  02AF  0020               	movlb 0	; select bank0
   840  02B0  01ED               	clrf	(main@i)
   841                           	line	322
   842                           ;newmain.c: 322: while(1)
   843                           	
   844  02B1                     l1901:	
   845                           	line	328
   846                           ;newmain.c: 323: {
   847                           ;newmain.c: 328: if(i == 8) i = 0;
   848  02B1  086D               	movf	(main@i),w
   849  02B2  3A08               	xorlw	08h&0ffh
   850  02B3  1D03               	skipz
   851  02B4  2AB6               	goto	u3991
   852  02B5  2AB7               	goto	u3990
   853  02B6                     u3991:
   854  02B6  2AB9               	goto	l5817
   855  02B7                     u3990:
   856                           	
   857  02B7                     l5815:	
   858  02B7  01ED               	clrf	(main@i)
   859  02B8  2AB9               	goto	l5817
   860                           	
   861  02B9                     l1902:	
   862                           	line	330
   863                           	
   864  02B9                     l5817:	
   865                           ;newmain.c: 330: channelno = i;
   866  02B9  086D               	movf	(main@i),w
   867  02BA  00E9               	movwf	(??_main+0)+0
   868  02BB  0869               	movf	(??_main+0)+0,w
   869  02BC  00D0               	movwf	(_channelno)
   870                           	line	331
   871                           	
   872  02BD                     l5819:	
   873                           ;newmain.c: 331: scanchannel();
   874  02BD  3186  2636  3182   	fcall	_scanchannel
   875                           	line	338
   876                           	
   877  02C0                     l5821:	
   878                           ;newmain.c: 338: if(avgflag[0]==1)
   879  02C0  0020               	movlb 0	; select bank0
   880  02C1  0840               	movf	(_avgflag),w
   881  02C2  3A01               	xorlw	01h&0ffh
   882  02C3  1D03               	skipz
   883  02C4  2AC6               	goto	u4001
   884  02C5  2AC7               	goto	u4000
   885  02C6                     u4001:
   886  02C6  2AFF               	goto	l5839
   887  02C7                     u4000:
   888                           	line	340
   889                           	
   890  02C7                     l5823:	
   891                           ;newmain.c: 339: {
   892                           ;newmain.c: 340: average[0] = 0 ;
   893  02C7  3000               	movlw	0
   894  02C8  00A3               	movwf	(_average+3)
   895  02C9  3000               	movlw	0
   896  02CA  00A2               	movwf	(_average+2)
   897  02CB  3000               	movlw	0
   898  02CC  00A1               	movwf	(_average+1)
   899  02CD  3000               	movlw	0
   900  02CE  00A0               	movwf	(_average)
   901                           
   902                           	line	341
   903                           	
   904  02CF                     l5825:	
   905                           ;newmain.c: 341: for(j=0; j<8 ; j++)
   906  02CF  01EE               	clrf	(main@j)
   907  02D0  3008               	movlw	(08h)
   908  02D1  026E               	subwf	(main@j),w
   909  02D2  1C03               	skipc
   910  02D3  2AD5               	goto	u4011
   911  02D4  2AD6               	goto	u4010
   912  02D5                     u4011:
   913  02D5  2AD8               	goto	l5829
   914  02D6                     u4010:
   915  02D6  2AF6               	goto	l5835
   916                           	
   917  02D7                     l5827:	
   918  02D7  2AF6               	goto	l5835
   919                           	line	342
   920                           	
   921  02D8                     l1904:	
   922                           	line	343
   923                           	
   924  02D8                     l5829:	
   925                           ;newmain.c: 342: {
   926                           ;newmain.c: 343: average[0] += curreading0[j];
   927  02D8  086E               	movf	(main@j),w
   928  02D9  00E9               	movwf	(??_main+0)+0
   929  02DA  3001               	movlw	(02h)-1
   930  02DB                     u4025:
   931  02DB  35E9               	lslf	(??_main+0)+0,f
   932  02DC  3EFF               	addlw	-1
   933  02DD  1D03               	skipz
   934  02DE  2ADB               	goto	u4025
   935  02DF  3569               	lslf	(??_main+0)+0,w
   936  02E0  3EA0               	addlw	_curreading0&0ffh
   937  02E1  0086               	movwf	fsr1l
   938  02E2  0187               	clrf fsr1h	
   939                           	
   940  02E3  3F40               	moviw	[0]fsr1
   941  02E4  07A0               	addwf	(_average),f
   942  02E5  3F41               	moviw	[1]fsr1
   943  02E6  3DA1               	addwfc	(_average+1),f
   944  02E7  3F42               	moviw	[2]fsr1
   945  02E8  3DA2               	addwfc	(_average+2),f
   946  02E9  3F43               	moviw	[3]fsr1
   947  02EA  3DA3               	addwfc	(_average+3),f
   948                           	line	341
   949                           	
   950  02EB                     l5831:	
   951  02EB  3001               	movlw	(01h)
   952  02EC  00E9               	movwf	(??_main+0)+0
   953  02ED  0869               	movf	(??_main+0)+0,w
   954  02EE  07EE               	addwf	(main@j),f
   955                           	
   956  02EF                     l5833:	
   957  02EF  3008               	movlw	(08h)
   958  02F0  026E               	subwf	(main@j),w
   959  02F1  1C03               	skipc
   960  02F2  2AF4               	goto	u4031
   961  02F3  2AF5               	goto	u4030
   962  02F4                     u4031:
   963  02F4  2AD8               	goto	l5829
   964  02F5                     u4030:
   965  02F5  2AF6               	goto	l5835
   966                           	
   967  02F6                     l1905:	
   968                           	line	345
   969                           	
   970  02F6                     l5835:	
   971                           ;newmain.c: 344: }
   972                           ;newmain.c: 345: average[0]/=8; avgflag[0]=0;
   973  02F6  3003               	movlw	03h
   974  02F7                     u4045:
   975  02F7  36A3               	lsrf	(_average+3),f
   976  02F8  0CA2               	rrf	(_average+2),f
   977  02F9  0CA1               	rrf	(_average+1),f
   978  02FA  0CA0               	rrf	(_average),f
   979  02FB  0B89               	decfsz	wreg,f
   980  02FC  2AF7               	goto	u4045
   981                           
   982                           	
   983  02FD                     l5837:	
   984  02FD  01C0               	clrf	(_avgflag)
   985  02FE  2AFF               	goto	l5839
   986                           	line	346
   987                           	
   988  02FF                     l1903:	
   989                           	line	347
   990                           	
   991  02FF                     l5839:	
   992                           ;newmain.c: 346: }
   993                           ;newmain.c: 347: if(avgflag[1]==1)
   994  02FF  0841               	movf	0+(_avgflag)+01h,w
   995  0300  3A01               	xorlw	01h&0ffh
   996  0301  1D03               	skipz
   997  0302  2B04               	goto	u4051
   998  0303  2B05               	goto	u4050
   999  0304                     u4051:
  1000  0304  2B36               	goto	l5857
  1001  0305                     u4050:
  1002                           	line	349
  1003                           	
  1004  0305                     l5841:	
  1005                           ;newmain.c: 348: {
  1006                           ;newmain.c: 349: for(j=0; j<8 ; j++)
  1007  0305  01EE               	clrf	(main@j)
  1008                           	
  1009  0306                     l5843:	
  1010  0306  3008               	movlw	(08h)
  1011  0307  026E               	subwf	(main@j),w
  1012  0308  1C03               	skipc
  1013  0309  2B0B               	goto	u4061
  1014  030A  2B0C               	goto	u4060
  1015  030B                     u4061:
  1016  030B  2B0E               	goto	l5847
  1017  030C                     u4060:
  1018  030C  2B2D               	goto	l5853
  1019                           	
  1020  030D                     l5845:	
  1021  030D  2B2D               	goto	l5853
  1022                           	line	350
  1023                           	
  1024  030E                     l1907:	
  1025                           	line	351
  1026                           	
  1027  030E                     l5847:	
  1028                           ;newmain.c: 350: {
  1029                           ;newmain.c: 351: average[1] += curreading1[j];
  1030  030E  086E               	movf	(main@j),w
  1031  030F  00E9               	movwf	(??_main+0)+0
  1032  0310  3001               	movlw	(02h)-1
  1033  0311                     u4075:
  1034  0311  35E9               	lslf	(??_main+0)+0,f
  1035  0312  3EFF               	addlw	-1
  1036  0313  1D03               	skipz
  1037  0314  2B11               	goto	u4075
  1038  0315  3569               	lslf	(??_main+0)+0,w
  1039  0316  3E20               	addlw	_curreading1&0ffh
  1040  0317  0086               	movwf	fsr1l
  1041  0318  3001               	movlw 1	; select bank2/3
  1042  0319  0087               	movwf fsr1h	
  1043                           	
  1044  031A  3F40               	moviw	[0]fsr1
  1045  031B  07A4               	addwf	0+(_average)+04h,f
  1046  031C  3F41               	moviw	[1]fsr1
  1047  031D  3DA5               	addwfc	1+(_average)+04h,f
  1048  031E  3F42               	moviw	[2]fsr1
  1049  031F  3DA6               	addwfc	2+(_average)+04h,f
  1050  0320  3F43               	moviw	[3]fsr1
  1051  0321  3DA7               	addwfc	3+(_average)+04h,f
  1052                           	line	349
  1053                           	
  1054  0322                     l5849:	
  1055  0322  3001               	movlw	(01h)
  1056  0323  00E9               	movwf	(??_main+0)+0
  1057  0324  0869               	movf	(??_main+0)+0,w
  1058  0325  07EE               	addwf	(main@j),f
  1059                           	
  1060  0326                     l5851:	
  1061  0326  3008               	movlw	(08h)
  1062  0327  026E               	subwf	(main@j),w
  1063  0328  1C03               	skipc
  1064  0329  2B2B               	goto	u4081
  1065  032A  2B2C               	goto	u4080
  1066  032B                     u4081:
  1067  032B  2B0E               	goto	l5847
  1068  032C                     u4080:
  1069  032C  2B2D               	goto	l5853
  1070                           	
  1071  032D                     l1908:	
  1072                           	line	353
  1073                           	
  1074  032D                     l5853:	
  1075                           ;newmain.c: 352: }
  1076                           ;newmain.c: 353: average[1]/=8; avgflag[1]=0;
  1077  032D  3003               	movlw	03h
  1078  032E                     u4095:
  1079  032E  36A7               	lsrf	3+(_average)+04h,f
  1080  032F  0CA6               	rrf	2+(_average)+04h,f
  1081  0330  0CA5               	rrf	1+(_average)+04h,f
  1082  0331  0CA4               	rrf	0+(_average)+04h,f
  1083  0332  0B89               	decfsz	wreg,f
  1084  0333  2B2E               	goto	u4095
  1085                           
  1086                           	
  1087  0334                     l5855:	
  1088  0334  01C1               	clrf	0+(_avgflag)+01h
  1089  0335  2B36               	goto	l5857
  1090                           	line	354
  1091                           	
  1092  0336                     l1906:	
  1093                           	line	355
  1094                           	
  1095  0336                     l5857:	
  1096                           ;newmain.c: 354: }
  1097                           ;newmain.c: 355: if(avgflag[2]==1)
  1098  0336  0842               	movf	0+(_avgflag)+02h,w
  1099  0337  3A01               	xorlw	01h&0ffh
  1100  0338  1D03               	skipz
  1101  0339  2B3B               	goto	u4101
  1102  033A  2B3C               	goto	u4100
  1103  033B                     u4101:
  1104  033B  2B6D               	goto	l5875
  1105  033C                     u4100:
  1106                           	line	357
  1107                           	
  1108  033C                     l5859:	
  1109                           ;newmain.c: 356: {
  1110                           ;newmain.c: 357: for(j=0; j<8 ; j++)
  1111  033C  01EE               	clrf	(main@j)
  1112                           	
  1113  033D                     l5861:	
  1114  033D  3008               	movlw	(08h)
  1115  033E  026E               	subwf	(main@j),w
  1116  033F  1C03               	skipc
  1117  0340  2B42               	goto	u4111
  1118  0341  2B43               	goto	u4110
  1119  0342                     u4111:
  1120  0342  2B45               	goto	l5865
  1121  0343                     u4110:
  1122  0343  2B64               	goto	l5871
  1123                           	
  1124  0344                     l5863:	
  1125  0344  2B64               	goto	l5871
  1126                           	line	358
  1127                           	
  1128  0345                     l1910:	
  1129                           	line	359
  1130                           	
  1131  0345                     l5865:	
  1132                           ;newmain.c: 358: {
  1133                           ;newmain.c: 359: average[2] += curreading2[j];
  1134  0345  086E               	movf	(main@j),w
  1135  0346  00E9               	movwf	(??_main+0)+0
  1136  0347  3001               	movlw	(02h)-1
  1137  0348                     u4125:
  1138  0348  35E9               	lslf	(??_main+0)+0,f
  1139  0349  3EFF               	addlw	-1
  1140  034A  1D03               	skipz
  1141  034B  2B48               	goto	u4125
  1142  034C  3569               	lslf	(??_main+0)+0,w
  1143  034D  3E40               	addlw	_curreading2&0ffh
  1144  034E  0086               	movwf	fsr1l
  1145  034F  3001               	movlw 1	; select bank2/3
  1146  0350  0087               	movwf fsr1h	
  1147                           	
  1148  0351  3F40               	moviw	[0]fsr1
  1149  0352  07A8               	addwf	0+(_average)+08h,f
  1150  0353  3F41               	moviw	[1]fsr1
  1151  0354  3DA9               	addwfc	1+(_average)+08h,f
  1152  0355  3F42               	moviw	[2]fsr1
  1153  0356  3DAA               	addwfc	2+(_average)+08h,f
  1154  0357  3F43               	moviw	[3]fsr1
  1155  0358  3DAB               	addwfc	3+(_average)+08h,f
  1156                           	line	357
  1157                           	
  1158  0359                     l5867:	
  1159  0359  3001               	movlw	(01h)
  1160  035A  00E9               	movwf	(??_main+0)+0
  1161  035B  0869               	movf	(??_main+0)+0,w
  1162  035C  07EE               	addwf	(main@j),f
  1163                           	
  1164  035D                     l5869:	
  1165  035D  3008               	movlw	(08h)
  1166  035E  026E               	subwf	(main@j),w
  1167  035F  1C03               	skipc
  1168  0360  2B62               	goto	u4131
  1169  0361  2B63               	goto	u4130
  1170  0362                     u4131:
  1171  0362  2B45               	goto	l5865
  1172  0363                     u4130:
  1173  0363  2B64               	goto	l5871
  1174                           	
  1175  0364                     l1911:	
  1176                           	line	361
  1177                           	
  1178  0364                     l5871:	
  1179                           ;newmain.c: 360: }
  1180                           ;newmain.c: 361: average[2]/=8;avgflag[2]=0;
  1181  0364  3003               	movlw	03h
  1182  0365                     u4145:
  1183  0365  36AB               	lsrf	3+(_average)+08h,f
  1184  0366  0CAA               	rrf	2+(_average)+08h,f
  1185  0367  0CA9               	rrf	1+(_average)+08h,f
  1186  0368  0CA8               	rrf	0+(_average)+08h,f
  1187  0369  0B89               	decfsz	wreg,f
  1188  036A  2B65               	goto	u4145
  1189                           
  1190                           	
  1191  036B                     l5873:	
  1192  036B  01C2               	clrf	0+(_avgflag)+02h
  1193  036C  2B6D               	goto	l5875
  1194                           	line	362
  1195                           	
  1196  036D                     l1909:	
  1197                           	line	364
  1198                           	
  1199  036D                     l5875:	
  1200                           ;newmain.c: 362: }
  1201                           ;newmain.c: 364: if(avgflag[3]==1)
  1202  036D  0843               	movf	0+(_avgflag)+03h,w
  1203  036E  3A01               	xorlw	01h&0ffh
  1204  036F  1D03               	skipz
  1205  0370  2B72               	goto	u4151
  1206  0371  2B73               	goto	u4150
  1207  0372                     u4151:
  1208  0372  2BA4               	goto	l5893
  1209  0373                     u4150:
  1210                           	line	366
  1211                           	
  1212  0373                     l5877:	
  1213                           ;newmain.c: 365: {
  1214                           ;newmain.c: 366: for(j=0; j<8 ; j++)
  1215  0373  01EE               	clrf	(main@j)
  1216                           	
  1217  0374                     l5879:	
  1218  0374  3008               	movlw	(08h)
  1219  0375  026E               	subwf	(main@j),w
  1220  0376  1C03               	skipc
  1221  0377  2B79               	goto	u4161
  1222  0378  2B7A               	goto	u4160
  1223  0379                     u4161:
  1224  0379  2B7C               	goto	l5883
  1225  037A                     u4160:
  1226  037A  2B9B               	goto	l5889
  1227                           	
  1228  037B                     l5881:	
  1229  037B  2B9B               	goto	l5889
  1230                           	line	367
  1231                           	
  1232  037C                     l1913:	
  1233                           	line	368
  1234                           	
  1235  037C                     l5883:	
  1236                           ;newmain.c: 367: {
  1237                           ;newmain.c: 368: average[3] += curreading3[j];
  1238  037C  086E               	movf	(main@j),w
  1239  037D  00E9               	movwf	(??_main+0)+0
  1240  037E  3001               	movlw	(02h)-1
  1241  037F                     u4175:
  1242  037F  35E9               	lslf	(??_main+0)+0,f
  1243  0380  3EFF               	addlw	-1
  1244  0381  1D03               	skipz
  1245  0382  2B7F               	goto	u4175
  1246  0383  3569               	lslf	(??_main+0)+0,w
  1247  0384  3EA0               	addlw	_curreading3&0ffh
  1248  0385  0086               	movwf	fsr1l
  1249  0386  3001               	movlw 1	; select bank3/4
  1250  0387  0087               	movwf fsr1h	
  1251                           	
  1252  0388  3F40               	moviw	[0]fsr1
  1253  0389  07AC               	addwf	0+(_average)+0Ch,f
  1254  038A  3F41               	moviw	[1]fsr1
  1255  038B  3DAD               	addwfc	1+(_average)+0Ch,f
  1256  038C  3F42               	moviw	[2]fsr1
  1257  038D  3DAE               	addwfc	2+(_average)+0Ch,f
  1258  038E  3F43               	moviw	[3]fsr1
  1259  038F  3DAF               	addwfc	3+(_average)+0Ch,f
  1260                           	line	366
  1261                           	
  1262  0390                     l5885:	
  1263  0390  3001               	movlw	(01h)
  1264  0391  00E9               	movwf	(??_main+0)+0
  1265  0392  0869               	movf	(??_main+0)+0,w
  1266  0393  07EE               	addwf	(main@j),f
  1267                           	
  1268  0394                     l5887:	
  1269  0394  3008               	movlw	(08h)
  1270  0395  026E               	subwf	(main@j),w
  1271  0396  1C03               	skipc
  1272  0397  2B99               	goto	u4181
  1273  0398  2B9A               	goto	u4180
  1274  0399                     u4181:
  1275  0399  2B7C               	goto	l5883
  1276  039A                     u4180:
  1277  039A  2B9B               	goto	l5889
  1278                           	
  1279  039B                     l1914:	
  1280                           	line	370
  1281                           	
  1282  039B                     l5889:	
  1283                           ;newmain.c: 369: }
  1284                           ;newmain.c: 370: average[3]/=8;avgflag[3]=0;
  1285  039B  3003               	movlw	03h
  1286  039C                     u4195:
  1287  039C  36AF               	lsrf	3+(_average)+0Ch,f
  1288  039D  0CAE               	rrf	2+(_average)+0Ch,f
  1289  039E  0CAD               	rrf	1+(_average)+0Ch,f
  1290  039F  0CAC               	rrf	0+(_average)+0Ch,f
  1291  03A0  0B89               	decfsz	wreg,f
  1292  03A1  2B9C               	goto	u4195
  1293                           
  1294                           	
  1295  03A2                     l5891:	
  1296  03A2  01C3               	clrf	0+(_avgflag)+03h
  1297  03A3  2BA4               	goto	l5893
  1298                           	line	371
  1299                           	
  1300  03A4                     l1912:	
  1301                           	line	373
  1302                           	
  1303  03A4                     l5893:	
  1304                           ;newmain.c: 371: }
  1305                           ;newmain.c: 373: if(avgflag[4]==1)
  1306  03A4  0844               	movf	0+(_avgflag)+04h,w
  1307  03A5  3A01               	xorlw	01h&0ffh
  1308  03A6  1D03               	skipz
  1309  03A7  2BA9               	goto	u4201
  1310  03A8  2BAA               	goto	u4200
  1311  03A9                     u4201:
  1312  03A9  2BDB               	goto	l5911
  1313  03AA                     u4200:
  1314                           	line	375
  1315                           	
  1316  03AA                     l5895:	
  1317                           ;newmain.c: 374: {
  1318                           ;newmain.c: 375: for(j=0; j<8 ; j++)
  1319  03AA  01EE               	clrf	(main@j)
  1320                           	
  1321  03AB                     l5897:	
  1322  03AB  3008               	movlw	(08h)
  1323  03AC  026E               	subwf	(main@j),w
  1324  03AD  1C03               	skipc
  1325  03AE  2BB0               	goto	u4211
  1326  03AF  2BB1               	goto	u4210
  1327  03B0                     u4211:
  1328  03B0  2BB3               	goto	l5901
  1329  03B1                     u4210:
  1330  03B1  2BD2               	goto	l5907
  1331                           	
  1332  03B2                     l5899:	
  1333  03B2  2BD2               	goto	l5907
  1334                           	line	376
  1335                           	
  1336  03B3                     l1916:	
  1337                           	line	377
  1338                           	
  1339  03B3                     l5901:	
  1340                           ;newmain.c: 376: {
  1341                           ;newmain.c: 377: average[4] += curreading4[j];
  1342  03B3  086E               	movf	(main@j),w
  1343  03B4  00E9               	movwf	(??_main+0)+0
  1344  03B5  3001               	movlw	(02h)-1
  1345  03B6                     u4225:
  1346  03B6  35E9               	lslf	(??_main+0)+0,f
  1347  03B7  3EFF               	addlw	-1
  1348  03B8  1D03               	skipz
  1349  03B9  2BB6               	goto	u4225
  1350  03BA  3569               	lslf	(??_main+0)+0,w
  1351  03BB  3EC0               	addlw	_curreading4&0ffh
  1352  03BC  0086               	movwf	fsr1l
  1353  03BD  3001               	movlw 1	; select bank3/4
  1354  03BE  0087               	movwf fsr1h	
  1355                           	
  1356  03BF  3F40               	moviw	[0]fsr1
  1357  03C0  07B0               	addwf	0+(_average)+010h,f
  1358  03C1  3F41               	moviw	[1]fsr1
  1359  03C2  3DB1               	addwfc	1+(_average)+010h,f
  1360  03C3  3F42               	moviw	[2]fsr1
  1361  03C4  3DB2               	addwfc	2+(_average)+010h,f
  1362  03C5  3F43               	moviw	[3]fsr1
  1363  03C6  3DB3               	addwfc	3+(_average)+010h,f
  1364                           	line	375
  1365                           	
  1366  03C7                     l5903:	
  1367  03C7  3001               	movlw	(01h)
  1368  03C8  00E9               	movwf	(??_main+0)+0
  1369  03C9  0869               	movf	(??_main+0)+0,w
  1370  03CA  07EE               	addwf	(main@j),f
  1371                           	
  1372  03CB                     l5905:	
  1373  03CB  3008               	movlw	(08h)
  1374  03CC  026E               	subwf	(main@j),w
  1375  03CD  1C03               	skipc
  1376  03CE  2BD0               	goto	u4231
  1377  03CF  2BD1               	goto	u4230
  1378  03D0                     u4231:
  1379  03D0  2BB3               	goto	l5901
  1380  03D1                     u4230:
  1381  03D1  2BD2               	goto	l5907
  1382                           	
  1383  03D2                     l1917:	
  1384                           	line	379
  1385                           	
  1386  03D2                     l5907:	
  1387                           ;newmain.c: 378: }
  1388                           ;newmain.c: 379: average[4]/=8;avgflag[4]=0;
  1389  03D2  3003               	movlw	03h
  1390  03D3                     u4245:
  1391  03D3  36B3               	lsrf	3+(_average)+010h,f
  1392  03D4  0CB2               	rrf	2+(_average)+010h,f
  1393  03D5  0CB1               	rrf	1+(_average)+010h,f
  1394  03D6  0CB0               	rrf	0+(_average)+010h,f
  1395  03D7  0B89               	decfsz	wreg,f
  1396  03D8  2BD3               	goto	u4245
  1397                           
  1398                           	
  1399  03D9                     l5909:	
  1400  03D9  01C4               	clrf	0+(_avgflag)+04h
  1401  03DA  2BDB               	goto	l5911
  1402                           	line	380
  1403                           	
  1404  03DB                     l1915:	
  1405                           	line	382
  1406                           	
  1407  03DB                     l5911:	
  1408                           ;newmain.c: 380: }
  1409                           ;newmain.c: 382: if(avgflag[5]==1)
  1410  03DB  0845               	movf	0+(_avgflag)+05h,w
  1411  03DC  3A01               	xorlw	01h&0ffh
  1412  03DD  1D03               	skipz
  1413  03DE  2BE0               	goto	u4251
  1414  03DF  2BE1               	goto	u4250
  1415  03E0                     u4251:
  1416  03E0  2C12               	goto	l5929
  1417  03E1                     u4250:
  1418                           	line	384
  1419                           	
  1420  03E1                     l5913:	
  1421                           ;newmain.c: 383: {
  1422                           ;newmain.c: 384: for(j=0; j<8 ; j++)
  1423  03E1  01EE               	clrf	(main@j)
  1424                           	
  1425  03E2                     l5915:	
  1426  03E2  3008               	movlw	(08h)
  1427  03E3  026E               	subwf	(main@j),w
  1428  03E4  1C03               	skipc
  1429  03E5  2BE7               	goto	u4261
  1430  03E6  2BE8               	goto	u4260
  1431  03E7                     u4261:
  1432  03E7  2BEA               	goto	l5919
  1433  03E8                     u4260:
  1434  03E8  2C09               	goto	l5925
  1435                           	
  1436  03E9                     l5917:	
  1437  03E9  2C09               	goto	l5925
  1438                           	line	385
  1439                           	
  1440  03EA                     l1919:	
  1441                           	line	386
  1442                           	
  1443  03EA                     l5919:	
  1444                           ;newmain.c: 385: {
  1445                           ;newmain.c: 386: average[5] += curreading5[j];
  1446  03EA  086E               	movf	(main@j),w
  1447  03EB  00E9               	movwf	(??_main+0)+0
  1448  03EC  3001               	movlw	(02h)-1
  1449  03ED                     u4275:
  1450  03ED  35E9               	lslf	(??_main+0)+0,f
  1451  03EE  3EFF               	addlw	-1
  1452  03EF  1D03               	skipz
  1453  03F0  2BED               	goto	u4275
  1454  03F1  3569               	lslf	(??_main+0)+0,w
  1455  03F2  3E20               	addlw	_curreading5&0ffh
  1456  03F3  0086               	movwf	fsr1l
  1457  03F4  3002               	movlw 2	; select bank4/5
  1458  03F5  0087               	movwf fsr1h	
  1459                           	
  1460  03F6  3F40               	moviw	[0]fsr1
  1461  03F7  07B4               	addwf	0+(_average)+014h,f
  1462  03F8  3F41               	moviw	[1]fsr1
  1463  03F9  3DB5               	addwfc	1+(_average)+014h,f
  1464  03FA  3F42               	moviw	[2]fsr1
  1465  03FB  3DB6               	addwfc	2+(_average)+014h,f
  1466  03FC  3F43               	moviw	[3]fsr1
  1467  03FD  3DB7               	addwfc	3+(_average)+014h,f
  1468                           	line	384
  1469                           	
  1470  03FE                     l5921:	
  1471  03FE  3001               	movlw	(01h)
  1472  03FF  00E9               	movwf	(??_main+0)+0
  1473  0400  0869               	movf	(??_main+0)+0,w
  1474  0401  07EE               	addwf	(main@j),f
  1475                           	
  1476  0402                     l5923:	
  1477  0402  3008               	movlw	(08h)
  1478  0403  026E               	subwf	(main@j),w
  1479  0404  1C03               	skipc
  1480  0405  2C07               	goto	u4281
  1481  0406  2C08               	goto	u4280
  1482  0407                     u4281:
  1483  0407  2BEA               	goto	l5919
  1484  0408                     u4280:
  1485  0408  2C09               	goto	l5925
  1486                           	
  1487  0409                     l1920:	
  1488                           	line	388
  1489                           	
  1490  0409                     l5925:	
  1491                           ;newmain.c: 387: }
  1492                           ;newmain.c: 388: average[5]/=8;avgflag[5]=0;
  1493  0409  3003               	movlw	03h
  1494  040A                     u4295:
  1495  040A  36B7               	lsrf	3+(_average)+014h,f
  1496  040B  0CB6               	rrf	2+(_average)+014h,f
  1497  040C  0CB5               	rrf	1+(_average)+014h,f
  1498  040D  0CB4               	rrf	0+(_average)+014h,f
  1499  040E  0B89               	decfsz	wreg,f
  1500  040F  2C0A               	goto	u4295
  1501                           
  1502                           	
  1503  0410                     l5927:	
  1504  0410  01C5               	clrf	0+(_avgflag)+05h
  1505  0411  2C12               	goto	l5929
  1506                           	line	389
  1507                           	
  1508  0412                     l1918:	
  1509                           	line	391
  1510                           	
  1511  0412                     l5929:	
  1512                           ;newmain.c: 389: }
  1513                           ;newmain.c: 391: if(avgflag[6]==1)
  1514  0412  0846               	movf	0+(_avgflag)+06h,w
  1515  0413  3A01               	xorlw	01h&0ffh
  1516  0414  1D03               	skipz
  1517  0415  2C17               	goto	u4301
  1518  0416  2C18               	goto	u4300
  1519  0417                     u4301:
  1520  0417  2C49               	goto	l5947
  1521  0418                     u4300:
  1522                           	line	393
  1523                           	
  1524  0418                     l5931:	
  1525                           ;newmain.c: 392: {
  1526                           ;newmain.c: 393: for(j=0; j<8 ; j++)
  1527  0418  01EE               	clrf	(main@j)
  1528                           	
  1529  0419                     l5933:	
  1530  0419  3008               	movlw	(08h)
  1531  041A  026E               	subwf	(main@j),w
  1532  041B  1C03               	skipc
  1533  041C  2C1E               	goto	u4311
  1534  041D  2C1F               	goto	u4310
  1535  041E                     u4311:
  1536  041E  2C21               	goto	l5937
  1537  041F                     u4310:
  1538  041F  2C40               	goto	l5943
  1539                           	
  1540  0420                     l5935:	
  1541  0420  2C40               	goto	l5943
  1542                           	line	394
  1543                           	
  1544  0421                     l1922:	
  1545                           	line	395
  1546                           	
  1547  0421                     l5937:	
  1548                           ;newmain.c: 394: {
  1549                           ;newmain.c: 395: average[6] += curreading6[j];
  1550  0421  086E               	movf	(main@j),w
  1551  0422  00E9               	movwf	(??_main+0)+0
  1552  0423  3001               	movlw	(02h)-1
  1553  0424                     u4325:
  1554  0424  35E9               	lslf	(??_main+0)+0,f
  1555  0425  3EFF               	addlw	-1
  1556  0426  1D03               	skipz
  1557  0427  2C24               	goto	u4325
  1558  0428  3569               	lslf	(??_main+0)+0,w
  1559  0429  3E40               	addlw	_curreading6&0ffh
  1560  042A  0086               	movwf	fsr1l
  1561  042B  3002               	movlw 2	; select bank4/5
  1562  042C  0087               	movwf fsr1h	
  1563                           	
  1564  042D  3F40               	moviw	[0]fsr1
  1565  042E  07B8               	addwf	0+(_average)+018h,f
  1566  042F  3F41               	moviw	[1]fsr1
  1567  0430  3DB9               	addwfc	1+(_average)+018h,f
  1568  0431  3F42               	moviw	[2]fsr1
  1569  0432  3DBA               	addwfc	2+(_average)+018h,f
  1570  0433  3F43               	moviw	[3]fsr1
  1571  0434  3DBB               	addwfc	3+(_average)+018h,f
  1572                           	line	393
  1573                           	
  1574  0435                     l5939:	
  1575  0435  3001               	movlw	(01h)
  1576  0436  00E9               	movwf	(??_main+0)+0
  1577  0437  0869               	movf	(??_main+0)+0,w
  1578  0438  07EE               	addwf	(main@j),f
  1579                           	
  1580  0439                     l5941:	
  1581  0439  3008               	movlw	(08h)
  1582  043A  026E               	subwf	(main@j),w
  1583  043B  1C03               	skipc
  1584  043C  2C3E               	goto	u4331
  1585  043D  2C3F               	goto	u4330
  1586  043E                     u4331:
  1587  043E  2C21               	goto	l5937
  1588  043F                     u4330:
  1589  043F  2C40               	goto	l5943
  1590                           	
  1591  0440                     l1923:	
  1592                           	line	397
  1593                           	
  1594  0440                     l5943:	
  1595                           ;newmain.c: 396: }
  1596                           ;newmain.c: 397: average[6]/=8;avgflag[6]=0;
  1597  0440  3003               	movlw	03h
  1598  0441                     u4345:
  1599  0441  36BB               	lsrf	3+(_average)+018h,f
  1600  0442  0CBA               	rrf	2+(_average)+018h,f
  1601  0443  0CB9               	rrf	1+(_average)+018h,f
  1602  0444  0CB8               	rrf	0+(_average)+018h,f
  1603  0445  0B89               	decfsz	wreg,f
  1604  0446  2C41               	goto	u4345
  1605                           
  1606                           	
  1607  0447                     l5945:	
  1608  0447  01C6               	clrf	0+(_avgflag)+06h
  1609  0448  2C49               	goto	l5947
  1610                           	line	398
  1611                           	
  1612  0449                     l1921:	
  1613                           	line	400
  1614                           	
  1615  0449                     l5947:	
  1616                           ;newmain.c: 398: }
  1617                           ;newmain.c: 400: if(avgflag[7]==1)
  1618  0449  0847               	movf	0+(_avgflag)+07h,w
  1619  044A  3A01               	xorlw	01h&0ffh
  1620  044B  1D03               	skipz
  1621  044C  2C4E               	goto	u4351
  1622  044D  2C4F               	goto	u4350
  1623  044E                     u4351:
  1624  044E  2C80               	goto	l5965
  1625  044F                     u4350:
  1626                           	line	402
  1627                           	
  1628  044F                     l5949:	
  1629                           ;newmain.c: 401: {
  1630                           ;newmain.c: 402: for(j=0; j<8 ; j++)
  1631  044F  01EE               	clrf	(main@j)
  1632                           	
  1633  0450                     l5951:	
  1634  0450  3008               	movlw	(08h)
  1635  0451  026E               	subwf	(main@j),w
  1636  0452  1C03               	skipc
  1637  0453  2C55               	goto	u4361
  1638  0454  2C56               	goto	u4360
  1639  0455                     u4361:
  1640  0455  2C58               	goto	l5955
  1641  0456                     u4360:
  1642  0456  2C77               	goto	l5961
  1643                           	
  1644  0457                     l5953:	
  1645  0457  2C77               	goto	l5961
  1646                           	line	403
  1647                           	
  1648  0458                     l1925:	
  1649                           	line	404
  1650                           	
  1651  0458                     l5955:	
  1652                           ;newmain.c: 403: {
  1653                           ;newmain.c: 404: average[7] += curreading7[j];
  1654  0458  086E               	movf	(main@j),w
  1655  0459  00E9               	movwf	(??_main+0)+0
  1656  045A  3001               	movlw	(02h)-1
  1657  045B                     u4375:
  1658  045B  35E9               	lslf	(??_main+0)+0,f
  1659  045C  3EFF               	addlw	-1
  1660  045D  1D03               	skipz
  1661  045E  2C5B               	goto	u4375
  1662  045F  3569               	lslf	(??_main+0)+0,w
  1663  0460  3EA0               	addlw	_curreading7&0ffh
  1664  0461  0086               	movwf	fsr1l
  1665  0462  3002               	movlw 2	; select bank5/6
  1666  0463  0087               	movwf fsr1h	
  1667                           	
  1668  0464  3F40               	moviw	[0]fsr1
  1669  0465  07BC               	addwf	0+(_average)+01Ch,f
  1670  0466  3F41               	moviw	[1]fsr1
  1671  0467  3DBD               	addwfc	1+(_average)+01Ch,f
  1672  0468  3F42               	moviw	[2]fsr1
  1673  0469  3DBE               	addwfc	2+(_average)+01Ch,f
  1674  046A  3F43               	moviw	[3]fsr1
  1675  046B  3DBF               	addwfc	3+(_average)+01Ch,f
  1676                           	line	402
  1677                           	
  1678  046C                     l5957:	
  1679  046C  3001               	movlw	(01h)
  1680  046D  00E9               	movwf	(??_main+0)+0
  1681  046E  0869               	movf	(??_main+0)+0,w
  1682  046F  07EE               	addwf	(main@j),f
  1683                           	
  1684  0470                     l5959:	
  1685  0470  3008               	movlw	(08h)
  1686  0471  026E               	subwf	(main@j),w
  1687  0472  1C03               	skipc
  1688  0473  2C75               	goto	u4381
  1689  0474  2C76               	goto	u4380
  1690  0475                     u4381:
  1691  0475  2C58               	goto	l5955
  1692  0476                     u4380:
  1693  0476  2C77               	goto	l5961
  1694                           	
  1695  0477                     l1926:	
  1696                           	line	406
  1697                           	
  1698  0477                     l5961:	
  1699                           ;newmain.c: 405: }
  1700                           ;newmain.c: 406: average[7]/=8;avgflag[7]=0;
  1701  0477  3003               	movlw	03h
  1702  0478                     u4395:
  1703  0478  36BF               	lsrf	3+(_average)+01Ch,f
  1704  0479  0CBE               	rrf	2+(_average)+01Ch,f
  1705  047A  0CBD               	rrf	1+(_average)+01Ch,f
  1706  047B  0CBC               	rrf	0+(_average)+01Ch,f
  1707  047C  0B89               	decfsz	wreg,f
  1708  047D  2C78               	goto	u4395
  1709                           
  1710                           	
  1711  047E                     l5963:	
  1712  047E  01C7               	clrf	0+(_avgflag)+07h
  1713  047F  2C80               	goto	l5965
  1714                           	line	407
  1715                           	
  1716  0480                     l1924:	
  1717                           	line	408
  1718                           	
  1719  0480                     l5965:	
  1720                           ;newmain.c: 407: }
  1721                           ;newmain.c: 408: USARTWriteChar('0');
  1722  0480  3030               	movlw	(030h)
  1723  0481  318F  27E0  3182   	fcall	_USARTWriteChar
  1724                           	line	409
  1725                           	
  1726  0484                     l5967:	
  1727                           ;newmain.c: 409: USARTWriteChar(':');
  1728  0484  303A               	movlw	(03Ah)
  1729  0485  318F  27E0  3182   	fcall	_USARTWriteChar
  1730                           	line	410
  1731                           	
  1732  0488                     l5969:	
  1733                           ;newmain.c: 410: USARTWriteInt(average[0],5);
  1734  0488  0020               	movlb 0	; select bank0
  1735  0489  0821               	movf	(_average+1),w
  1736  048A  01DB               	clrf	(?_USARTWriteInt+1)
  1737  048B  07DB               	addwf	(?_USARTWriteInt+1)
  1738  048C  0820               	movf	(_average),w
  1739  048D  01DA               	clrf	(?_USARTWriteInt)
  1740  048E  07DA               	addwf	(?_USARTWriteInt)
  1741                           
  1742  048F  3005               	movlw	low(05h)
  1743  0490  00DC               	movwf	0+(?_USARTWriteInt)+02h
  1744  0491  3000               	movlw	high(05h)
  1745  0492  00DD               	movwf	(0+(?_USARTWriteInt)+02h)+1
  1746  0493  3185  255D  3182   	fcall	_USARTWriteInt
  1747                           	line	411
  1748                           	
  1749  0496                     l5971:	
  1750                           ;newmain.c: 411: USARTWriteChar(' ');
  1751  0496  3020               	movlw	(020h)
  1752  0497  318F  27E0  3182   	fcall	_USARTWriteChar
  1753                           	line	412
  1754                           	
  1755  049A                     l5973:	
  1756                           ;newmain.c: 412: USARTWriteChar('1');
  1757  049A  3031               	movlw	(031h)
  1758  049B  318F  27E0  3182   	fcall	_USARTWriteChar
  1759                           	line	413
  1760                           	
  1761  049E                     l5975:	
  1762                           ;newmain.c: 413: USARTWriteChar(':');
  1763  049E  303A               	movlw	(03Ah)
  1764  049F  318F  27E0  3182   	fcall	_USARTWriteChar
  1765                           	line	414
  1766                           	
  1767  04A2                     l5977:	
  1768                           ;newmain.c: 414: USARTWriteInt(average[1],5);
  1769  04A2  0020               	movlb 0	; select bank0
  1770  04A3  0825               	movf	1+(_average)+04h,w
  1771  04A4  01DB               	clrf	(?_USARTWriteInt+1)
  1772  04A5  07DB               	addwf	(?_USARTWriteInt+1)
  1773  04A6  0824               	movf	0+(_average)+04h,w
  1774  04A7  01DA               	clrf	(?_USARTWriteInt)
  1775  04A8  07DA               	addwf	(?_USARTWriteInt)
  1776                           
  1777  04A9  3005               	movlw	low(05h)
  1778  04AA  00DC               	movwf	0+(?_USARTWriteInt)+02h
  1779  04AB  3000               	movlw	high(05h)
  1780  04AC  00DD               	movwf	(0+(?_USARTWriteInt)+02h)+1
  1781  04AD  3185  255D  3182   	fcall	_USARTWriteInt
  1782                           	line	415
  1783                           	
  1784  04B0                     l5979:	
  1785                           ;newmain.c: 415: USARTWriteChar(' ');
  1786  04B0  3020               	movlw	(020h)
  1787  04B1  318F  27E0  3182   	fcall	_USARTWriteChar
  1788                           	line	416
  1789                           	
  1790  04B4                     l5981:	
  1791                           ;newmain.c: 416: USARTWriteChar('2');
  1792  04B4  3032               	movlw	(032h)
  1793  04B5  318F  27E0  3182   	fcall	_USARTWriteChar
  1794                           	line	417
  1795                           	
  1796  04B8                     l5983:	
  1797                           ;newmain.c: 417: USARTWriteChar(':');
  1798  04B8  303A               	movlw	(03Ah)
  1799  04B9  318F  27E0  3182   	fcall	_USARTWriteChar
  1800                           	line	418
  1801                           	
  1802  04BC                     l5985:	
  1803                           ;newmain.c: 418: USARTWriteInt(average[2],5);
  1804  04BC  0020               	movlb 0	; select bank0
  1805  04BD  0829               	movf	1+(_average)+08h,w
  1806  04BE  01DB               	clrf	(?_USARTWriteInt+1)
  1807  04BF  07DB               	addwf	(?_USARTWriteInt+1)
  1808  04C0  0828               	movf	0+(_average)+08h,w
  1809  04C1  01DA               	clrf	(?_USARTWriteInt)
  1810  04C2  07DA               	addwf	(?_USARTWriteInt)
  1811                           
  1812  04C3  3005               	movlw	low(05h)
  1813  04C4  00DC               	movwf	0+(?_USARTWriteInt)+02h
  1814  04C5  3000               	movlw	high(05h)
  1815  04C6  00DD               	movwf	(0+(?_USARTWriteInt)+02h)+1
  1816  04C7  3185  255D  3182   	fcall	_USARTWriteInt
  1817                           	line	419
  1818                           	
  1819  04CA                     l5987:	
  1820                           ;newmain.c: 419: USARTWriteChar(' ');
  1821  04CA  3020               	movlw	(020h)
  1822  04CB  318F  27E0  3182   	fcall	_USARTWriteChar
  1823                           	line	420
  1824                           	
  1825  04CE                     l5989:	
  1826                           ;newmain.c: 420: USARTWriteChar('3');
  1827  04CE  3033               	movlw	(033h)
  1828  04CF  318F  27E0  3182   	fcall	_USARTWriteChar
  1829                           	line	421
  1830                           	
  1831  04D2                     l5991:	
  1832                           ;newmain.c: 421: USARTWriteChar(':');
  1833  04D2  303A               	movlw	(03Ah)
  1834  04D3  318F  27E0  3182   	fcall	_USARTWriteChar
  1835                           	line	422
  1836                           	
  1837  04D6                     l5993:	
  1838                           ;newmain.c: 422: USARTWriteInt(average[3],5);
  1839  04D6  0020               	movlb 0	; select bank0
  1840  04D7  082D               	movf	1+(_average)+0Ch,w
  1841  04D8  01DB               	clrf	(?_USARTWriteInt+1)
  1842  04D9  07DB               	addwf	(?_USARTWriteInt+1)
  1843  04DA  082C               	movf	0+(_average)+0Ch,w
  1844  04DB  01DA               	clrf	(?_USARTWriteInt)
  1845  04DC  07DA               	addwf	(?_USARTWriteInt)
  1846                           
  1847  04DD  3005               	movlw	low(05h)
  1848  04DE  00DC               	movwf	0+(?_USARTWriteInt)+02h
  1849  04DF  3000               	movlw	high(05h)
  1850  04E0  00DD               	movwf	(0+(?_USARTWriteInt)+02h)+1
  1851  04E1  3185  255D  3182   	fcall	_USARTWriteInt
  1852                           	line	423
  1853                           	
  1854  04E4                     l5995:	
  1855                           ;newmain.c: 423: USARTWriteChar(' ');
  1856  04E4  3020               	movlw	(020h)
  1857  04E5  318F  27E0  3182   	fcall	_USARTWriteChar
  1858                           	line	424
  1859                           	
  1860  04E8                     l5997:	
  1861                           ;newmain.c: 424: USARTWriteChar('4');
  1862  04E8  3034               	movlw	(034h)
  1863  04E9  318F  27E0  3182   	fcall	_USARTWriteChar
  1864                           	line	425
  1865                           	
  1866  04EC                     l5999:	
  1867                           ;newmain.c: 425: USARTWriteChar(':');
  1868  04EC  303A               	movlw	(03Ah)
  1869  04ED  318F  27E0  3182   	fcall	_USARTWriteChar
  1870                           	line	426
  1871                           	
  1872  04F0                     l6001:	
  1873                           ;newmain.c: 426: USARTWriteInt(average[4],5);
  1874  04F0  0020               	movlb 0	; select bank0
  1875  04F1  0831               	movf	1+(_average)+010h,w
  1876  04F2  01DB               	clrf	(?_USARTWriteInt+1)
  1877  04F3  07DB               	addwf	(?_USARTWriteInt+1)
  1878  04F4  0830               	movf	0+(_average)+010h,w
  1879  04F5  01DA               	clrf	(?_USARTWriteInt)
  1880  04F6  07DA               	addwf	(?_USARTWriteInt)
  1881                           
  1882  04F7  3005               	movlw	low(05h)
  1883  04F8  00DC               	movwf	0+(?_USARTWriteInt)+02h
  1884  04F9  3000               	movlw	high(05h)
  1885  04FA  00DD               	movwf	(0+(?_USARTWriteInt)+02h)+1
  1886  04FB  3185  255D  3182   	fcall	_USARTWriteInt
  1887                           	line	427
  1888                           	
  1889  04FE                     l6003:	
  1890                           ;newmain.c: 427: USARTWriteChar(' ');
  1891  04FE  3020               	movlw	(020h)
  1892  04FF  318F  27E0  3182   	fcall	_USARTWriteChar
  1893                           	line	428
  1894                           	
  1895  0502                     l6005:	
  1896                           ;newmain.c: 428: USARTWriteChar('5');
  1897  0502  3035               	movlw	(035h)
  1898  0503  318F  27E0  3182   	fcall	_USARTWriteChar
  1899                           	line	429
  1900                           	
  1901  0506                     l6007:	
  1902                           ;newmain.c: 429: USARTWriteChar(':');
  1903  0506  303A               	movlw	(03Ah)
  1904  0507  318F  27E0  3182   	fcall	_USARTWriteChar
  1905                           	line	430
  1906                           	
  1907  050A                     l6009:	
  1908                           ;newmain.c: 430: USARTWriteInt(average[5],5);
  1909  050A  0020               	movlb 0	; select bank0
  1910  050B  0835               	movf	1+(_average)+014h,w
  1911  050C  01DB               	clrf	(?_USARTWriteInt+1)
  1912  050D  07DB               	addwf	(?_USARTWriteInt+1)
  1913  050E  0834               	movf	0+(_average)+014h,w
  1914  050F  01DA               	clrf	(?_USARTWriteInt)
  1915  0510  07DA               	addwf	(?_USARTWriteInt)
  1916                           
  1917  0511  3005               	movlw	low(05h)
  1918  0512  00DC               	movwf	0+(?_USARTWriteInt)+02h
  1919  0513  3000               	movlw	high(05h)
  1920  0514  00DD               	movwf	(0+(?_USARTWriteInt)+02h)+1
  1921  0515  3185  255D  3182   	fcall	_USARTWriteInt
  1922                           	line	431
  1923                           	
  1924  0518                     l6011:	
  1925                           ;newmain.c: 431: USARTWriteChar(' ');
  1926  0518  3020               	movlw	(020h)
  1927  0519  318F  27E0  3182   	fcall	_USARTWriteChar
  1928                           	line	432
  1929                           	
  1930  051C                     l6013:	
  1931                           ;newmain.c: 432: USARTWriteChar('6');
  1932  051C  3036               	movlw	(036h)
  1933  051D  318F  27E0  3182   	fcall	_USARTWriteChar
  1934                           	line	433
  1935                           	
  1936  0520                     l6015:	
  1937                           ;newmain.c: 433: USARTWriteChar(':');
  1938  0520  303A               	movlw	(03Ah)
  1939  0521  318F  27E0  3182   	fcall	_USARTWriteChar
  1940                           	line	434
  1941                           	
  1942  0524                     l6017:	
  1943                           ;newmain.c: 434: USARTWriteInt(average[6],5);
  1944  0524  0020               	movlb 0	; select bank0
  1945  0525  0839               	movf	1+(_average)+018h,w
  1946  0526  01DB               	clrf	(?_USARTWriteInt+1)
  1947  0527  07DB               	addwf	(?_USARTWriteInt+1)
  1948  0528  0838               	movf	0+(_average)+018h,w
  1949  0529  01DA               	clrf	(?_USARTWriteInt)
  1950  052A  07DA               	addwf	(?_USARTWriteInt)
  1951                           
  1952  052B  3005               	movlw	low(05h)
  1953  052C  00DC               	movwf	0+(?_USARTWriteInt)+02h
  1954  052D  3000               	movlw	high(05h)
  1955  052E  00DD               	movwf	(0+(?_USARTWriteInt)+02h)+1
  1956  052F  3185  255D  3182   	fcall	_USARTWriteInt
  1957                           	line	435
  1958                           	
  1959  0532                     l6019:	
  1960                           ;newmain.c: 435: USARTWriteChar(' ');
  1961  0532  3020               	movlw	(020h)
  1962  0533  318F  27E0  3182   	fcall	_USARTWriteChar
  1963                           	line	436
  1964                           	
  1965  0536                     l6021:	
  1966                           ;newmain.c: 436: USARTWriteChar('7');
  1967  0536  3037               	movlw	(037h)
  1968  0537  318F  27E0  3182   	fcall	_USARTWriteChar
  1969                           	line	437
  1970                           	
  1971  053A                     l6023:	
  1972                           ;newmain.c: 437: USARTWriteChar(':');
  1973  053A  303A               	movlw	(03Ah)
  1974  053B  318F  27E0  3182   	fcall	_USARTWriteChar
  1975                           	line	438
  1976                           	
  1977  053E                     l6025:	
  1978                           ;newmain.c: 438: USARTWriteInt(average[7],5);
  1979  053E  0020               	movlb 0	; select bank0
  1980  053F  083D               	movf	1+(_average)+01Ch,w
  1981  0540  01DB               	clrf	(?_USARTWriteInt+1)
  1982  0541  07DB               	addwf	(?_USARTWriteInt+1)
  1983  0542  083C               	movf	0+(_average)+01Ch,w
  1984  0543  01DA               	clrf	(?_USARTWriteInt)
  1985  0544  07DA               	addwf	(?_USARTWriteInt)
  1986                           
  1987  0545  3005               	movlw	low(05h)
  1988  0546  00DC               	movwf	0+(?_USARTWriteInt)+02h
  1989  0547  3000               	movlw	high(05h)
  1990  0548  00DD               	movwf	(0+(?_USARTWriteInt)+02h)+1
  1991  0549  3185  255D  3182   	fcall	_USARTWriteInt
  1992                           	line	439
  1993                           	
  1994  054C                     l6027:	
  1995                           ;newmain.c: 439: USARTWriteChar('\n');
  1996  054C  300A               	movlw	(0Ah)
  1997  054D  318F  27E0  3182   	fcall	_USARTWriteChar
  1998                           	line	440
  1999                           	
  2000  0550                     l6029:	
  2001                           ;newmain.c: 440: USARTWriteChar('\r');
  2002  0550  300D               	movlw	(0Dh)
  2003  0551  318F  27E0  3182   	fcall	_USARTWriteChar
  2004                           	line	442
  2005                           	
  2006  0554                     l6031:	
  2007                           ;newmain.c: 442: i++;
  2008  0554  3001               	movlw	(01h)
  2009  0555  0020               	movlb 0	; select bank0
  2010  0556  00E9               	movwf	(??_main+0)+0
  2011  0557  0869               	movf	(??_main+0)+0,w
  2012  0558  07ED               	addwf	(main@i),f
  2013  0559  2AB1               	goto	l1901
  2014                           	line	444
  2015                           	
  2016  055A                     l1927:	
  2017                           	line	322
  2018  055A  2AB1               	goto	l1901
  2019                           	
  2020  055B                     l1928:	
  2021                           	line	503
  2022                           	
  2023  055B                     l1929:	
  2024                           	global	start
  2025  055B  3182  2A91         	ljmp	start
  2026                           	opt stack 0
  2027                           GLOBAL	__end_of_main
  2028  055D                     	__end_of_main:
  2029 ;; =============== function _main ends ============
  2030                           
  2031                           	signat	_main,88
  2032                           	global	_USARTWriteInt
  2033                           psect	text257,local,class=CODE,delta=2
  2034                           global __ptext257
  2035  055D                     __ptext257:
  2036                           
  2037 ;; *************** function _USARTWriteInt *****************
  2038 ;; Defined at:
  2039 ;;		line 233 in file "newmain.c"
  2040 ;; Parameters:    Size  Location     Type
  2041 ;;  val             2    9[BANK0 ] int 
  2042 ;;  field_length    2   11[BANK0 ] int 
  2043 ;; Auto vars:     Size  Location     Type
  2044 ;;  str             5   15[BANK0 ] unsigned char [5]
  2045 ;;  i               2   22[BANK0 ] int 
  2046 ;;  j               2   20[BANK0 ] int 
  2047 ;; Return value:  Size  Location     Type
  2048 ;;		None               void
  2049 ;; Registers used:
  2050 ;;		wreg, fsr0l, fsr0h, fsr1l, fsr1h, status,2, status,0, btemp+1, pclath, cstack
  2051 ;; Tracked objects:
  2052 ;;		On entry : 0/0
  2053 ;;		On exit  : 0/0
  2054 ;;		Unchanged: 0/0
  2055 ;; Data sizes:     COMMON   BANK0   BANK1   BANK2   BANK3   BANK4   BANK5   BANK6
  2056 ;;      Params:         0       4       0       0       0       0       0       0
  2057 ;;      Locals:         0       9       0       0       0       0       0       0
  2058 ;;      Temps:          0       2       0       0       0       0       0       0
  2059 ;;      Totals:         0      15       0       0       0       0       0       0
  2060 ;;Total ram usage:       15 bytes
  2061 ;; Hardware stack levels used:    1
  2062 ;; Hardware stack levels required when called:    2
  2063 ;; This function calls:
  2064 ;;		_USARTWriteChar
  2065 ;;		___awmod
  2066 ;;		___awdiv
  2067 ;; This function is called by:
  2068 ;;		_main
  2069 ;; This function uses a non-reentrant model
  2070 ;;
  2071                           psect	text257
  2072                           	file	"newmain.c"
  2073                           	line	233
  2074                           	global	__size_of_USARTWriteInt
  2075  00D9                     	__size_of_USARTWriteInt	equ	__end_of_USARTWriteInt-_USARTWriteInt
  2076                           	
  2077  055D                     _USARTWriteInt:	
  2078                           	opt	stack 13
  2079                           ; Regs used in _USARTWriteInt: [allreg]
  2080                           	line	234
  2081                           	
  2082  055D                     l5735:	
  2083                           ;newmain.c: 234: char str[5]={0,0,0,0,0};
  2084  055D  30E0               	movlw	low(USARTWriteInt@F3416)
  2085  055E  0086               	movwf	fsr1l
  2086  055F  3000               	movlw	high(USARTWriteInt@F3416)
  2087  0560  0087               	movwf	fsr1h
  2088  0561  3060               	movlw	low(USARTWriteInt@str)
  2089  0562  0084               	movwf	fsr0l
  2090  0563  3000               	movlw	high(USARTWriteInt@str)
  2091  0564  0085               	movwf	fsr0h
  2092  0565  3005               	movlw	5
  2093  0566  00FF               	movwf	btemp+1
  2094  0567                     u3900:
  2095  0567  0016               	moviw	fsr1++
  2096  0568  001A               	movwi	fsr0++
  2097  0569  0BFF               	decfsz	btemp+1,f
  2098  056A  2D67               	goto	u3900
  2099                           	line	235
  2100                           	
  2101  056B                     l5737:	
  2102                           ;newmain.c: 235: int i=4,j=0;
  2103  056B  3004               	movlw	low(04h)
  2104  056C  0020               	movlb 0	; select bank0
  2105  056D  00E7               	movwf	(USARTWriteInt@i)
  2106  056E  3000               	movlw	high(04h)
  2107  056F  00E8               	movwf	((USARTWriteInt@i))+1
  2108                           	
  2109  0570                     l5739:	
  2110  0570  01E5               	clrf	(USARTWriteInt@j)
  2111  0571  01E6               	clrf	(USARTWriteInt@j+1)
  2112                           	line	237
  2113                           	
  2114  0572                     l5741:	
  2115                           ;newmain.c: 237: if(val<0)
  2116  0572  1FDB               	btfss	(USARTWriteInt@val+1),7
  2117  0573  2D75               	goto	u3911
  2118  0574  2D76               	goto	u3910
  2119  0575                     u3911:
  2120  0575  2D81               	goto	l5747
  2121  0576                     u3910:
  2122                           	line	239
  2123                           	
  2124  0576                     l5743:	
  2125                           ;newmain.c: 238: {
  2126                           ;newmain.c: 239: USARTWriteChar('-');
  2127  0576  302D               	movlw	(02Dh)
  2128  0577  318F  27E0  3185   	fcall	_USARTWriteChar
  2129                           	line	240
  2130                           	
  2131  057A                     l5745:	
  2132                           ;newmain.c: 240: val=val*-1;
  2133  057A  0020               	movlb 0	; select bank0
  2134  057B  09DA               	comf	(USARTWriteInt@val),f
  2135  057C  09DB               	comf	(USARTWriteInt@val+1),f
  2136  057D  0ADA               	incf	(USARTWriteInt@val),f
  2137  057E  1903               	skipnz
  2138  057F  0ADB               	incf	(USARTWriteInt@val+1),f
  2139                           	line	241
  2140                           ;newmain.c: 241: }
  2141  0580  2D86               	goto	l5749
  2142                           	line	242
  2143                           	
  2144  0581                     l1885:	
  2145                           	line	244
  2146                           	
  2147  0581                     l5747:	
  2148                           ;newmain.c: 242: else
  2149                           ;newmain.c: 243: {
  2150                           ;newmain.c: 244: USARTWriteChar(' ');
  2151  0581  3020               	movlw	(020h)
  2152  0582  318F  27E0  3185   	fcall	_USARTWriteChar
  2153  0585  2D86               	goto	l5749
  2154                           	line	245
  2155                           	
  2156  0586                     l1886:	
  2157                           	line	247
  2158                           	
  2159  0586                     l5749:	
  2160                           ;newmain.c: 245: }
  2161                           ;newmain.c: 247: if(val==0 && field_length<1)
  2162  0586  0020               	movlb 0	; select bank0
  2163  0587  085B               	movf	((USARTWriteInt@val+1)),w
  2164  0588  045A               	iorwf	((USARTWriteInt@val)),w
  2165  0589  1D03               	skipz
  2166  058A  2D8C               	goto	u3921
  2167  058B  2D8D               	goto	u3920
  2168  058C                     u3921:
  2169  058C  2DD1               	goto	l5763
  2170  058D                     u3920:
  2171                           	
  2172  058D                     l5751:	
  2173  058D  085D               	movf	(USARTWriteInt@field_length+1),w
  2174  058E  3A80               	xorlw	80h
  2175  058F  00FF               	movwf	btemp+1
  2176  0590  3080               	movlw	(high(01h))^80h
  2177  0591  027F               	subwf	btemp+1,w
  2178  0592  1D03               	skipz
  2179  0593  2D96               	goto	u3935
  2180  0594  3001               	movlw	low(01h)
  2181  0595  025C               	subwf	(USARTWriteInt@field_length),w
  2182  0596                     u3935:
  2183                           
  2184  0596  1803               	skipnc
  2185  0597  2D99               	goto	u3931
  2186  0598  2D9A               	goto	u3930
  2187  0599                     u3931:
  2188  0599  2DD1               	goto	l5763
  2189  059A                     u3930:
  2190                           	line	249
  2191                           	
  2192  059A                     l5753:	
  2193                           ;newmain.c: 248: {
  2194                           ;newmain.c: 249: USARTWriteChar('0');
  2195  059A  3030               	movlw	(030h)
  2196  059B  318F  27E0  3185   	fcall	_USARTWriteChar
  2197  059E  2E35               	goto	l1888
  2198                           	line	250
  2199                           	
  2200  059F                     l5755:	
  2201                           ;newmain.c: 250: return;
  2202  059F  2E35               	goto	l1888
  2203                           	line	251
  2204                           	
  2205  05A0                     l1887:	
  2206                           	line	252
  2207                           ;newmain.c: 251: }
  2208                           ;newmain.c: 252: while(val)
  2209  05A0  2DD1               	goto	l5763
  2210                           	
  2211  05A1                     l1890:	
  2212                           	line	254
  2213                           	
  2214  05A1                     l5757:	
  2215                           ;newmain.c: 253: {
  2216                           ;newmain.c: 254: str[i]=val%10;
  2217  05A1  300A               	movlw	low(0Ah)
  2218  05A2  0020               	movlb 0	; select bank0
  2219  05A3  00D1               	movwf	(?___awmod)
  2220  05A4  3000               	movlw	high(0Ah)
  2221  05A5  00D2               	movwf	((?___awmod))+1
  2222  05A6  085B               	movf	(USARTWriteInt@val+1),w
  2223  05A7  01D4               	clrf	1+(?___awmod)+02h
  2224  05A8  07D4               	addwf	1+(?___awmod)+02h
  2225  05A9  085A               	movf	(USARTWriteInt@val),w
  2226  05AA  01D3               	clrf	0+(?___awmod)+02h
  2227  05AB  07D3               	addwf	0+(?___awmod)+02h
  2228                           
  2229  05AC  3187  2733  3185   	fcall	___awmod
  2230  05AF  0020               	movlb 0	; select bank0
  2231  05B0  0851               	movf	(0+(?___awmod)),w
  2232  05B1  00DE               	movwf	(??_USARTWriteInt+0)+0
  2233  05B2  0867               	movf	(USARTWriteInt@i),w
  2234  05B3  3E60               	addlw	USARTWriteInt@str&0ffh
  2235  05B4  0086               	movwf	fsr1l
  2236  05B5  0187               	clrf fsr1h	
  2237                           	
  2238  05B6  085E               	movf	(??_USARTWriteInt+0)+0,w
  2239  05B7  0081               	movwf	indf1
  2240                           	line	255
  2241                           	
  2242  05B8                     l5759:	
  2243                           ;newmain.c: 255: val=val/10;
  2244  05B8  300A               	movlw	low(0Ah)
  2245  05B9  00D1               	movwf	(?___awdiv)
  2246  05BA  3000               	movlw	high(0Ah)
  2247  05BB  00D2               	movwf	((?___awdiv))+1
  2248  05BC  085B               	movf	(USARTWriteInt@val+1),w
  2249  05BD  01D4               	clrf	1+(?___awdiv)+02h
  2250  05BE  07D4               	addwf	1+(?___awdiv)+02h
  2251  05BF  085A               	movf	(USARTWriteInt@val),w
  2252  05C0  01D3               	clrf	0+(?___awdiv)+02h
  2253  05C1  07D3               	addwf	0+(?___awdiv)+02h
  2254                           
  2255  05C2  3186  26C6  3185   	fcall	___awdiv
  2256  05C5  0020               	movlb 0	; select bank0
  2257  05C6  0852               	movf	(1+(?___awdiv)),w
  2258  05C7  01DB               	clrf	(USARTWriteInt@val+1)
  2259  05C8  07DB               	addwf	(USARTWriteInt@val+1)
  2260  05C9  0851               	movf	(0+(?___awdiv)),w
  2261  05CA  01DA               	clrf	(USARTWriteInt@val)
  2262  05CB  07DA               	addwf	(USARTWriteInt@val)
  2263                           
  2264                           	line	256
  2265                           	
  2266  05CC                     l5761:	
  2267                           ;newmain.c: 256: i--;
  2268  05CC  30FF               	movlw	low(-1)
  2269  05CD  07E7               	addwf	(USARTWriteInt@i),f
  2270  05CE  30FF               	movlw	high(-1)
  2271  05CF  3DE8               	addwfc	(USARTWriteInt@i+1),f
  2272  05D0  2DD1               	goto	l5763
  2273                           	line	257
  2274                           	
  2275  05D1                     l1889:	
  2276                           	line	252
  2277                           	
  2278  05D1                     l5763:	
  2279  05D1  0020               	movlb 0	; select bank0
  2280  05D2  085B               	movf	((USARTWriteInt@val+1)),w
  2281  05D3  045A               	iorwf	((USARTWriteInt@val)),w
  2282  05D4  1D03               	skipz
  2283  05D5  2DD7               	goto	u3941
  2284  05D6  2DD8               	goto	u3940
  2285  05D7                     u3941:
  2286  05D7  2DA1               	goto	l5757
  2287  05D8                     u3940:
  2288  05D8  2DD9               	goto	l5765
  2289                           	
  2290  05D9                     l1891:	
  2291                           	line	259
  2292                           	
  2293  05D9                     l5765:	
  2294                           ;newmain.c: 257: }
  2295                           ;newmain.c: 259: if(field_length==-1)
  2296  05D9  30FF               	movlw	high(-1)
  2297  05DA  065D               	xorwf	(USARTWriteInt@field_length+1),w
  2298  05DB  1D03               	skipz
  2299  05DC  2DDF               	goto	u3955
  2300  05DD  30FF               	movlw	low(-1)
  2301  05DE  065C               	xorwf	(USARTWriteInt@field_length),w
  2302  05DF                     u3955:
  2303                           
  2304  05DF  1D03               	skipz
  2305  05E0  2DE2               	goto	u3951
  2306  05E1  2DE3               	goto	u3950
  2307  05E2                     u3951:
  2308  05E2  2DF6               	goto	l5773
  2309  05E3                     u3950:
  2310  05E3  2DEA               	goto	l5771
  2311                           	line	260
  2312                           	
  2313  05E4                     l5767:	
  2314                           ;newmain.c: 260: while(str[j]==0) j++;
  2315  05E4  2DEA               	goto	l5771
  2316                           	
  2317  05E5                     l1894:	
  2318                           	
  2319  05E5                     l5769:	
  2320  05E5  3001               	movlw	low(01h)
  2321  05E6  07E5               	addwf	(USARTWriteInt@j),f
  2322  05E7  3000               	movlw	high(01h)
  2323  05E8  3DE6               	addwfc	(USARTWriteInt@j+1),f
  2324  05E9  2DEA               	goto	l5771
  2325                           	
  2326  05EA                     l1893:	
  2327                           	
  2328  05EA                     l5771:	
  2329  05EA  0865               	movf	(USARTWriteInt@j),w
  2330  05EB  3E60               	addlw	USARTWriteInt@str&0ffh
  2331  05EC  0086               	movwf	fsr1l
  2332  05ED  0187               	clrf fsr1h	
  2333                           	
  2334  05EE  0801               	movf	indf1,w
  2335  05EF  3A00               	xorlw	0&0ffh
  2336  05F0  1903               	skipnz
  2337  05F1  2DF3               	goto	u3961
  2338  05F2  2DF4               	goto	u3960
  2339  05F3                     u3961:
  2340  05F3  2DE5               	goto	l5769
  2341  05F4                     u3960:
  2342  05F4  2E03               	goto	l1896
  2343                           	
  2344  05F5                     l1895:	
  2345  05F5  2E03               	goto	l1896
  2346                           	line	261
  2347                           	
  2348  05F6                     l1892:	
  2349                           	line	262
  2350                           	
  2351  05F6                     l5773:	
  2352                           ;newmain.c: 261: else
  2353                           ;newmain.c: 262: j=5-field_length;
  2354  05F6  095C               	comf	(USARTWriteInt@field_length),w
  2355  05F7  00DE               	movwf	(??_USARTWriteInt+0)+0
  2356  05F8  095D               	comf	(USARTWriteInt@field_length+1),w
  2357  05F9  00DF               	movwf	((??_USARTWriteInt+0)+0+1)
  2358  05FA  0ADE               	incf	(??_USARTWriteInt+0)+0,f
  2359  05FB  1903               	skipnz
  2360  05FC  0ADF               	incf	((??_USARTWriteInt+0)+0+1),f
  2361  05FD  085E               	movf	0+(??_USARTWriteInt+0)+0,w
  2362  05FE  3E05               	addlw	low(05h)
  2363  05FF  00E5               	movwf	(USARTWriteInt@j)
  2364  0600  3000               	movlw	high(05h)
  2365  0601  3D5F               	addwfc	1+(??_USARTWriteInt+0)+0,w
  2366  0602  00E6               	movwf	1+(USARTWriteInt@j)
  2367                           	
  2368  0603                     l1896:	
  2369                           	line	264
  2370                           ;newmain.c: 264: for(i=j;i<5;i++)
  2371  0603  0866               	movf	(USARTWriteInt@j+1),w
  2372  0604  01E8               	clrf	(USARTWriteInt@i+1)
  2373  0605  07E8               	addwf	(USARTWriteInt@i+1)
  2374  0606  0865               	movf	(USARTWriteInt@j),w
  2375  0607  01E7               	clrf	(USARTWriteInt@i)
  2376  0608  07E7               	addwf	(USARTWriteInt@i)
  2377                           
  2378                           	
  2379  0609                     l5775:	
  2380  0609  0868               	movf	(USARTWriteInt@i+1),w
  2381  060A  3A80               	xorlw	80h
  2382  060B  00FF               	movwf	btemp+1
  2383  060C  3080               	movlw	(high(05h))^80h
  2384  060D  027F               	subwf	btemp+1,w
  2385  060E  1D03               	skipz
  2386  060F  2E12               	goto	u3975
  2387  0610  3005               	movlw	low(05h)
  2388  0611  0267               	subwf	(USARTWriteInt@i),w
  2389  0612                     u3975:
  2390                           
  2391  0612  1C03               	skipc
  2392  0613  2E15               	goto	u3971
  2393  0614  2E16               	goto	u3970
  2394  0615                     u3971:
  2395  0615  2E18               	goto	l5779
  2396  0616                     u3970:
  2397  0616  2E35               	goto	l1888
  2398                           	
  2399  0617                     l5777:	
  2400  0617  2E35               	goto	l1888
  2401                           	line	265
  2402                           	
  2403  0618                     l1897:	
  2404                           	line	266
  2405                           	
  2406  0618                     l5779:	
  2407                           ;newmain.c: 265: {
  2408                           ;newmain.c: 266: USARTWriteChar('0'+str[i]);
  2409  0618  0020               	movlb 0	; select bank0
  2410  0619  0867               	movf	(USARTWriteInt@i),w
  2411  061A  3E60               	addlw	USARTWriteInt@str&0ffh
  2412  061B  0086               	movwf	fsr1l
  2413  061C  0187               	clrf fsr1h	
  2414                           	
  2415  061D  0801               	movf	indf1,w
  2416  061E  3E30               	addlw	030h
  2417  061F  318F  27E0  3185   	fcall	_USARTWriteChar
  2418                           	line	264
  2419                           	
  2420  0622                     l5781:	
  2421  0622  3001               	movlw	low(01h)
  2422  0623  0020               	movlb 0	; select bank0
  2423  0624  07E7               	addwf	(USARTWriteInt@i),f
  2424  0625  3000               	movlw	high(01h)
  2425  0626  3DE8               	addwfc	(USARTWriteInt@i+1),f
  2426                           	
  2427  0627                     l5783:	
  2428  0627  0868               	movf	(USARTWriteInt@i+1),w
  2429  0628  3A80               	xorlw	80h
  2430  0629  00FF               	movwf	btemp+1
  2431  062A  3080               	movlw	(high(05h))^80h
  2432  062B  027F               	subwf	btemp+1,w
  2433  062C  1D03               	skipz
  2434  062D  2E30               	goto	u3985
  2435  062E  3005               	movlw	low(05h)
  2436  062F  0267               	subwf	(USARTWriteInt@i),w
  2437  0630                     u3985:
  2438                           
  2439  0630  1C03               	skipc
  2440  0631  2E33               	goto	u3981
  2441  0632  2E34               	goto	u3980
  2442  0633                     u3981:
  2443  0633  2E18               	goto	l5779
  2444  0634                     u3980:
  2445  0634  2E35               	goto	l1888
  2446                           	
  2447  0635                     l1898:	
  2448                           	line	268
  2449                           	
  2450  0635                     l1888:	
  2451  0635  0008               	return
  2452                           	opt stack 0
  2453                           GLOBAL	__end_of_USARTWriteInt
  2454  0636                     	__end_of_USARTWriteInt:
  2455 ;; =============== function _USARTWriteInt ends ============
  2456                           
  2457                           	signat	_USARTWriteInt,8312
  2458                           	global	___awmod
  2459                           psect	text258,local,class=CODE,delta=2
  2460                           global __ptext258
  2461  0733                     __ptext258:
  2462                           
  2463 ;; *************** function ___awmod *****************
  2464 ;; Defined at:
  2465 ;;		line 5 in file "C:\Program Files\HI-TECH Software\PICC\9.83\sources\awmod.c"
  2466 ;; Parameters:    Size  Location     Type
  2467 ;;  divisor         2    0[BANK0 ] int 
  2468 ;;  dividend        2    2[BANK0 ] int 
  2469 ;; Auto vars:     Size  Location     Type
  2470 ;;  sign            1    6[BANK0 ] unsigned char 
  2471 ;;  counter         1    5[BANK0 ] unsigned char 
  2472 ;; Return value:  Size  Location     Type
  2473 ;;                  2    0[BANK0 ] int 
  2474 ;; Registers used:
  2475 ;;		wreg, status,2, status,0
  2476 ;; Tracked objects:
  2477 ;;		On entry : 0/0
  2478 ;;		On exit  : 0/0
  2479 ;;		Unchanged: 0/0
  2480 ;; Data sizes:     COMMON   BANK0   BANK1   BANK2   BANK3   BANK4   BANK5   BANK6
  2481 ;;      Params:         0       4       0       0       0       0       0       0
  2482 ;;      Locals:         0       2       0       0       0       0       0       0
  2483 ;;      Temps:          0       1       0       0       0       0       0       0
  2484 ;;      Totals:         0       7       0       0       0       0       0       0
  2485 ;;Total ram usage:        7 bytes
  2486 ;; Hardware stack levels used:    1
  2487 ;; Hardware stack levels required when called:    1
  2488 ;; This function calls:
  2489 ;;		Nothing
  2490 ;; This function is called by:
  2491 ;;		_USARTWriteInt
  2492 ;; This function uses a non-reentrant model
  2493 ;;
  2494                           psect	text258
  2495                           	file	"C:\Program Files\HI-TECH Software\PICC\9.83\sources\awmod.c"
  2496                           	line	5
  2497                           	global	__size_of___awmod
  2498  0061                     	__size_of___awmod	equ	__end_of___awmod-___awmod
  2499                           	
  2500  0733                     ___awmod:	
  2501                           	opt	stack 13
  2502                           ; Regs used in ___awmod: [wreg+status,2+status,0]
  2503                           	line	8
  2504                           	
  2505  0733                     l5701:	
  2506  0733  0020               	movlb 0	; select bank0
  2507  0734  01D7               	clrf	(___awmod@sign)
  2508                           	line	9
  2509  0735  1FD4               	btfss	(___awmod@dividend+1),7
  2510  0736  2F38               	goto	u3811
  2511  0737  2F39               	goto	u3810
  2512  0738                     u3811:
  2513  0738  2F42               	goto	l5705
  2514  0739                     u3810:
  2515                           	line	10
  2516                           	
  2517  0739                     l5703:	
  2518  0739  09D3               	comf	(___awmod@dividend),f
  2519  073A  09D4               	comf	(___awmod@dividend+1),f
  2520  073B  0AD3               	incf	(___awmod@dividend),f
  2521  073C  1903               	skipnz
  2522  073D  0AD4               	incf	(___awmod@dividend+1),f
  2523                           	line	11
  2524  073E  01D7               	clrf	(___awmod@sign)
  2525  073F  1403               	bsf	status,0
  2526  0740  0DD7               	rlf	(___awmod@sign),f
  2527  0741  2F42               	goto	l5705
  2528                           	line	12
  2529                           	
  2530  0742                     l3845:	
  2531                           	line	13
  2532                           	
  2533  0742                     l5705:	
  2534  0742  1FD2               	btfss	(___awmod@divisor+1),7
  2535  0743  2F45               	goto	u3821
  2536  0744  2F46               	goto	u3820
  2537  0745                     u3821:
  2538  0745  2F4C               	goto	l5709
  2539  0746                     u3820:
  2540                           	line	14
  2541                           	
  2542  0746                     l5707:	
  2543  0746  09D1               	comf	(___awmod@divisor),f
  2544  0747  09D2               	comf	(___awmod@divisor+1),f
  2545  0748  0AD1               	incf	(___awmod@divisor),f
  2546  0749  1903               	skipnz
  2547  074A  0AD2               	incf	(___awmod@divisor+1),f
  2548  074B  2F4C               	goto	l5709
  2549                           	
  2550  074C                     l3846:	
  2551                           	line	15
  2552                           	
  2553  074C                     l5709:	
  2554  074C  0852               	movf	(___awmod@divisor+1),w
  2555  074D  0451               	iorwf	(___awmod@divisor),w
  2556  074E  1903               	skipnz
  2557  074F  2F51               	goto	u3831
  2558  0750  2F52               	goto	u3830
  2559  0751                     u3831:
  2560  0751  2F82               	goto	l5727
  2561  0752                     u3830:
  2562                           	line	16
  2563                           	
  2564  0752                     l5711:	
  2565  0752  01D6               	clrf	(___awmod@counter)
  2566  0753  1403               	bsf	status,0
  2567  0754  0DD6               	rlf	(___awmod@counter),f
  2568                           	line	17
  2569  0755  2F60               	goto	l5717
  2570                           	
  2571  0756                     l3849:	
  2572                           	line	18
  2573                           	
  2574  0756                     l5713:	
  2575  0756  3001               	movlw	01h
  2576                           	
  2577  0757                     u3845:
  2578  0757  35D1               	lslf	(___awmod@divisor),f
  2579  0758  0DD2               	rlf	(___awmod@divisor+1),f
  2580  0759  0B89               	decfsz	wreg,f
  2581  075A  2F57               	goto	u3845
  2582                           	line	19
  2583                           	
  2584  075B                     l5715:	
  2585  075B  3001               	movlw	(01h)
  2586  075C  00D5               	movwf	(??___awmod+0)+0
  2587  075D  0855               	movf	(??___awmod+0)+0,w
  2588  075E  07D6               	addwf	(___awmod@counter),f
  2589  075F  2F60               	goto	l5717
  2590                           	line	20
  2591                           	
  2592  0760                     l3848:	
  2593                           	line	17
  2594                           	
  2595  0760                     l5717:	
  2596  0760  1FD2               	btfss	(___awmod@divisor+1),(15)&7
  2597  0761  2F63               	goto	u3851
  2598  0762  2F64               	goto	u3850
  2599  0763                     u3851:
  2600  0763  2F56               	goto	l5713
  2601  0764                     u3850:
  2602  0764  2F66               	goto	l5719
  2603                           	
  2604  0765                     l3850:	
  2605  0765  2F66               	goto	l5719
  2606                           	line	21
  2607                           	
  2608  0766                     l3851:	
  2609                           	line	22
  2610                           	
  2611  0766                     l5719:	
  2612  0766  0852               	movf	(___awmod@divisor+1),w
  2613  0767  0254               	subwf	(___awmod@dividend+1),w
  2614  0768  1D03               	skipz
  2615  0769  2F6C               	goto	u3865
  2616  076A  0851               	movf	(___awmod@divisor),w
  2617  076B  0253               	subwf	(___awmod@dividend),w
  2618  076C                     u3865:
  2619  076C  1C03               	skipc
  2620  076D  2F6F               	goto	u3861
  2621  076E  2F70               	goto	u3860
  2622  076F                     u3861:
  2623  076F  2F75               	goto	l5723
  2624  0770                     u3860:
  2625                           	line	23
  2626                           	
  2627  0770                     l5721:	
  2628  0770  0851               	movf	(___awmod@divisor),w
  2629  0771  02D3               	subwf	(___awmod@dividend),f
  2630  0772  0852               	movf	(___awmod@divisor+1),w
  2631  0773  3BD4               	subwfb	(___awmod@dividend+1),f
  2632  0774  2F75               	goto	l5723
  2633                           	
  2634  0775                     l3852:	
  2635                           	line	24
  2636                           	
  2637  0775                     l5723:	
  2638  0775  3001               	movlw	01h
  2639                           	
  2640  0776                     u3875:
  2641  0776  36D2               	lsrf	(___awmod@divisor+1),f
  2642  0777  0CD1               	rrf	(___awmod@divisor),f
  2643  0778  0B89               	decfsz	wreg,f
  2644  0779  2F76               	goto	u3875
  2645                           	line	25
  2646                           	
  2647  077A                     l5725:	
  2648  077A  3001               	movlw	low(01h)
  2649  077B  02D6               	subwf	(___awmod@counter),f
  2650  077C  1D03               	btfss	status,2
  2651  077D  2F7F               	goto	u3881
  2652  077E  2F80               	goto	u3880
  2653  077F                     u3881:
  2654  077F  2F66               	goto	l5719
  2655  0780                     u3880:
  2656  0780  2F82               	goto	l5727
  2657                           	
  2658  0781                     l3853:	
  2659  0781  2F82               	goto	l5727
  2660                           	line	26
  2661                           	
  2662  0782                     l3847:	
  2663                           	line	27
  2664                           	
  2665  0782                     l5727:	
  2666  0782  0857               	movf	(___awmod@sign),w
  2667  0783  1D03               	skipz
  2668  0784  2F86               	goto	u3890
  2669  0785  2F8C               	goto	l5731
  2670  0786                     u3890:
  2671                           	line	28
  2672                           	
  2673  0786                     l5729:	
  2674  0786  09D3               	comf	(___awmod@dividend),f
  2675  0787  09D4               	comf	(___awmod@dividend+1),f
  2676  0788  0AD3               	incf	(___awmod@dividend),f
  2677  0789  1903               	skipnz
  2678  078A  0AD4               	incf	(___awmod@dividend+1),f
  2679  078B  2F8C               	goto	l5731
  2680                           	
  2681  078C                     l3854:	
  2682                           	line	29
  2683                           	
  2684  078C                     l5731:	
  2685  078C  0854               	movf	(___awmod@dividend+1),w
  2686  078D  01D2               	clrf	(?___awmod+1)
  2687  078E  07D2               	addwf	(?___awmod+1)
  2688  078F  0853               	movf	(___awmod@dividend),w
  2689  0790  01D1               	clrf	(?___awmod)
  2690  0791  07D1               	addwf	(?___awmod)
  2691                           
  2692  0792  2F93               	goto	l3855
  2693                           	
  2694  0793                     l5733:	
  2695                           	line	30
  2696                           	
  2697  0793                     l3855:	
  2698  0793  0008               	return
  2699                           	opt stack 0
  2700                           GLOBAL	__end_of___awmod
  2701  0794                     	__end_of___awmod:
  2702 ;; =============== function ___awmod ends ============
  2703                           
  2704                           	signat	___awmod,8314
  2705                           	global	___awdiv
  2706                           psect	text259,local,class=CODE,delta=2
  2707                           global __ptext259
  2708  06C6                     __ptext259:
  2709                           
  2710 ;; *************** function ___awdiv *****************
  2711 ;; Defined at:
  2712 ;;		line 5 in file "C:\Program Files\HI-TECH Software\PICC\9.83\sources\awdiv.c"
  2713 ;; Parameters:    Size  Location     Type
  2714 ;;  divisor         2    0[BANK0 ] int 
  2715 ;;  dividend        2    2[BANK0 ] int 
  2716 ;; Auto vars:     Size  Location     Type
  2717 ;;  quotient        2    7[BANK0 ] int 
  2718 ;;  sign            1    6[BANK0 ] unsigned char 
  2719 ;;  counter         1    5[BANK0 ] unsigned char 
  2720 ;; Return value:  Size  Location     Type
  2721 ;;                  2    0[BANK0 ] int 
  2722 ;; Registers used:
  2723 ;;		wreg, status,2, status,0
  2724 ;; Tracked objects:
  2725 ;;		On entry : 0/0
  2726 ;;		On exit  : 0/0
  2727 ;;		Unchanged: 0/0
  2728 ;; Data sizes:     COMMON   BANK0   BANK1   BANK2   BANK3   BANK4   BANK5   BANK6
  2729 ;;      Params:         0       4       0       0       0       0       0       0
  2730 ;;      Locals:         0       4       0       0       0       0       0       0
  2731 ;;      Temps:          0       1       0       0       0       0       0       0
  2732 ;;      Totals:         0       9       0       0       0       0       0       0
  2733 ;;Total ram usage:        9 bytes
  2734 ;; Hardware stack levels used:    1
  2735 ;; Hardware stack levels required when called:    1
  2736 ;; This function calls:
  2737 ;;		Nothing
  2738 ;; This function is called by:
  2739 ;;		_USARTWriteInt
  2740 ;; This function uses a non-reentrant model
  2741 ;;
  2742                           psect	text259
  2743                           	file	"C:\Program Files\HI-TECH Software\PICC\9.83\sources\awdiv.c"
  2744                           	line	5
  2745                           	global	__size_of___awdiv
  2746  006D                     	__size_of___awdiv	equ	__end_of___awdiv-___awdiv
  2747                           	
  2748  06C6                     ___awdiv:	
  2749                           	opt	stack 13
  2750                           ; Regs used in ___awdiv: [wreg+status,2+status,0]
  2751                           	line	9
  2752                           	
  2753  06C6                     l5661:	
  2754  06C6  0020               	movlb 0	; select bank0
  2755  06C7  01D7               	clrf	(___awdiv@sign)
  2756                           	line	10
  2757  06C8  1FD2               	btfss	(___awdiv@divisor+1),7
  2758  06C9  2ECB               	goto	u3711
  2759  06CA  2ECC               	goto	u3710
  2760  06CB                     u3711:
  2761  06CB  2ED5               	goto	l5665
  2762  06CC                     u3710:
  2763                           	line	11
  2764                           	
  2765  06CC                     l5663:	
  2766  06CC  09D1               	comf	(___awdiv@divisor),f
  2767  06CD  09D2               	comf	(___awdiv@divisor+1),f
  2768  06CE  0AD1               	incf	(___awdiv@divisor),f
  2769  06CF  1903               	skipnz
  2770  06D0  0AD2               	incf	(___awdiv@divisor+1),f
  2771                           	line	12
  2772  06D1  01D7               	clrf	(___awdiv@sign)
  2773  06D2  1403               	bsf	status,0
  2774  06D3  0DD7               	rlf	(___awdiv@sign),f
  2775  06D4  2ED5               	goto	l5665
  2776                           	line	13
  2777                           	
  2778  06D5                     l3777:	
  2779                           	line	14
  2780                           	
  2781  06D5                     l5665:	
  2782  06D5  1FD4               	btfss	(___awdiv@dividend+1),7
  2783  06D6  2ED8               	goto	u3721
  2784  06D7  2ED9               	goto	u3720
  2785  06D8                     u3721:
  2786  06D8  2EE3               	goto	l5671
  2787  06D9                     u3720:
  2788                           	line	15
  2789                           	
  2790  06D9                     l5667:	
  2791  06D9  09D3               	comf	(___awdiv@dividend),f
  2792  06DA  09D4               	comf	(___awdiv@dividend+1),f
  2793  06DB  0AD3               	incf	(___awdiv@dividend),f
  2794  06DC  1903               	skipnz
  2795  06DD  0AD4               	incf	(___awdiv@dividend+1),f
  2796                           	line	16
  2797                           	
  2798  06DE                     l5669:	
  2799  06DE  3001               	movlw	(01h)
  2800  06DF  00D5               	movwf	(??___awdiv+0)+0
  2801  06E0  0855               	movf	(??___awdiv+0)+0,w
  2802  06E1  06D7               	xorwf	(___awdiv@sign),f
  2803  06E2  2EE3               	goto	l5671
  2804                           	line	17
  2805                           	
  2806  06E3                     l3778:	
  2807                           	line	18
  2808                           	
  2809  06E3                     l5671:	
  2810  06E3  01D8               	clrf	(___awdiv@quotient)
  2811  06E4  01D9               	clrf	(___awdiv@quotient+1)
  2812                           	line	19
  2813                           	
  2814  06E5                     l5673:	
  2815  06E5  0852               	movf	(___awdiv@divisor+1),w
  2816  06E6  0451               	iorwf	(___awdiv@divisor),w
  2817  06E7  1903               	skipnz
  2818  06E8  2EEA               	goto	u3731
  2819  06E9  2EEB               	goto	u3730
  2820  06EA                     u3731:
  2821  06EA  2F21               	goto	l5693
  2822  06EB                     u3730:
  2823                           	line	20
  2824                           	
  2825  06EB                     l5675:	
  2826  06EB  01D6               	clrf	(___awdiv@counter)
  2827  06EC  1403               	bsf	status,0
  2828  06ED  0DD6               	rlf	(___awdiv@counter),f
  2829                           	line	21
  2830  06EE  2EF9               	goto	l5681
  2831                           	
  2832  06EF                     l3781:	
  2833                           	line	22
  2834                           	
  2835  06EF                     l5677:	
  2836  06EF  3001               	movlw	01h
  2837                           	
  2838  06F0                     u3745:
  2839  06F0  35D1               	lslf	(___awdiv@divisor),f
  2840  06F1  0DD2               	rlf	(___awdiv@divisor+1),f
  2841  06F2  0B89               	decfsz	wreg,f
  2842  06F3  2EF0               	goto	u3745
  2843                           	line	23
  2844                           	
  2845  06F4                     l5679:	
  2846  06F4  3001               	movlw	(01h)
  2847  06F5  00D5               	movwf	(??___awdiv+0)+0
  2848  06F6  0855               	movf	(??___awdiv+0)+0,w
  2849  06F7  07D6               	addwf	(___awdiv@counter),f
  2850  06F8  2EF9               	goto	l5681
  2851                           	line	24
  2852                           	
  2853  06F9                     l3780:	
  2854                           	line	21
  2855                           	
  2856  06F9                     l5681:	
  2857  06F9  1FD2               	btfss	(___awdiv@divisor+1),(15)&7
  2858  06FA  2EFC               	goto	u3751
  2859  06FB  2EFD               	goto	u3750
  2860  06FC                     u3751:
  2861  06FC  2EEF               	goto	l5677
  2862  06FD                     u3750:
  2863  06FD  2EFF               	goto	l5683
  2864                           	
  2865  06FE                     l3782:	
  2866  06FE  2EFF               	goto	l5683
  2867                           	line	25
  2868                           	
  2869  06FF                     l3783:	
  2870                           	line	26
  2871                           	
  2872  06FF                     l5683:	
  2873  06FF  3001               	movlw	01h
  2874                           	
  2875  0700                     u3765:
  2876  0700  35D8               	lslf	(___awdiv@quotient),f
  2877  0701  0DD9               	rlf	(___awdiv@quotient+1),f
  2878  0702  0B89               	decfsz	wreg,f
  2879  0703  2F00               	goto	u3765
  2880                           	line	27
  2881  0704  0852               	movf	(___awdiv@divisor+1),w
  2882  0705  0254               	subwf	(___awdiv@dividend+1),w
  2883  0706  1D03               	skipz
  2884  0707  2F0A               	goto	u3775
  2885  0708  0851               	movf	(___awdiv@divisor),w
  2886  0709  0253               	subwf	(___awdiv@dividend),w
  2887  070A                     u3775:
  2888  070A  1C03               	skipc
  2889  070B  2F0D               	goto	u3771
  2890  070C  2F0E               	goto	u3770
  2891  070D                     u3771:
  2892  070D  2F14               	goto	l5689
  2893  070E                     u3770:
  2894                           	line	28
  2895                           	
  2896  070E                     l5685:	
  2897  070E  0851               	movf	(___awdiv@divisor),w
  2898  070F  02D3               	subwf	(___awdiv@dividend),f
  2899  0710  0852               	movf	(___awdiv@divisor+1),w
  2900  0711  3BD4               	subwfb	(___awdiv@dividend+1),f
  2901                           	line	29
  2902                           	
  2903  0712                     l5687:	
  2904  0712  1458               	bsf	(___awdiv@quotient)+(0/8),(0)&7
  2905  0713  2F14               	goto	l5689
  2906                           	line	30
  2907                           	
  2908  0714                     l3784:	
  2909                           	line	31
  2910                           	
  2911  0714                     l5689:	
  2912  0714  3001               	movlw	01h
  2913                           	
  2914  0715                     u3785:
  2915  0715  36D2               	lsrf	(___awdiv@divisor+1),f
  2916  0716  0CD1               	rrf	(___awdiv@divisor),f
  2917  0717  0B89               	decfsz	wreg,f
  2918  0718  2F15               	goto	u3785
  2919                           	line	32
  2920                           	
  2921  0719                     l5691:	
  2922  0719  3001               	movlw	low(01h)
  2923  071A  02D6               	subwf	(___awdiv@counter),f
  2924  071B  1D03               	btfss	status,2
  2925  071C  2F1E               	goto	u3791
  2926  071D  2F1F               	goto	u3790
  2927  071E                     u3791:
  2928  071E  2EFF               	goto	l5683
  2929  071F                     u3790:
  2930  071F  2F21               	goto	l5693
  2931                           	
  2932  0720                     l3785:	
  2933  0720  2F21               	goto	l5693
  2934                           	line	33
  2935                           	
  2936  0721                     l3779:	
  2937                           	line	34
  2938                           	
  2939  0721                     l5693:	
  2940  0721  0857               	movf	(___awdiv@sign),w
  2941  0722  1D03               	skipz
  2942  0723  2F25               	goto	u3800
  2943  0724  2F2B               	goto	l5697
  2944  0725                     u3800:
  2945                           	line	35
  2946                           	
  2947  0725                     l5695:	
  2948  0725  09D8               	comf	(___awdiv@quotient),f
  2949  0726  09D9               	comf	(___awdiv@quotient+1),f
  2950  0727  0AD8               	incf	(___awdiv@quotient),f
  2951  0728  1903               	skipnz
  2952  0729  0AD9               	incf	(___awdiv@quotient+1),f
  2953  072A  2F2B               	goto	l5697
  2954                           	
  2955  072B                     l3786:	
  2956                           	line	36
  2957                           	
  2958  072B                     l5697:	
  2959  072B  0859               	movf	(___awdiv@quotient+1),w
  2960  072C  01D2               	clrf	(?___awdiv+1)
  2961  072D  07D2               	addwf	(?___awdiv+1)
  2962  072E  0858               	movf	(___awdiv@quotient),w
  2963  072F  01D1               	clrf	(?___awdiv)
  2964  0730  07D1               	addwf	(?___awdiv)
  2965                           
  2966  0731  2F32               	goto	l3787
  2967                           	
  2968  0732                     l5699:	
  2969                           	line	37
  2970                           	
  2971  0732                     l3787:	
  2972  0732  0008               	return
  2973                           	opt stack 0
  2974                           GLOBAL	__end_of___awdiv
  2975  0733                     	__end_of___awdiv:
  2976 ;; =============== function ___awdiv ends ============
  2977                           
  2978                           	signat	___awdiv,8314
  2979                           	global	_USARTWriteChar
  2980                           psect	text260,local,class=CODE,delta=2
  2981                           global __ptext260
  2982  0FE0                     __ptext260:
  2983                           
  2984 ;; *************** function _USARTWriteChar *****************
  2985 ;; Defined at:
  2986 ;;		line 217 in file "newmain.c"
  2987 ;; Parameters:    Size  Location     Type
  2988 ;;  ch              1    wreg     unsigned char 
  2989 ;; Auto vars:     Size  Location     Type
  2990 ;;  ch              1    0[BANK0 ] unsigned char 
  2991 ;; Return value:  Size  Location     Type
  2992 ;;		None               void
  2993 ;; Registers used:
  2994 ;;		wreg
  2995 ;; Tracked objects:
  2996 ;;		On entry : 0/0
  2997 ;;		On exit  : 0/0
  2998 ;;		Unchanged: 0/0
  2999 ;; Data sizes:     COMMON   BANK0   BANK1   BANK2   BANK3   BANK4   BANK5   BANK6
  3000 ;;      Params:         0       0       0       0       0       0       0       0
  3001 ;;      Locals:         0       1       0       0       0       0       0       0
  3002 ;;      Temps:          0       0       0       0       0       0       0       0
  3003 ;;      Totals:         0       1       0       0       0       0       0       0
  3004 ;;Total ram usage:        1 bytes
  3005 ;; Hardware stack levels used:    1
  3006 ;; Hardware stack levels required when called:    1
  3007 ;; This function calls:
  3008 ;;		Nothing
  3009 ;; This function is called by:
  3010 ;;		_USARTWriteInt
  3011 ;;		_main
  3012 ;;		_USARTWriteString
  3013 ;; This function uses a non-reentrant model
  3014 ;;
  3015                           psect	text260
  3016                           	file	"newmain.c"
  3017                           	line	217
  3018                           	global	__size_of_USARTWriteChar
  3019  000E                     	__size_of_USARTWriteChar	equ	__end_of_USARTWriteChar-_USARTWriteChar
  3020                           	
  3021  0FE0                     _USARTWriteChar:	
  3022                           	opt	stack 13
  3023                           ; Regs used in _USARTWriteChar: [wreg]
  3024                           ;USARTWriteChar@ch stored from wreg
  3025  0FE0  0020               	movlb 0	; select bank0
  3026  0FE1  00D1               	movwf	(USARTWriteChar@ch)
  3027                           	line	219
  3028                           	
  3029  0FE2                     l5521:	
  3030                           ;newmain.c: 219: while(!TXSTAbits.TRMT);
  3031  0FE2  2FE3               	goto	l1871
  3032                           	
  3033  0FE3                     l1872:	
  3034                           	
  3035  0FE3                     l1871:	
  3036  0FE3  0023               	movlb 3	; select bank3
  3037  0FE4  1C9E               	btfss	(414)^0180h,1	;volatile
  3038  0FE5  2FE7               	goto	u3291
  3039  0FE6  2FE8               	goto	u3290
  3040  0FE7                     u3291:
  3041  0FE7  2FE3               	goto	l1871
  3042  0FE8                     u3290:
  3043  0FE8  2FE9               	goto	l5523
  3044                           	
  3045  0FE9                     l1873:	
  3046                           	line	220
  3047                           	
  3048  0FE9                     l5523:	
  3049                           ;newmain.c: 220: TXREG=ch;
  3050  0FE9  0020               	movlb 0	; select bank0
  3051  0FEA  0851               	movf	(USARTWriteChar@ch),w
  3052  0FEB  0023               	movlb 3	; select bank3
  3053  0FEC  009A               	movwf	(410)^0180h	;volatile
  3054                           	line	221
  3055                           	
  3056  0FED                     l1874:	
  3057  0FED  0008               	return
  3058                           	opt stack 0
  3059                           GLOBAL	__end_of_USARTWriteChar
  3060  0FEE                     	__end_of_USARTWriteChar:
  3061 ;; =============== function _USARTWriteChar ends ============
  3062                           
  3063                           	signat	_USARTWriteChar,4216
  3064                           	global	_usartinit
  3065                           psect	text261,local,class=CODE,delta=2
  3066                           global __ptext261
  3067  0FEE                     __ptext261:
  3068                           
  3069 ;; *************** function _usartinit *****************
  3070 ;; Defined at:
  3071 ;;		line 180 in file "newmain.c"
  3072 ;; Parameters:    Size  Location     Type
  3073 ;;		None
  3074 ;; Auto vars:     Size  Location     Type
  3075 ;;		None
  3076 ;; Return value:  Size  Location     Type
  3077 ;;		None               void
  3078 ;; Registers used:
  3079 ;;		wreg, status,2
  3080 ;; Tracked objects:
  3081 ;;		On entry : 0/0
  3082 ;;		On exit  : 0/0
  3083 ;;		Unchanged: 0/0
  3084 ;; Data sizes:     COMMON   BANK0   BANK1   BANK2   BANK3   BANK4   BANK5   BANK6
  3085 ;;      Params:         0       0       0       0       0       0       0       0
  3086 ;;      Locals:         0       0       0       0       0       0       0       0
  3087 ;;      Temps:          0       0       0       0       0       0       0       0
  3088 ;;      Totals:         0       0       0       0       0       0       0       0
  3089 ;;Total ram usage:        0 bytes
  3090 ;; Hardware stack levels used:    1
  3091 ;; Hardware stack levels required when called:    1
  3092 ;; This function calls:
  3093 ;;		Nothing
  3094 ;; This function is called by:
  3095 ;;		_main
  3096 ;; This function uses a non-reentrant model
  3097 ;;
  3098                           psect	text261
  3099                           	file	"newmain.c"
  3100                           	line	180
  3101                           	global	__size_of_usartinit
  3102  0012                     	__size_of_usartinit	equ	__end_of_usartinit-_usartinit
  3103                           	
  3104  0FEE                     _usartinit:	
  3105                           	opt	stack 14
  3106                           ; Regs used in _usartinit: [wreg+status,2]
  3107                           	line	181
  3108                           	
  3109  0FEE                     l5511:	
  3110                           ;newmain.c: 181: TRISCbits.TRISC6 = 0;
  3111  0FEE  0021               	movlb 1	; select bank1
  3112  0FEF  130E               	bcf	(142)^080h,6	;volatile
  3113                           	line	182
  3114                           ;newmain.c: 182: TRISCbits.TRISC7 = 1;
  3115  0FF0  178E               	bsf	(142)^080h,7	;volatile
  3116                           	line	184
  3117                           ;newmain.c: 184: TXSTAbits.BRGH=0;
  3118  0FF1  0023               	movlb 3	; select bank3
  3119  0FF2  111E               	bcf	(414)^0180h,2	;volatile
  3120                           	line	185
  3121                           ;newmain.c: 185: TXSTAbits.TX9=0;
  3122  0FF3  131E               	bcf	(414)^0180h,6	;volatile
  3123                           	line	186
  3124                           ;newmain.c: 186: TXSTAbits.TXEN = 1;
  3125  0FF4  169E               	bsf	(414)^0180h,5	;volatile
  3126                           	line	189
  3127                           ;newmain.c: 189: RCSTAbits.SPEN=1;
  3128  0FF5  179D               	bsf	(413)^0180h,7	;volatile
  3129                           	line	190
  3130                           ;newmain.c: 190: RCSTAbits.RX9=0;
  3131  0FF6  131D               	bcf	(413)^0180h,6	;volatile
  3132                           	line	191
  3133                           ;newmain.c: 191: RCSTAbits.CREN=1;
  3134  0FF7  161D               	bsf	(413)^0180h,4	;volatile
  3135                           	line	207
  3136                           	
  3137  0FF8                     l5513:	
  3138                           ;newmain.c: 207: SPBRGL=25;
  3139  0FF8  3019               	movlw	(019h)
  3140  0FF9  009B               	movwf	(411)^0180h	;volatile
  3141                           	line	208
  3142                           	
  3143  0FFA                     l5515:	
  3144                           ;newmain.c: 208: SPBRGH=0;
  3145  0FFA  019C               	clrf	(412)^0180h	;volatile
  3146                           	line	210
  3147                           	
  3148  0FFB                     l5517:	
  3149                           ;newmain.c: 210: PIR1bits.RCIF=0;
  3150  0FFB  0020               	movlb 0	; select bank0
  3151  0FFC  1291               	bcf	(17),5	;volatile
  3152                           	line	211
  3153                           	
  3154  0FFD                     l5519:	
  3155                           ;newmain.c: 211: PIE1bits.RCIE=0;
  3156  0FFD  0021               	movlb 1	; select bank1
  3157  0FFE  1291               	bcf	(145)^080h,5	;volatile
  3158                           	line	214
  3159                           	
  3160  0FFF                     l1868:	
  3161  0FFF  0008               	return
  3162                           	opt stack 0
  3163                           GLOBAL	__end_of_usartinit
  3164  1000                     	__end_of_usartinit:
  3165 ;; =============== function _usartinit ends ============
  3166                           
  3167                           	signat	_usartinit,88
  3168                           	global	_capsensinit
  3169                           psect	text262,local,class=CODE,delta=2
  3170                           global __ptext262
  3171  07CB                     __ptext262:
  3172                           
  3173 ;; *************** function _capsensinit *****************
  3174 ;; Defined at:
  3175 ;;		line 78 in file "newmain.c"
  3176 ;; Parameters:    Size  Location     Type
  3177 ;;		None
  3178 ;; Auto vars:     Size  Location     Type
  3179 ;;		None
  3180 ;; Return value:  Size  Location     Type
  3181 ;;		None               void
  3182 ;; Registers used:
  3183 ;;		wreg, status,2, status,0
  3184 ;; Tracked objects:
  3185 ;;		On entry : 0/0
  3186 ;;		On exit  : 0/0
  3187 ;;		Unchanged: 0/0
  3188 ;; Data sizes:     COMMON   BANK0   BANK1   BANK2   BANK3   BANK4   BANK5   BANK6
  3189 ;;      Params:         0       0       0       0       0       0       0       0
  3190 ;;      Locals:         0       0       0       0       0       0       0       0
  3191 ;;      Temps:          0       1       0       0       0       0       0       0
  3192 ;;      Totals:         0       1       0       0       0       0       0       0
  3193 ;;Total ram usage:        1 bytes
  3194 ;; Hardware stack levels used:    1
  3195 ;; Hardware stack levels required when called:    1
  3196 ;; This function calls:
  3197 ;;		Nothing
  3198 ;; This function is called by:
  3199 ;;		_main
  3200 ;; This function uses a non-reentrant model
  3201 ;;
  3202                           psect	text262
  3203                           	file	"newmain.c"
  3204                           	line	78
  3205                           	global	__size_of_capsensinit
  3206  0034                     	__size_of_capsensinit	equ	__end_of_capsensinit-_capsensinit
  3207                           	
  3208  07CB                     _capsensinit:	
  3209                           	opt	stack 14
  3210                           ; Regs used in _capsensinit: [wreg+status,2+status,0]
  3211                           	line	79
  3212                           	
  3213  07CB                     l5483:	
  3214                           ;newmain.c: 79: LATB = 0;
  3215  07CB  0022               	movlb 2	; select bank2
  3216  07CC  018D               	clrf	(269)^0100h	;volatile
  3217                           	line	80
  3218                           	
  3219  07CD                     l5485:	
  3220                           ;newmain.c: 80: TRISB |= 0b00111111;
  3221  07CD  303F               	movlw	(03Fh)
  3222  07CE  0020               	movlb 0	; select bank0
  3223  07CF  00D1               	movwf	(??_capsensinit+0)+0
  3224  07D0  0851               	movf	(??_capsensinit+0)+0,w
  3225  07D1  0021               	movlb 1	; select bank1
  3226  07D2  048D               	iorwf	(141)^080h,f	;volatile
  3227                           	line	81
  3228                           	
  3229  07D3                     l5487:	
  3230                           ;newmain.c: 81: ANSELB |= 0b00111111;
  3231  07D3  303F               	movlw	(03Fh)
  3232  07D4  0020               	movlb 0	; select bank0
  3233  07D5  00D1               	movwf	(??_capsensinit+0)+0
  3234  07D6  0851               	movf	(??_capsensinit+0)+0,w
  3235  07D7  0023               	movlb 3	; select bank3
  3236  07D8  048D               	iorwf	(397)^0180h,f	;volatile
  3237                           	line	83
  3238                           	
  3239  07D9                     l5489:	
  3240                           ;newmain.c: 83: TRISA |= 0b00110000;
  3241  07D9  3030               	movlw	(030h)
  3242  07DA  0020               	movlb 0	; select bank0
  3243  07DB  00D1               	movwf	(??_capsensinit+0)+0
  3244  07DC  0851               	movf	(??_capsensinit+0)+0,w
  3245  07DD  0021               	movlb 1	; select bank1
  3246  07DE  048C               	iorwf	(140)^080h,f	;volatile
  3247                           	line	84
  3248                           	
  3249  07DF                     l5491:	
  3250                           ;newmain.c: 84: ANSELA |= 0b00110000;
  3251  07DF  3030               	movlw	(030h)
  3252  07E0  0020               	movlb 0	; select bank0
  3253  07E1  00D1               	movwf	(??_capsensinit+0)+0
  3254  07E2  0851               	movf	(??_capsensinit+0)+0,w
  3255  07E3  0023               	movlb 3	; select bank3
  3256  07E4  048C               	iorwf	(396)^0180h,f	;volatile
  3257                           	line	88
  3258                           ;newmain.c: 88: ADCON0 = 0;
  3259  07E5  0021               	movlb 1	; select bank1
  3260  07E6  019D               	clrf	(157)^080h	;volatile
  3261                           	line	89
  3262                           ;newmain.c: 89: ADCON1 = 0;
  3263  07E7  019E               	clrf	(158)^080h	;volatile
  3264                           	line	90
  3265                           	
  3266  07E8                     l5493:	
  3267                           ;newmain.c: 90: CPSCON0 = 0b10001101;
  3268  07E8  308D               	movlw	(08Dh)
  3269  07E9  0020               	movlb 0	; select bank0
  3270  07EA  009E               	movwf	(30)	;volatile
  3271                           	line	91
  3272                           	
  3273  07EB                     l5495:	
  3274                           ;newmain.c: 91: CPSCON1 = 0;
  3275  07EB  019F               	clrf	(31)	;volatile
  3276                           	line	96
  3277                           ;newmain.c: 96: OPTION_REG = 0b11101000;
  3278  07EC  30E8               	movlw	(0E8h)
  3279  07ED  0021               	movlb 1	; select bank1
  3280  07EE  0095               	movwf	(149)^080h	;volatile
  3281                           	line	97
  3282                           	
  3283  07EF                     l5497:	
  3284                           ;newmain.c: 97: TMR0IF = 0;
  3285  07EF  110B               	bcf	(90/8),(90)&7
  3286                           	line	98
  3287                           	
  3288  07F0                     l5499:	
  3289                           ;newmain.c: 98: TMR0IE = 1;
  3290  07F0  168B               	bsf	(93/8),(93)&7
  3291                           	line	99
  3292                           ;newmain.c: 99: T1CON = 0b01000001;
  3293  07F1  3041               	movlw	(041h)
  3294  07F2  0020               	movlb 0	; select bank0
  3295  07F3  0098               	movwf	(24)	;volatile
  3296                           	line	100
  3297                           	
  3298  07F4                     l5501:	
  3299                           ;newmain.c: 100: TMR1IF =0;
  3300  07F4  1011               	bcf	(136/8),(136)&7
  3301                           	line	101
  3302                           	
  3303  07F5                     l5503:	
  3304                           ;newmain.c: 101: TMR1IE =1;
  3305  07F5  0021               	movlb 1	; select bank1
  3306  07F6  1411               	bsf	(1160/8)^080h,(1160)&7
  3307                           	line	102
  3308                           ;newmain.c: 102: T1GCON = 0xE1;
  3309  07F7  30E1               	movlw	(0E1h)
  3310  07F8  0020               	movlb 0	; select bank0
  3311  07F9  0099               	movwf	(25)	;volatile
  3312                           	line	103
  3313                           	
  3314  07FA                     l5505:	
  3315                           ;newmain.c: 103: TMR1GIF = 0;
  3316  07FA  1391               	bcf	(143/8),(143)&7
  3317                           	line	104
  3318                           	
  3319  07FB                     l5507:	
  3320                           ;newmain.c: 104: TMR1GIE = 1;
  3321  07FB  0021               	movlb 1	; select bank1
  3322  07FC  1791               	bsf	(1167/8)^080h,(1167)&7
  3323                           	line	105
  3324                           	
  3325  07FD                     l5509:	
  3326                           ;newmain.c: 105: GIE = 1;
  3327  07FD  178B               	bsf	(95/8),(95)&7
  3328                           	line	106
  3329                           	
  3330  07FE                     l1865:	
  3331  07FE  0008               	return
  3332                           	opt stack 0
  3333                           GLOBAL	__end_of_capsensinit
  3334  07FF                     	__end_of_capsensinit:
  3335 ;; =============== function _capsensinit ends ============
  3336                           
  3337                           	signat	_capsensinit,88
  3338                           	global	_scanchannel
  3339                           psect	text263,local,class=CODE,delta=2
  3340                           global __ptext263
  3341  0636                     __ptext263:
  3342                           
  3343 ;; *************** function _scanchannel *****************
  3344 ;; Defined at:
  3345 ;;		line 60 in file "newmain.c"
  3346 ;; Parameters:    Size  Location     Type
  3347 ;;		None
  3348 ;; Auto vars:     Size  Location     Type
  3349 ;;  i               2    2[BANK0 ] int 
  3350 ;; Return value:  Size  Location     Type
  3351 ;;		None               void
  3352 ;; Registers used:
  3353 ;;		wreg, fsr1l, fsr1h, status,2, status,0, btemp+1
  3354 ;; Tracked objects:
  3355 ;;		On entry : 0/0
  3356 ;;		On exit  : 0/0
  3357 ;;		Unchanged: 0/0
  3358 ;; Data sizes:     COMMON   BANK0   BANK1   BANK2   BANK3   BANK4   BANK5   BANK6
  3359 ;;      Params:         0       0       0       0       0       0       0       0
  3360 ;;      Locals:         0       2       0       0       0       0       0       0
  3361 ;;      Temps:          0       2       0       0       0       0       0       0
  3362 ;;      Totals:         0       4       0       0       0       0       0       0
  3363 ;;Total ram usage:        4 bytes
  3364 ;; Hardware stack levels used:    1
  3365 ;; Hardware stack levels required when called:    1
  3366 ;; This function calls:
  3367 ;;		Nothing
  3368 ;; This function is called by:
  3369 ;;		_main
  3370 ;; This function uses a non-reentrant model
  3371 ;;
  3372                           psect	text263
  3373                           	file	"newmain.c"
  3374                           	line	60
  3375                           	global	__size_of_scanchannel
  3376  0090                     	__size_of_scanchannel	equ	__end_of_scanchannel-_scanchannel
  3377                           	
  3378  0636                     _scanchannel:	
  3379                           	opt	stack 14
  3380                           ; Regs used in _scanchannel: [wreg+fsr1l-status,0+btemp+1]
  3381                           	line	61
  3382                           	
  3383  0636                     l5433:	
  3384                           ;newmain.c: 61: int i = 0;
  3385  0636  0020               	movlb 0	; select bank0
  3386  0637  01D3               	clrf	(scanchannel@i)
  3387  0638  01D4               	clrf	(scanchannel@i+1)
  3388                           	line	62
  3389                           	
  3390  0639                     l5435:	
  3391                           ;newmain.c: 62: if(channelno==0){CPSCON1 = 0b00000000;}
  3392  0639  08D0               	movf	(_channelno),f
  3393  063A  1D03               	skipz
  3394  063B  2E3D               	goto	u3181
  3395  063C  2E3E               	goto	u3180
  3396  063D                     u3181:
  3397  063D  2E40               	goto	l5439
  3398  063E                     u3180:
  3399                           	
  3400  063E                     l5437:	
  3401  063E  019F               	clrf	(31)	;volatile
  3402  063F  2E86               	goto	l5467
  3403                           	line	63
  3404                           	
  3405  0640                     l1843:	
  3406                           	
  3407  0640                     l5439:	
  3408                           ;newmain.c: 63: else if(channelno==1){CPSCON1 = 0b00000001;}
  3409  0640  0850               	movf	(_channelno),w
  3410  0641  3A01               	xorlw	01h&0ffh
  3411  0642  1D03               	skipz
  3412  0643  2E45               	goto	u3191
  3413  0644  2E46               	goto	u3190
  3414  0645                     u3191:
  3415  0645  2E49               	goto	l5443
  3416  0646                     u3190:
  3417                           	
  3418  0646                     l5441:	
  3419  0646  3001               	movlw	(01h)
  3420  0647  009F               	movwf	(31)	;volatile
  3421  0648  2E86               	goto	l5467
  3422                           	line	64
  3423                           	
  3424  0649                     l1845:	
  3425                           	
  3426  0649                     l5443:	
  3427                           ;newmain.c: 64: else if(channelno==2){CPSCON1 = 0b00000010;}
  3428  0649  0850               	movf	(_channelno),w
  3429  064A  3A02               	xorlw	02h&0ffh
  3430  064B  1D03               	skipz
  3431  064C  2E4E               	goto	u3201
  3432  064D  2E4F               	goto	u3200
  3433  064E                     u3201:
  3434  064E  2E52               	goto	l5447
  3435  064F                     u3200:
  3436                           	
  3437  064F                     l5445:	
  3438  064F  3002               	movlw	(02h)
  3439  0650  009F               	movwf	(31)	;volatile
  3440  0651  2E86               	goto	l5467
  3441                           	line	65
  3442                           	
  3443  0652                     l1847:	
  3444                           	
  3445  0652                     l5447:	
  3446                           ;newmain.c: 65: else if(channelno==3){CPSCON1 = 0b00000011;}
  3447  0652  0850               	movf	(_channelno),w
  3448  0653  3A03               	xorlw	03h&0ffh
  3449  0654  1D03               	skipz
  3450  0655  2E57               	goto	u3211
  3451  0656  2E58               	goto	u3210
  3452  0657                     u3211:
  3453  0657  2E5B               	goto	l5451
  3454  0658                     u3210:
  3455                           	
  3456  0658                     l5449:	
  3457  0658  3003               	movlw	(03h)
  3458  0659  009F               	movwf	(31)	;volatile
  3459  065A  2E86               	goto	l5467
  3460                           	line	66
  3461                           	
  3462  065B                     l1849:	
  3463                           	
  3464  065B                     l5451:	
  3465                           ;newmain.c: 66: else if(channelno==4){CPSCON1 = 0b00000100;}
  3466  065B  0850               	movf	(_channelno),w
  3467  065C  3A04               	xorlw	04h&0ffh
  3468  065D  1D03               	skipz
  3469  065E  2E60               	goto	u3221
  3470  065F  2E61               	goto	u3220
  3471  0660                     u3221:
  3472  0660  2E64               	goto	l5455
  3473  0661                     u3220:
  3474                           	
  3475  0661                     l5453:	
  3476  0661  3004               	movlw	(04h)
  3477  0662  009F               	movwf	(31)	;volatile
  3478  0663  2E86               	goto	l5467
  3479                           	line	67
  3480                           	
  3481  0664                     l1851:	
  3482                           	
  3483  0664                     l5455:	
  3484                           ;newmain.c: 67: else if(channelno==5){CPSCON1 = 0b00000101;}
  3485  0664  0850               	movf	(_channelno),w
  3486  0665  3A05               	xorlw	05h&0ffh
  3487  0666  1D03               	skipz
  3488  0667  2E69               	goto	u3231
  3489  0668  2E6A               	goto	u3230
  3490  0669                     u3231:
  3491  0669  2E6D               	goto	l5459
  3492  066A                     u3230:
  3493                           	
  3494  066A                     l5457:	
  3495  066A  3005               	movlw	(05h)
  3496  066B  009F               	movwf	(31)	;volatile
  3497  066C  2E86               	goto	l5467
  3498                           	line	68
  3499                           	
  3500  066D                     l1853:	
  3501                           	
  3502  066D                     l5459:	
  3503                           ;newmain.c: 68: else if(channelno==6){CPSCON1 = 0b00000110;}
  3504  066D  0850               	movf	(_channelno),w
  3505  066E  3A06               	xorlw	06h&0ffh
  3506  066F  1D03               	skipz
  3507  0670  2E72               	goto	u3241
  3508  0671  2E73               	goto	u3240
  3509  0672                     u3241:
  3510  0672  2E76               	goto	l5463
  3511  0673                     u3240:
  3512                           	
  3513  0673                     l5461:	
  3514  0673  3006               	movlw	(06h)
  3515  0674  009F               	movwf	(31)	;volatile
  3516  0675  2E86               	goto	l5467
  3517                           	line	69
  3518                           	
  3519  0676                     l1855:	
  3520                           	
  3521  0676                     l5463:	
  3522                           ;newmain.c: 69: else if(channelno==7){CPSCON1 = 0b00000111;}
  3523  0676  0850               	movf	(_channelno),w
  3524  0677  3A07               	xorlw	07h&0ffh
  3525  0678  1D03               	skipz
  3526  0679  2E7B               	goto	u3251
  3527  067A  2E7C               	goto	u3250
  3528  067B                     u3251:
  3529  067B  2E86               	goto	l5467
  3530  067C                     u3250:
  3531                           	
  3532  067C                     l5465:	
  3533  067C  3007               	movlw	(07h)
  3534  067D  009F               	movwf	(31)	;volatile
  3535  067E  2E86               	goto	l5467
  3536                           	
  3537  067F                     l1857:	
  3538  067F  2E86               	goto	l5467
  3539                           	line	70
  3540                           	
  3541  0680                     l1856:	
  3542  0680  2E86               	goto	l5467
  3543                           	
  3544  0681                     l1854:	
  3545  0681  2E86               	goto	l5467
  3546                           	
  3547  0682                     l1852:	
  3548  0682  2E86               	goto	l5467
  3549                           	
  3550  0683                     l1850:	
  3551  0683  2E86               	goto	l5467
  3552                           	
  3553  0684                     l1848:	
  3554  0684  2E86               	goto	l5467
  3555                           	
  3556  0685                     l1846:	
  3557  0685  2E86               	goto	l5467
  3558                           	
  3559  0686                     l1844:	
  3560                           	
  3561  0686                     l5467:	
  3562                           ;newmain.c: 70: for(i = 0 ; i < 8 ; i++)
  3563  0686  01D3               	clrf	(scanchannel@i)
  3564  0687  01D4               	clrf	(scanchannel@i+1)
  3565                           	
  3566  0688                     l5469:	
  3567  0688  0854               	movf	(scanchannel@i+1),w
  3568  0689  3A80               	xorlw	80h
  3569  068A  00FF               	movwf	btemp+1
  3570  068B  3080               	movlw	(high(08h))^80h
  3571  068C  027F               	subwf	btemp+1,w
  3572  068D  1D03               	skipz
  3573  068E  2E91               	goto	u3265
  3574  068F  3008               	movlw	low(08h)
  3575  0690  0253               	subwf	(scanchannel@i),w
  3576  0691                     u3265:
  3577                           
  3578  0691  1C03               	skipc
  3579  0692  2E94               	goto	u3261
  3580  0693  2E95               	goto	u3260
  3581  0694                     u3261:
  3582  0694  2E97               	goto	l5473
  3583  0695                     u3260:
  3584  0695  2EC5               	goto	l1862
  3585                           	
  3586  0696                     l5471:	
  3587  0696  2EC5               	goto	l1862
  3588                           	line	71
  3589                           	
  3590  0697                     l1858:	
  3591                           	line	72
  3592                           	
  3593  0697                     l5473:	
  3594                           ;newmain.c: 71: {
  3595                           ;newmain.c: 72: if(i == channelno) avgflag[ i ] = 0;
  3596  0697  0020               	movlb 0	; select bank0
  3597  0698  0850               	movf	(_channelno),w
  3598  0699  00D1               	movwf	(??_scanchannel+0)+0
  3599  069A  01D2               	clrf	(??_scanchannel+0)+0+1
  3600  069B  0854               	movf	(scanchannel@i+1),w
  3601  069C  0652               	xorwf	1+(??_scanchannel+0)+0,w
  3602  069D  1D03               	skipz
  3603  069E  2EA1               	goto	u3275
  3604  069F  0853               	movf	(scanchannel@i),w
  3605  06A0  0651               	xorwf	0+(??_scanchannel+0)+0,w
  3606  06A1                     u3275:
  3607                           
  3608  06A1  1D03               	skipz
  3609  06A2  2EA4               	goto	u3271
  3610  06A3  2EA5               	goto	u3270
  3611  06A4                     u3271:
  3612  06A4  2EAB               	goto	l5477
  3613  06A5                     u3270:
  3614                           	
  3615  06A5                     l5475:	
  3616  06A5  0853               	movf	(scanchannel@i),w
  3617  06A6  3E40               	addlw	_avgflag&0ffh
  3618  06A7  0086               	movwf	fsr1l
  3619  06A8  0187               	clrf fsr1h	
  3620                           	
  3621  06A9  0181               	clrf	indf1
  3622  06AA  2EB3               	goto	l5479
  3623                           	line	73
  3624                           	
  3625  06AB                     l1860:	
  3626                           	
  3627  06AB                     l5477:	
  3628                           ;newmain.c: 73: else avgflag[ i ] = 1;
  3629  06AB  0853               	movf	(scanchannel@i),w
  3630  06AC  3E40               	addlw	_avgflag&0ffh
  3631  06AD  0086               	movwf	fsr1l
  3632  06AE  0187               	clrf fsr1h	
  3633                           	
  3634  06AF  0181               	clrf	indf1
  3635  06B0  1403               	bsf	status,0
  3636  06B1  0D81               	rlf	indf1,f
  3637  06B2  2EB3               	goto	l5479
  3638                           	
  3639  06B3                     l1861:	
  3640                           	line	70
  3641                           	
  3642  06B3                     l5479:	
  3643  06B3  3001               	movlw	low(01h)
  3644  06B4  07D3               	addwf	(scanchannel@i),f
  3645  06B5  3000               	movlw	high(01h)
  3646  06B6  3DD4               	addwfc	(scanchannel@i+1),f
  3647                           	
  3648  06B7                     l5481:	
  3649  06B7  0854               	movf	(scanchannel@i+1),w
  3650  06B8  3A80               	xorlw	80h
  3651  06B9  00FF               	movwf	btemp+1
  3652  06BA  3080               	movlw	(high(08h))^80h
  3653  06BB  027F               	subwf	btemp+1,w
  3654  06BC  1D03               	skipz
  3655  06BD  2EC0               	goto	u3285
  3656  06BE  3008               	movlw	low(08h)
  3657  06BF  0253               	subwf	(scanchannel@i),w
  3658  06C0                     u3285:
  3659                           
  3660  06C0  1C03               	skipc
  3661  06C1  2EC3               	goto	u3281
  3662  06C2  2EC4               	goto	u3280
  3663  06C3                     u3281:
  3664  06C3  2E97               	goto	l5473
  3665  06C4                     u3280:
  3666  06C4  2EC5               	goto	l1862
  3667                           	
  3668  06C5                     l1859:	
  3669                           	line	75
  3670                           	
  3671  06C5                     l1862:	
  3672  06C5  0008               	return
  3673                           	opt stack 0
  3674                           GLOBAL	__end_of_scanchannel
  3675  06C6                     	__end_of_scanchannel:
  3676 ;; =============== function _scanchannel ends ============
  3677                           
  3678                           	signat	_scanchannel,88
  3679                           	global	_isr
  3680                           psect	intentry
  3681                           
  3682 ;; *************** function _isr *****************
  3683 ;; Defined at:
  3684 ;;		line 510 in file "newmain.c"
  3685 ;; Parameters:    Size  Location     Type
  3686 ;;		None
  3687 ;; Auto vars:     Size  Location     Type
  3688 ;;  no              1    7[COMMON] unsigned char 
  3689 ;;  buff_idx        1    6[COMMON] unsigned char 
  3690 ;;  sspstat         1    5[COMMON] unsigned char 
  3691 ;; Return value:  Size  Location     Type
  3692 ;;		None               void
  3693 ;; Registers used:
  3694 ;;		wreg, fsr1l, fsr1h, status,2, status,0, btemp+1
  3695 ;; Tracked objects:
  3696 ;;		On entry : 0/0
  3697 ;;		On exit  : 0/0
  3698 ;;		Unchanged: 0/0
  3699 ;; Data sizes:     COMMON   BANK0   BANK1   BANK2   BANK3   BANK4   BANK5   BANK6
  3700 ;;      Params:         0       0       0       0       0       0       0       0
  3701 ;;      Locals:         3       0       0       0       0       0       0       0
  3702 ;;      Temps:          5       0       0       0       0       0       0       0
  3703 ;;      Totals:         8       0       0       0       0       0       0       0
  3704 ;;Total ram usage:        8 bytes
  3705 ;; Hardware stack levels used:    1
  3706 ;; This function calls:
  3707 ;;		Nothing
  3708 ;; This function is called by:
  3709 ;;		Interrupt level 1
  3710 ;; This function uses a non-reentrant model
  3711 ;;
  3712                           psect	intentry
  3713                           	file	"newmain.c"
  3714                           	line	510
  3715                           	global	__size_of_isr
  3716  028D                     	__size_of_isr	equ	__end_of_isr-_isr
  3717                           	
  3718  0004                     _isr:	
  3719                           	opt	stack 13
  3720                           ; Regs used in _isr: [wreg+fsr1l-status,0+btemp+1]
  3721                           psect	intentry
  3722  0004  3180               	pagesel	$
  3723  0005  0020               	movlb 0	; select bank0
  3724  0006  087F               	movf	btemp+1,w
  3725  0007  00F4               	movwf	(??_isr+4)
  3726                           	line	512
  3727                           	
  3728  0008                     i1l5533:	
  3729                           ;newmain.c: 511: UINT8 sspstat, buff_idx,no;
  3730                           ;newmain.c: 512: for(no = 0 ; no < 8 ;no++)
  3731  0008  01F7               	clrf	(isr@no)
  3732                           	
  3733  0009                     i1l5535:	
  3734  0009  3008               	movlw	(08h)
  3735  000A  0277               	subwf	(isr@no),w
  3736  000B  1C03               	skipc
  3737  000C  280E               	goto	u331_21
  3738  000D  280F               	goto	u331_20
  3739  000E                     u331_21:
  3740  000E  2811               	goto	i1l5539
  3741  000F                     u331_20:
  3742  000F  283F               	goto	i1l1933
  3743                           	
  3744  0010                     i1l5537:	
  3745  0010  283F               	goto	i1l1933
  3746                           	line	513
  3747                           	
  3748  0011                     i1l1932:	
  3749                           	line	514
  3750                           	
  3751  0011                     i1l5539:	
  3752                           ;newmain.c: 513: {
  3753                           ;newmain.c: 514: if(debounc[no])
  3754  0011  0877               	movf	(isr@no),w
  3755  0012  0709               	addwf	wreg,w
  3756  0013  3EC0               	addlw	_debounc&0ffh
  3757  0014  0086               	movwf	fsr1l
  3758  0015  0187               	clrf fsr1h	
  3759                           	
  3760  0016  0016               	moviw	fsr1++
  3761  0017  0401               	iorwf	indf1,w
  3762  0018  1903               	skipnz
  3763  0019  281B               	goto	u332_21
  3764  001A  281C               	goto	u332_20
  3765  001B                     u332_21:
  3766  001B  2835               	goto	i1l5543
  3767  001C                     u332_20:
  3768                           	line	515
  3769                           	
  3770  001C                     i1l5541:	
  3771                           ;newmain.c: 515: debounc[no]= debounc[no]-1;
  3772  001C  0877               	movf	(isr@no),w
  3773  001D  0709               	addwf	wreg,w
  3774  001E  3EC0               	addlw	_debounc&0ffh
  3775  001F  0086               	movwf	fsr1l
  3776  0020  0187               	clrf fsr1h	
  3777                           	
  3778  0021  3F40               	moviw	[0]fsr1
  3779  0022  00F0               	movwf	(??_isr+0)+0
  3780  0023  3F41               	moviw	[1]fsr1
  3781  0024  00F1               	movwf	(??_isr+0)+0+1
  3782  0025  0870               	movf	0+(??_isr+0)+0,w
  3783  0026  3EFF               	addlw	low(0FFFFh)
  3784  0027  00F2               	movwf	(??_isr+2)+0
  3785  0028  30FF               	movlw	high(0FFFFh)
  3786  0029  3D71               	addwfc	1+(??_isr+0)+0,w
  3787  002A  00F3               	movwf	1+(??_isr+2)+0
  3788  002B  0877               	movf	(isr@no),w
  3789  002C  0709               	addwf	wreg,w
  3790  002D  3EC0               	addlw	_debounc&0ffh
  3791  002E  0086               	movwf	fsr1l
  3792  002F  0187               	clrf fsr1h	
  3793                           	
  3794  0030  0872               	movf	0+(??_isr+2)+0,w
  3795  0031  3FC0               	movwi	[0]fsr1
  3796  0032  0873               	movf	1+(??_isr+2)+0,w
  3797  0033  3FC1               	movwi	[1]fsr1
  3798  0034  2835               	goto	i1l5543
  3799                           	
  3800  0035                     i1l1934:	
  3801                           	line	512
  3802                           	
  3803  0035                     i1l5543:	
  3804  0035  3001               	movlw	(01h)
  3805  0036  00F0               	movwf	(??_isr+0)+0
  3806  0037  0870               	movf	(??_isr+0)+0,w
  3807  0038  07F7               	addwf	(isr@no),f
  3808                           	
  3809  0039                     i1l5545:	
  3810  0039  3008               	movlw	(08h)
  3811  003A  0277               	subwf	(isr@no),w
  3812  003B  1C03               	skipc
  3813  003C  283E               	goto	u333_21
  3814  003D  283F               	goto	u333_20
  3815  003E                     u333_21:
  3816  003E  2811               	goto	i1l5539
  3817  003F                     u333_20:
  3818                           	
  3819  003F                     i1l1933:	
  3820                           	line	517
  3821                           ;newmain.c: 516: }
  3822                           ;newmain.c: 517: if (TMR0IE && TMR0IF)
  3823  003F  1E8B               	btfss	(93/8),(93)&7
  3824  0040  2842               	goto	u334_21
  3825  0041  2843               	goto	u334_20
  3826  0042                     u334_21:
  3827  0042  2848               	goto	i1l1935
  3828  0043                     u334_20:
  3829                           	
  3830  0043                     i1l5547:	
  3831  0043  1D0B               	btfss	(90/8),(90)&7
  3832  0044  2846               	goto	u335_21
  3833  0045  2847               	goto	u335_20
  3834  0046                     u335_21:
  3835  0046  2848               	goto	i1l1935
  3836  0047                     u335_20:
  3837                           	line	518
  3838                           	
  3839  0047                     i1l5549:	
  3840                           ;newmain.c: 518: TMR0IF = 0;
  3841  0047  110B               	bcf	(90/8),(90)&7
  3842                           	
  3843  0048                     i1l1935:	
  3844                           	line	520
  3845                           ;newmain.c: 520: if (TMR1GIF && TMR1GIE)
  3846  0048  1F91               	btfss	(143/8),(143)&7
  3847  0049  284B               	goto	u336_21
  3848  004A  284C               	goto	u336_20
  3849  004B                     u336_21:
  3850  004B  2A20               	goto	i1l5617
  3851  004C                     u336_20:
  3852                           	
  3853  004C                     i1l5551:	
  3854  004C  0021               	movlb 1	; select bank1
  3855  004D  1F91               	btfss	(1167/8)^080h,(1167)&7
  3856  004E  2850               	goto	u337_21
  3857  004F  2851               	goto	u337_20
  3858  0050                     u337_21:
  3859  0050  2A20               	goto	i1l5617
  3860  0051                     u337_20:
  3861                           	line	522
  3862                           	
  3863  0051                     i1l5553:	
  3864                           ;newmain.c: 521: {
  3865                           ;newmain.c: 522: TMR1GIF = 0;
  3866  0051  0020               	movlb 0	; select bank0
  3867  0052  1391               	bcf	(143/8),(143)&7
  3868                           	line	523
  3869                           	
  3870  0053                     i1l5555:	
  3871                           ;newmain.c: 523: TMR0 = 0;
  3872  0053  0195               	clrf	(21)	;volatile
  3873                           	line	524
  3874                           	
  3875  0054                     i1l5557:	
  3876                           ;newmain.c: 524: raw_reading = TMR1L + (unsigned int)(TMR1H << 8);
  3877  0054  0817               	movf	(23),w	;volatile
  3878  0055  00F0               	movwf	(??_isr+0)+0
  3879  0056  01F1               	clrf	(??_isr+0)+0+1
  3880  0057  0870               	movf	(??_isr+0)+0,w
  3881  0058  00F1               	movwf	(??_isr+0)+1
  3882  0059  01F0               	clrf	(??_isr+0)+0
  3883  005A  0816               	movf	(22),w	;volatile
  3884  005B  0770               	addwf	0+(??_isr+0)+0,w
  3885  005C  00F8               	movwf	(_raw_reading)
  3886  005D  0871               	movf	1+(??_isr+0)+0,w
  3887  005E  1803               	skipnc
  3888  005F  0A71               	incf	1+(??_isr+0)+0,w
  3889  0060  00F9               	movwf	((_raw_reading))+1
  3890  0061  01FA               	clrf	2+(_raw_reading)
  3891  0062  01FB               	clrf	3+(_raw_reading)
  3892                           	line	526
  3893                           	
  3894  0063                     i1l5559:	
  3895                           ;newmain.c: 526: if(channelno==0)
  3896  0063  08D0               	movf	(_channelno),f
  3897  0064  1D03               	skipz
  3898  0065  2867               	goto	u338_21
  3899  0066  2868               	goto	u338_20
  3900  0067                     u338_21:
  3901  0067  2898               	goto	i1l5565
  3902  0068                     u338_20:
  3903                           	line	528
  3904                           	
  3905  0068                     i1l5561:	
  3906                           ;newmain.c: 527: {
  3907                           ;newmain.c: 528: curreading0[count[channelno]] = raw_reading;
  3908  0068  0850               	movf	(_channelno),w
  3909  0069  3E48               	addlw	_count&0ffh
  3910  006A  0086               	movwf	fsr1l
  3911  006B  0187               	clrf fsr1h	
  3912                           	
  3913  006C  0801               	movf	indf1,w
  3914  006D  00F0               	movwf	(??_isr+0)+0
  3915  006E  3001               	movlw	(02h)-1
  3916  006F                     u339_25:
  3917  006F  35F0               	lslf	(??_isr+0)+0,f
  3918  0070  3EFF               	addlw	-1
  3919  0071  1D03               	skipz
  3920  0072  286F               	goto	u339_25
  3921  0073  3570               	lslf	(??_isr+0)+0,w
  3922  0074  3EA0               	addlw	_curreading0&0ffh
  3923  0075  0086               	movwf	fsr1l
  3924  0076  0187               	clrf fsr1h	
  3925                           	
  3926  0077  0878               	movf	(_raw_reading),w
  3927  0078  3FC0               	movwi	[0]fsr1
  3928  0079  0879               	movf	(_raw_reading+1),w
  3929  007A  3FC1               	movwi	[1]fsr1
  3930  007B  087A               	movf	(_raw_reading+2),w
  3931  007C  3FC2               	movwi	[2]fsr1
  3932  007D  087B               	movf	(_raw_reading+3),w
  3933  007E  3FC3               	movwi	[3]fsr1
  3934                           	line	529
  3935                           ;newmain.c: 529: count[channelno]++;
  3936  007F  3001               	movlw	(01h)
  3937  0080  00F0               	movwf	(??_isr+0)+0
  3938  0081  0850               	movf	(_channelno),w
  3939  0082  3E48               	addlw	_count&0ffh
  3940  0083  0086               	movwf	fsr1l
  3941  0084  0187               	clrf fsr1h	
  3942                           	
  3943  0085  0870               	movf	(??_isr+0)+0,w
  3944  0086  0781               	addwf	indf1,f
  3945                           	line	530
  3946                           ;newmain.c: 530: if(count[channelno]==8)count[channelno]=0;
  3947  0087  0850               	movf	(_channelno),w
  3948  0088  3E48               	addlw	_count&0ffh
  3949  0089  0086               	movwf	fsr1l
  3950  008A  0187               	clrf fsr1h	
  3951                           	
  3952  008B  0801               	movf	indf1,w
  3953  008C  3A08               	xorlw	08h&0ffh
  3954  008D  1D03               	skipz
  3955  008E  2890               	goto	u340_21
  3956  008F  2891               	goto	u340_20
  3957  0090                     u340_21:
  3958  0090  2898               	goto	i1l5565
  3959  0091                     u340_20:
  3960                           	
  3961  0091                     i1l5563:	
  3962  0091  0850               	movf	(_channelno),w
  3963  0092  3E48               	addlw	_count&0ffh
  3964  0093  0086               	movwf	fsr1l
  3965  0094  0187               	clrf fsr1h	
  3966                           	
  3967  0095  0181               	clrf	indf1
  3968  0096  2898               	goto	i1l5565
  3969                           	
  3970  0097                     i1l1938:	
  3971  0097  2898               	goto	i1l5565
  3972                           	line	531
  3973                           	
  3974  0098                     i1l1937:	
  3975                           	line	533
  3976                           	
  3977  0098                     i1l5565:	
  3978                           ;newmain.c: 531: }
  3979                           ;newmain.c: 533: if(channelno==1)
  3980  0098  0850               	movf	(_channelno),w
  3981  0099  3A01               	xorlw	01h&0ffh
  3982  009A  1D03               	skipz
  3983  009B  289D               	goto	u341_21
  3984  009C  289E               	goto	u341_20
  3985  009D                     u341_21:
  3986  009D  28CF               	goto	i1l5571
  3987  009E                     u341_20:
  3988                           	line	535
  3989                           	
  3990  009E                     i1l5567:	
  3991                           ;newmain.c: 534: {
  3992                           ;newmain.c: 535: curreading1[count[channelno]] = raw_reading;
  3993  009E  0850               	movf	(_channelno),w
  3994  009F  3E48               	addlw	_count&0ffh
  3995  00A0  0086               	movwf	fsr1l
  3996  00A1  0187               	clrf fsr1h	
  3997                           	
  3998  00A2  0801               	movf	indf1,w
  3999  00A3  00F0               	movwf	(??_isr+0)+0
  4000  00A4  3001               	movlw	(02h)-1
  4001  00A5                     u342_25:
  4002  00A5  35F0               	lslf	(??_isr+0)+0,f
  4003  00A6  3EFF               	addlw	-1
  4004  00A7  1D03               	skipz
  4005  00A8  28A5               	goto	u342_25
  4006  00A9  3570               	lslf	(??_isr+0)+0,w
  4007  00AA  3E20               	addlw	_curreading1&0ffh
  4008  00AB  0086               	movwf	fsr1l
  4009  00AC  3001               	movlw 1	; select bank2/3
  4010  00AD  0087               	movwf fsr1h	
  4011                           	
  4012  00AE  0878               	movf	(_raw_reading),w
  4013  00AF  3FC0               	movwi	[0]fsr1
  4014  00B0  0879               	movf	(_raw_reading+1),w
  4015  00B1  3FC1               	movwi	[1]fsr1
  4016  00B2  087A               	movf	(_raw_reading+2),w
  4017  00B3  3FC2               	movwi	[2]fsr1
  4018  00B4  087B               	movf	(_raw_reading+3),w
  4019  00B5  3FC3               	movwi	[3]fsr1
  4020                           	line	536
  4021                           ;newmain.c: 536: count[channelno]++;
  4022  00B6  3001               	movlw	(01h)
  4023  00B7  00F0               	movwf	(??_isr+0)+0
  4024  00B8  0850               	movf	(_channelno),w
  4025  00B9  3E48               	addlw	_count&0ffh
  4026  00BA  0086               	movwf	fsr1l
  4027  00BB  0187               	clrf fsr1h	
  4028                           	
  4029  00BC  0870               	movf	(??_isr+0)+0,w
  4030  00BD  0781               	addwf	indf1,f
  4031                           	line	537
  4032                           ;newmain.c: 537: if(count[channelno]==8)count[channelno]=0;
  4033  00BE  0850               	movf	(_channelno),w
  4034  00BF  3E48               	addlw	_count&0ffh
  4035  00C0  0086               	movwf	fsr1l
  4036  00C1  0187               	clrf fsr1h	
  4037                           	
  4038  00C2  0801               	movf	indf1,w
  4039  00C3  3A08               	xorlw	08h&0ffh
  4040  00C4  1D03               	skipz
  4041  00C5  28C7               	goto	u343_21
  4042  00C6  28C8               	goto	u343_20
  4043  00C7                     u343_21:
  4044  00C7  28CF               	goto	i1l5571
  4045  00C8                     u343_20:
  4046                           	
  4047  00C8                     i1l5569:	
  4048  00C8  0850               	movf	(_channelno),w
  4049  00C9  3E48               	addlw	_count&0ffh
  4050  00CA  0086               	movwf	fsr1l
  4051  00CB  0187               	clrf fsr1h	
  4052                           	
  4053  00CC  0181               	clrf	indf1
  4054  00CD  28CF               	goto	i1l5571
  4055                           	
  4056  00CE                     i1l1940:	
  4057  00CE  28CF               	goto	i1l5571
  4058                           	line	538
  4059                           	
  4060  00CF                     i1l1939:	
  4061                           	line	540
  4062                           	
  4063  00CF                     i1l5571:	
  4064                           ;newmain.c: 538: }
  4065                           ;newmain.c: 540: if(channelno==2)
  4066  00CF  0850               	movf	(_channelno),w
  4067  00D0  3A02               	xorlw	02h&0ffh
  4068  00D1  1D03               	skipz
  4069  00D2  28D4               	goto	u344_21
  4070  00D3  28D5               	goto	u344_20
  4071  00D4                     u344_21:
  4072  00D4  2906               	goto	i1l5577
  4073  00D5                     u344_20:
  4074                           	line	542
  4075                           	
  4076  00D5                     i1l5573:	
  4077                           ;newmain.c: 541: {
  4078                           ;newmain.c: 542: curreading2[count[channelno]] = raw_reading;
  4079  00D5  0850               	movf	(_channelno),w
  4080  00D6  3E48               	addlw	_count&0ffh
  4081  00D7  0086               	movwf	fsr1l
  4082  00D8  0187               	clrf fsr1h	
  4083                           	
  4084  00D9  0801               	movf	indf1,w
  4085  00DA  00F0               	movwf	(??_isr+0)+0
  4086  00DB  3001               	movlw	(02h)-1
  4087  00DC                     u345_25:
  4088  00DC  35F0               	lslf	(??_isr+0)+0,f
  4089  00DD  3EFF               	addlw	-1
  4090  00DE  1D03               	skipz
  4091  00DF  28DC               	goto	u345_25
  4092  00E0  3570               	lslf	(??_isr+0)+0,w
  4093  00E1  3E40               	addlw	_curreading2&0ffh
  4094  00E2  0086               	movwf	fsr1l
  4095  00E3  3001               	movlw 1	; select bank2/3
  4096  00E4  0087               	movwf fsr1h	
  4097                           	
  4098  00E5  0878               	movf	(_raw_reading),w
  4099  00E6  3FC0               	movwi	[0]fsr1
  4100  00E7  0879               	movf	(_raw_reading+1),w
  4101  00E8  3FC1               	movwi	[1]fsr1
  4102  00E9  087A               	movf	(_raw_reading+2),w
  4103  00EA  3FC2               	movwi	[2]fsr1
  4104  00EB  087B               	movf	(_raw_reading+3),w
  4105  00EC  3FC3               	movwi	[3]fsr1
  4106                           	line	543
  4107                           ;newmain.c: 543: count[channelno]++;
  4108  00ED  3001               	movlw	(01h)
  4109  00EE  00F0               	movwf	(??_isr+0)+0
  4110  00EF  0850               	movf	(_channelno),w
  4111  00F0  3E48               	addlw	_count&0ffh
  4112  00F1  0086               	movwf	fsr1l
  4113  00F2  0187               	clrf fsr1h	
  4114                           	
  4115  00F3  0870               	movf	(??_isr+0)+0,w
  4116  00F4  0781               	addwf	indf1,f
  4117                           	line	544
  4118                           ;newmain.c: 544: if(count[channelno]==8)count[channelno]=0;
  4119  00F5  0850               	movf	(_channelno),w
  4120  00F6  3E48               	addlw	_count&0ffh
  4121  00F7  0086               	movwf	fsr1l
  4122  00F8  0187               	clrf fsr1h	
  4123                           	
  4124  00F9  0801               	movf	indf1,w
  4125  00FA  3A08               	xorlw	08h&0ffh
  4126  00FB  1D03               	skipz
  4127  00FC  28FE               	goto	u346_21
  4128  00FD  28FF               	goto	u346_20
  4129  00FE                     u346_21:
  4130  00FE  2906               	goto	i1l5577
  4131  00FF                     u346_20:
  4132                           	
  4133  00FF                     i1l5575:	
  4134  00FF  0850               	movf	(_channelno),w
  4135  0100  3E48               	addlw	_count&0ffh
  4136  0101  0086               	movwf	fsr1l
  4137  0102  0187               	clrf fsr1h	
  4138                           	
  4139  0103  0181               	clrf	indf1
  4140  0104  2906               	goto	i1l5577
  4141                           	
  4142  0105                     i1l1942:	
  4143  0105  2906               	goto	i1l5577
  4144                           	line	545
  4145                           	
  4146  0106                     i1l1941:	
  4147                           	line	547
  4148                           	
  4149  0106                     i1l5577:	
  4150                           ;newmain.c: 545: }
  4151                           ;newmain.c: 547: if(channelno==3)
  4152  0106  0850               	movf	(_channelno),w
  4153  0107  3A03               	xorlw	03h&0ffh
  4154  0108  1D03               	skipz
  4155  0109  290B               	goto	u347_21
  4156  010A  290C               	goto	u347_20
  4157  010B                     u347_21:
  4158  010B  293D               	goto	i1l5583
  4159  010C                     u347_20:
  4160                           	line	549
  4161                           	
  4162  010C                     i1l5579:	
  4163                           ;newmain.c: 548: {
  4164                           ;newmain.c: 549: curreading3[count[channelno]] = raw_reading;
  4165  010C  0850               	movf	(_channelno),w
  4166  010D  3E48               	addlw	_count&0ffh
  4167  010E  0086               	movwf	fsr1l
  4168  010F  0187               	clrf fsr1h	
  4169                           	
  4170  0110  0801               	movf	indf1,w
  4171  0111  00F0               	movwf	(??_isr+0)+0
  4172  0112  3001               	movlw	(02h)-1
  4173  0113                     u348_25:
  4174  0113  35F0               	lslf	(??_isr+0)+0,f
  4175  0114  3EFF               	addlw	-1
  4176  0115  1D03               	skipz
  4177  0116  2913               	goto	u348_25
  4178  0117  3570               	lslf	(??_isr+0)+0,w
  4179  0118  3EA0               	addlw	_curreading3&0ffh
  4180  0119  0086               	movwf	fsr1l
  4181  011A  3001               	movlw 1	; select bank3/4
  4182  011B  0087               	movwf fsr1h	
  4183                           	
  4184  011C  0878               	movf	(_raw_reading),w
  4185  011D  3FC0               	movwi	[0]fsr1
  4186  011E  0879               	movf	(_raw_reading+1),w
  4187  011F  3FC1               	movwi	[1]fsr1
  4188  0120  087A               	movf	(_raw_reading+2),w
  4189  0121  3FC2               	movwi	[2]fsr1
  4190  0122  087B               	movf	(_raw_reading+3),w
  4191  0123  3FC3               	movwi	[3]fsr1
  4192                           	line	550
  4193                           ;newmain.c: 550: count[channelno]++;
  4194  0124  3001               	movlw	(01h)
  4195  0125  00F0               	movwf	(??_isr+0)+0
  4196  0126  0850               	movf	(_channelno),w
  4197  0127  3E48               	addlw	_count&0ffh
  4198  0128  0086               	movwf	fsr1l
  4199  0129  0187               	clrf fsr1h	
  4200                           	
  4201  012A  0870               	movf	(??_isr+0)+0,w
  4202  012B  0781               	addwf	indf1,f
  4203                           	line	551
  4204                           ;newmain.c: 551: if(count[channelno]==8)count[channelno]=0;
  4205  012C  0850               	movf	(_channelno),w
  4206  012D  3E48               	addlw	_count&0ffh
  4207  012E  0086               	movwf	fsr1l
  4208  012F  0187               	clrf fsr1h	
  4209                           	
  4210  0130  0801               	movf	indf1,w
  4211  0131  3A08               	xorlw	08h&0ffh
  4212  0132  1D03               	skipz
  4213  0133  2935               	goto	u349_21
  4214  0134  2936               	goto	u349_20
  4215  0135                     u349_21:
  4216  0135  293D               	goto	i1l5583
  4217  0136                     u349_20:
  4218                           	
  4219  0136                     i1l5581:	
  4220  0136  0850               	movf	(_channelno),w
  4221  0137  3E48               	addlw	_count&0ffh
  4222  0138  0086               	movwf	fsr1l
  4223  0139  0187               	clrf fsr1h	
  4224                           	
  4225  013A  0181               	clrf	indf1
  4226  013B  293D               	goto	i1l5583
  4227                           	
  4228  013C                     i1l1944:	
  4229  013C  293D               	goto	i1l5583
  4230                           	line	552
  4231                           	
  4232  013D                     i1l1943:	
  4233                           	line	554
  4234                           	
  4235  013D                     i1l5583:	
  4236                           ;newmain.c: 552: }
  4237                           ;newmain.c: 554: if(channelno==4)
  4238  013D  0850               	movf	(_channelno),w
  4239  013E  3A04               	xorlw	04h&0ffh
  4240  013F  1D03               	skipz
  4241  0140  2942               	goto	u350_21
  4242  0141  2943               	goto	u350_20
  4243  0142                     u350_21:
  4244  0142  2974               	goto	i1l5589
  4245  0143                     u350_20:
  4246                           	line	556
  4247                           	
  4248  0143                     i1l5585:	
  4249                           ;newmain.c: 555: {
  4250                           ;newmain.c: 556: curreading4[count[channelno]] = raw_reading;
  4251  0143  0850               	movf	(_channelno),w
  4252  0144  3E48               	addlw	_count&0ffh
  4253  0145  0086               	movwf	fsr1l
  4254  0146  0187               	clrf fsr1h	
  4255                           	
  4256  0147  0801               	movf	indf1,w
  4257  0148  00F0               	movwf	(??_isr+0)+0
  4258  0149  3001               	movlw	(02h)-1
  4259  014A                     u351_25:
  4260  014A  35F0               	lslf	(??_isr+0)+0,f
  4261  014B  3EFF               	addlw	-1
  4262  014C  1D03               	skipz
  4263  014D  294A               	goto	u351_25
  4264  014E  3570               	lslf	(??_isr+0)+0,w
  4265  014F  3EC0               	addlw	_curreading4&0ffh
  4266  0150  0086               	movwf	fsr1l
  4267  0151  3001               	movlw 1	; select bank3/4
  4268  0152  0087               	movwf fsr1h	
  4269                           	
  4270  0153  0878               	movf	(_raw_reading),w
  4271  0154  3FC0               	movwi	[0]fsr1
  4272  0155  0879               	movf	(_raw_reading+1),w
  4273  0156  3FC1               	movwi	[1]fsr1
  4274  0157  087A               	movf	(_raw_reading+2),w
  4275  0158  3FC2               	movwi	[2]fsr1
  4276  0159  087B               	movf	(_raw_reading+3),w
  4277  015A  3FC3               	movwi	[3]fsr1
  4278                           	line	557
  4279                           ;newmain.c: 557: count[channelno]++;
  4280  015B  3001               	movlw	(01h)
  4281  015C  00F0               	movwf	(??_isr+0)+0
  4282  015D  0850               	movf	(_channelno),w
  4283  015E  3E48               	addlw	_count&0ffh
  4284  015F  0086               	movwf	fsr1l
  4285  0160  0187               	clrf fsr1h	
  4286                           	
  4287  0161  0870               	movf	(??_isr+0)+0,w
  4288  0162  0781               	addwf	indf1,f
  4289                           	line	558
  4290                           ;newmain.c: 558: if(count[channelno]==8)count[channelno]=0;
  4291  0163  0850               	movf	(_channelno),w
  4292  0164  3E48               	addlw	_count&0ffh
  4293  0165  0086               	movwf	fsr1l
  4294  0166  0187               	clrf fsr1h	
  4295                           	
  4296  0167  0801               	movf	indf1,w
  4297  0168  3A08               	xorlw	08h&0ffh
  4298  0169  1D03               	skipz
  4299  016A  296C               	goto	u352_21
  4300  016B  296D               	goto	u352_20
  4301  016C                     u352_21:
  4302  016C  2974               	goto	i1l5589
  4303  016D                     u352_20:
  4304                           	
  4305  016D                     i1l5587:	
  4306  016D  0850               	movf	(_channelno),w
  4307  016E  3E48               	addlw	_count&0ffh
  4308  016F  0086               	movwf	fsr1l
  4309  0170  0187               	clrf fsr1h	
  4310                           	
  4311  0171  0181               	clrf	indf1
  4312  0172  2974               	goto	i1l5589
  4313                           	
  4314  0173                     i1l1946:	
  4315  0173  2974               	goto	i1l5589
  4316                           	line	559
  4317                           	
  4318  0174                     i1l1945:	
  4319                           	line	561
  4320                           	
  4321  0174                     i1l5589:	
  4322                           ;newmain.c: 559: }
  4323                           ;newmain.c: 561: if(channelno==5)
  4324  0174  0850               	movf	(_channelno),w
  4325  0175  3A05               	xorlw	05h&0ffh
  4326  0176  1D03               	skipz
  4327  0177  2979               	goto	u353_21
  4328  0178  297A               	goto	u353_20
  4329  0179                     u353_21:
  4330  0179  29AB               	goto	i1l5595
  4331  017A                     u353_20:
  4332                           	line	563
  4333                           	
  4334  017A                     i1l5591:	
  4335                           ;newmain.c: 562: {
  4336                           ;newmain.c: 563: curreading5[count[channelno]] = raw_reading;
  4337  017A  0850               	movf	(_channelno),w
  4338  017B  3E48               	addlw	_count&0ffh
  4339  017C  0086               	movwf	fsr1l
  4340  017D  0187               	clrf fsr1h	
  4341                           	
  4342  017E  0801               	movf	indf1,w
  4343  017F  00F0               	movwf	(??_isr+0)+0
  4344  0180  3001               	movlw	(02h)-1
  4345  0181                     u354_25:
  4346  0181  35F0               	lslf	(??_isr+0)+0,f
  4347  0182  3EFF               	addlw	-1
  4348  0183  1D03               	skipz
  4349  0184  2981               	goto	u354_25
  4350  0185  3570               	lslf	(??_isr+0)+0,w
  4351  0186  3E20               	addlw	_curreading5&0ffh
  4352  0187  0086               	movwf	fsr1l
  4353  0188  3002               	movlw 2	; select bank4/5
  4354  0189  0087               	movwf fsr1h	
  4355                           	
  4356  018A  0878               	movf	(_raw_reading),w
  4357  018B  3FC0               	movwi	[0]fsr1
  4358  018C  0879               	movf	(_raw_reading+1),w
  4359  018D  3FC1               	movwi	[1]fsr1
  4360  018E  087A               	movf	(_raw_reading+2),w
  4361  018F  3FC2               	movwi	[2]fsr1
  4362  0190  087B               	movf	(_raw_reading+3),w
  4363  0191  3FC3               	movwi	[3]fsr1
  4364                           	line	564
  4365                           ;newmain.c: 564: count[channelno]++;
  4366  0192  3001               	movlw	(01h)
  4367  0193  00F0               	movwf	(??_isr+0)+0
  4368  0194  0850               	movf	(_channelno),w
  4369  0195  3E48               	addlw	_count&0ffh
  4370  0196  0086               	movwf	fsr1l
  4371  0197  0187               	clrf fsr1h	
  4372                           	
  4373  0198  0870               	movf	(??_isr+0)+0,w
  4374  0199  0781               	addwf	indf1,f
  4375                           	line	565
  4376                           ;newmain.c: 565: if(count[channelno]==8)count[channelno]=0;
  4377  019A  0850               	movf	(_channelno),w
  4378  019B  3E48               	addlw	_count&0ffh
  4379  019C  0086               	movwf	fsr1l
  4380  019D  0187               	clrf fsr1h	
  4381                           	
  4382  019E  0801               	movf	indf1,w
  4383  019F  3A08               	xorlw	08h&0ffh
  4384  01A0  1D03               	skipz
  4385  01A1  29A3               	goto	u355_21
  4386  01A2  29A4               	goto	u355_20
  4387  01A3                     u355_21:
  4388  01A3  29AB               	goto	i1l5595
  4389  01A4                     u355_20:
  4390                           	
  4391  01A4                     i1l5593:	
  4392  01A4  0850               	movf	(_channelno),w
  4393  01A5  3E48               	addlw	_count&0ffh
  4394  01A6  0086               	movwf	fsr1l
  4395  01A7  0187               	clrf fsr1h	
  4396                           	
  4397  01A8  0181               	clrf	indf1
  4398  01A9  29AB               	goto	i1l5595
  4399                           	
  4400  01AA                     i1l1948:	
  4401  01AA  29AB               	goto	i1l5595
  4402                           	line	566
  4403                           	
  4404  01AB                     i1l1947:	
  4405                           	line	568
  4406                           	
  4407  01AB                     i1l5595:	
  4408                           ;newmain.c: 566: }
  4409                           ;newmain.c: 568: if(channelno==6)
  4410  01AB  0850               	movf	(_channelno),w
  4411  01AC  3A06               	xorlw	06h&0ffh
  4412  01AD  1D03               	skipz
  4413  01AE  29B0               	goto	u356_21
  4414  01AF  29B1               	goto	u356_20
  4415  01B0                     u356_21:
  4416  01B0  29E2               	goto	i1l5601
  4417  01B1                     u356_20:
  4418                           	line	570
  4419                           	
  4420  01B1                     i1l5597:	
  4421                           ;newmain.c: 569: {
  4422                           ;newmain.c: 570: curreading6[count[channelno]] = raw_reading;
  4423  01B1  0850               	movf	(_channelno),w
  4424  01B2  3E48               	addlw	_count&0ffh
  4425  01B3  0086               	movwf	fsr1l
  4426  01B4  0187               	clrf fsr1h	
  4427                           	
  4428  01B5  0801               	movf	indf1,w
  4429  01B6  00F0               	movwf	(??_isr+0)+0
  4430  01B7  3001               	movlw	(02h)-1
  4431  01B8                     u357_25:
  4432  01B8  35F0               	lslf	(??_isr+0)+0,f
  4433  01B9  3EFF               	addlw	-1
  4434  01BA  1D03               	skipz
  4435  01BB  29B8               	goto	u357_25
  4436  01BC  3570               	lslf	(??_isr+0)+0,w
  4437  01BD  3E40               	addlw	_curreading6&0ffh
  4438  01BE  0086               	movwf	fsr1l
  4439  01BF  3002               	movlw 2	; select bank4/5
  4440  01C0  0087               	movwf fsr1h	
  4441                           	
  4442  01C1  0878               	movf	(_raw_reading),w
  4443  01C2  3FC0               	movwi	[0]fsr1
  4444  01C3  0879               	movf	(_raw_reading+1),w
  4445  01C4  3FC1               	movwi	[1]fsr1
  4446  01C5  087A               	movf	(_raw_reading+2),w
  4447  01C6  3FC2               	movwi	[2]fsr1
  4448  01C7  087B               	movf	(_raw_reading+3),w
  4449  01C8  3FC3               	movwi	[3]fsr1
  4450                           	line	571
  4451                           ;newmain.c: 571: count[channelno]++;
  4452  01C9  3001               	movlw	(01h)
  4453  01CA  00F0               	movwf	(??_isr+0)+0
  4454  01CB  0850               	movf	(_channelno),w
  4455  01CC  3E48               	addlw	_count&0ffh
  4456  01CD  0086               	movwf	fsr1l
  4457  01CE  0187               	clrf fsr1h	
  4458                           	
  4459  01CF  0870               	movf	(??_isr+0)+0,w
  4460  01D0  0781               	addwf	indf1,f
  4461                           	line	572
  4462                           ;newmain.c: 572: if(count[channelno]==8)count[channelno]=0;
  4463  01D1  0850               	movf	(_channelno),w
  4464  01D2  3E48               	addlw	_count&0ffh
  4465  01D3  0086               	movwf	fsr1l
  4466  01D4  0187               	clrf fsr1h	
  4467                           	
  4468  01D5  0801               	movf	indf1,w
  4469  01D6  3A08               	xorlw	08h&0ffh
  4470  01D7  1D03               	skipz
  4471  01D8  29DA               	goto	u358_21
  4472  01D9  29DB               	goto	u358_20
  4473  01DA                     u358_21:
  4474  01DA  29E2               	goto	i1l5601
  4475  01DB                     u358_20:
  4476                           	
  4477  01DB                     i1l5599:	
  4478  01DB  0850               	movf	(_channelno),w
  4479  01DC  3E48               	addlw	_count&0ffh
  4480  01DD  0086               	movwf	fsr1l
  4481  01DE  0187               	clrf fsr1h	
  4482                           	
  4483  01DF  0181               	clrf	indf1
  4484  01E0  29E2               	goto	i1l5601
  4485                           	
  4486  01E1                     i1l1950:	
  4487  01E1  29E2               	goto	i1l5601
  4488                           	line	573
  4489                           	
  4490  01E2                     i1l1949:	
  4491                           	line	575
  4492                           	
  4493  01E2                     i1l5601:	
  4494                           ;newmain.c: 573: }
  4495                           ;newmain.c: 575: if(channelno==7)
  4496  01E2  0850               	movf	(_channelno),w
  4497  01E3  3A07               	xorlw	07h&0ffh
  4498  01E4  1D03               	skipz
  4499  01E5  29E7               	goto	u359_21
  4500  01E6  29E8               	goto	u359_20
  4501  01E7                     u359_21:
  4502  01E7  2A19               	goto	i1l5607
  4503  01E8                     u359_20:
  4504                           	line	577
  4505                           	
  4506  01E8                     i1l5603:	
  4507                           ;newmain.c: 576: {
  4508                           ;newmain.c: 577: curreading7[count[channelno]] = raw_reading;
  4509  01E8  0850               	movf	(_channelno),w
  4510  01E9  3E48               	addlw	_count&0ffh
  4511  01EA  0086               	movwf	fsr1l
  4512  01EB  0187               	clrf fsr1h	
  4513                           	
  4514  01EC  0801               	movf	indf1,w
  4515  01ED  00F0               	movwf	(??_isr+0)+0
  4516  01EE  3001               	movlw	(02h)-1
  4517  01EF                     u360_25:
  4518  01EF  35F0               	lslf	(??_isr+0)+0,f
  4519  01F0  3EFF               	addlw	-1
  4520  01F1  1D03               	skipz
  4521  01F2  29EF               	goto	u360_25
  4522  01F3  3570               	lslf	(??_isr+0)+0,w
  4523  01F4  3EA0               	addlw	_curreading7&0ffh
  4524  01F5  0086               	movwf	fsr1l
  4525  01F6  3002               	movlw 2	; select bank5/6
  4526  01F7  0087               	movwf fsr1h	
  4527                           	
  4528  01F8  0878               	movf	(_raw_reading),w
  4529  01F9  3FC0               	movwi	[0]fsr1
  4530  01FA  0879               	movf	(_raw_reading+1),w
  4531  01FB  3FC1               	movwi	[1]fsr1
  4532  01FC  087A               	movf	(_raw_reading+2),w
  4533  01FD  3FC2               	movwi	[2]fsr1
  4534  01FE  087B               	movf	(_raw_reading+3),w
  4535  01FF  3FC3               	movwi	[3]fsr1
  4536                           	line	578
  4537                           ;newmain.c: 578: count[channelno]++;
  4538  0200  3001               	movlw	(01h)
  4539  0201  00F0               	movwf	(??_isr+0)+0
  4540  0202  0850               	movf	(_channelno),w
  4541  0203  3E48               	addlw	_count&0ffh
  4542  0204  0086               	movwf	fsr1l
  4543  0205  0187               	clrf fsr1h	
  4544                           	
  4545  0206  0870               	movf	(??_isr+0)+0,w
  4546  0207  0781               	addwf	indf1,f
  4547                           	line	579
  4548                           ;newmain.c: 579: if(count[channelno]==8)count[channelno]=0;
  4549  0208  0850               	movf	(_channelno),w
  4550  0209  3E48               	addlw	_count&0ffh
  4551  020A  0086               	movwf	fsr1l
  4552  020B  0187               	clrf fsr1h	
  4553                           	
  4554  020C  0801               	movf	indf1,w
  4555  020D  3A08               	xorlw	08h&0ffh
  4556  020E  1D03               	skipz
  4557  020F  2A11               	goto	u361_21
  4558  0210  2A12               	goto	u361_20
  4559  0211                     u361_21:
  4560  0211  2A19               	goto	i1l5607
  4561  0212                     u361_20:
  4562                           	
  4563  0212                     i1l5605:	
  4564  0212  0850               	movf	(_channelno),w
  4565  0213  3E48               	addlw	_count&0ffh
  4566  0214  0086               	movwf	fsr1l
  4567  0215  0187               	clrf fsr1h	
  4568                           	
  4569  0216  0181               	clrf	indf1
  4570  0217  2A19               	goto	i1l5607
  4571                           	
  4572  0218                     i1l1952:	
  4573  0218  2A19               	goto	i1l5607
  4574                           	line	580
  4575                           	
  4576  0219                     i1l1951:	
  4577                           	line	588
  4578                           	
  4579  0219                     i1l5607:	
  4580                           ;newmain.c: 580: }
  4581                           ;newmain.c: 588: TMR1L = 0x00;
  4582  0219  0196               	clrf	(22)	;volatile
  4583                           	line	589
  4584                           	
  4585  021A                     i1l5609:	
  4586                           ;newmain.c: 589: TMR1H = 0x00;
  4587  021A  0197               	clrf	(23)	;volatile
  4588                           	line	590
  4589                           	
  4590  021B                     i1l5611:	
  4591                           ;newmain.c: 590: TMR1ON = 1;
  4592  021B  1418               	bsf	(192/8),(192)&7
  4593                           	line	591
  4594                           	
  4595  021C                     i1l5613:	
  4596                           ;newmain.c: 591: TMR0 = 0xFE;
  4597  021C  30FE               	movlw	(0FEh)
  4598  021D  0095               	movwf	(21)	;volatile
  4599                           	line	592
  4600                           	
  4601  021E                     i1l5615:	
  4602                           ;newmain.c: 592: T1GGO = 1;
  4603  021E  1599               	bsf	(203/8),(203)&7
  4604  021F  2A20               	goto	i1l5617
  4605                           	line	593
  4606                           	
  4607  0220                     i1l1936:	
  4608                           	line	595
  4609                           	
  4610  0220                     i1l5617:	
  4611                           ;newmain.c: 593: }
  4612                           ;newmain.c: 595: if (SSPIF && SSPIE)
  4613  0220  0020               	movlb 0	; select bank0
  4614  0221  1D91               	btfss	(139/8),(139)&7
  4615  0222  2A24               	goto	u362_21
  4616  0223  2A25               	goto	u362_20
  4617  0224                     u362_21:
  4618  0224  2A8D               	goto	i1l1964
  4619  0225                     u362_20:
  4620                           	
  4621  0225                     i1l5619:	
  4622  0225  0021               	movlb 1	; select bank1
  4623  0226  1D91               	btfss	(1163/8)^080h,(1163)&7
  4624  0227  2A29               	goto	u363_21
  4625  0228  2A2A               	goto	u363_20
  4626  0229                     u363_21:
  4627  0229  2A8D               	goto	i1l1964
  4628  022A                     u363_20:
  4629                           	line	597
  4630                           	
  4631  022A                     i1l5621:	
  4632                           ;newmain.c: 596: {
  4633                           ;newmain.c: 597: SSPIF = 0;
  4634  022A  0020               	movlb 0	; select bank0
  4635  022B  1191               	bcf	(139/8),(139)&7
  4636                           	line	598
  4637                           	
  4638  022C                     i1l5623:	
  4639                           ;newmain.c: 598: sspstat = SSPSTAT & 0b00100101;
  4640  022C  0024               	movlb 4	; select bank4
  4641  022D  0814               	movf	(532)^0200h,w
  4642  022E  3925               	andlw	025h
  4643  022F  00F0               	movwf	(??_isr+0)+0
  4644  0230  0870               	movf	(??_isr+0)+0,w
  4645  0231  00F5               	movwf	(isr@sspstat)
  4646                           	line	599
  4647                           	
  4648  0232                     i1l5625:	
  4649                           ;newmain.c: 599: if (sspstat == 0b00000001)
  4650  0232  0875               	movf	(isr@sspstat),w
  4651  0233  3A01               	xorlw	01h&0ffh
  4652  0234  1D03               	skipz
  4653  0235  2A37               	goto	u364_21
  4654  0236  2A38               	goto	u364_20
  4655  0237                     u364_21:
  4656  0237  2A3B               	goto	i1l5629
  4657  0238                     u364_20:
  4658                           	line	601
  4659                           	
  4660  0238                     i1l5627:	
  4661                           ;newmain.c: 600: {
  4662                           ;newmain.c: 601: buff_idx = 0;
  4663  0238  01F6               	clrf	(isr@buff_idx)
  4664                           	line	602
  4665                           ;newmain.c: 602: SSPCON1bits.CKP = 1;
  4666  0239  1615               	bsf	(533)^0200h,4	;volatile
  4667                           	line	603
  4668                           ;newmain.c: 603: }
  4669  023A  2A8D               	goto	i1l1964
  4670                           	line	604
  4671                           	
  4672  023B                     i1l1954:	
  4673                           	
  4674  023B                     i1l5629:	
  4675                           ;newmain.c: 604: else if ( sspstat == 0b00100001 )
  4676  023B  0875               	movf	(isr@sspstat),w
  4677  023C  3A21               	xorlw	021h&0ffh
  4678  023D  1D03               	skipz
  4679  023E  2A40               	goto	u365_21
  4680  023F  2A41               	goto	u365_20
  4681  0240                     u365_21:
  4682  0240  2A58               	goto	i1l5639
  4683  0241                     u365_20:
  4684                           	line	606
  4685                           	
  4686  0241                     i1l5631:	
  4687                           ;newmain.c: 605: {
  4688                           ;newmain.c: 606: i2c_rx_buff[buff_idx] = SSPBUF;
  4689  0241  0811               	movf	(529)^0200h,w	;volatile
  4690  0242  00F0               	movwf	(??_isr+0)+0
  4691  0243  0876               	movf	(isr@buff_idx),w
  4692  0244  3ED0               	addlw	_i2c_rx_buff&0ffh
  4693  0245  0086               	movwf	fsr1l
  4694  0246  0187               	clrf fsr1h	
  4695                           	
  4696  0247  0870               	movf	(??_isr+0)+0,w
  4697  0248  0081               	movwf	indf1
  4698                           	line	607
  4699                           	
  4700  0249                     i1l5633:	
  4701                           ;newmain.c: 607: SSPCON1bits.CKP = 1;
  4702  0249  1615               	bsf	(533)^0200h,4	;volatile
  4703                           	line	608
  4704                           	
  4705  024A                     i1l5635:	
  4706                           ;newmain.c: 608: if (++buff_idx == sizeof(i2c_rx_buff))
  4707  024A  3001               	movlw	(01h)
  4708  024B  00F0               	movwf	(??_isr+0)+0
  4709  024C  0870               	movf	(??_isr+0)+0,w
  4710  024D  07F6               	addwf	(isr@buff_idx),f
  4711  024E  0876               	movf	((isr@buff_idx)),w
  4712  024F  3A08               	xorlw	08h&0ffh
  4713  0250  1D03               	skipz
  4714  0251  2A53               	goto	u366_21
  4715  0252  2A54               	goto	u366_20
  4716  0253                     u366_21:
  4717  0253  2A8D               	goto	i1l1964
  4718  0254                     u366_20:
  4719                           	line	610
  4720                           	
  4721  0254                     i1l5637:	
  4722                           ;newmain.c: 609: {
  4723                           ;newmain.c: 610: buff_idx--;
  4724  0254  3001               	movlw	low(01h)
  4725  0255  02F6               	subwf	(isr@buff_idx),f
  4726  0256  2A8D               	goto	i1l1964
  4727                           	line	611
  4728                           	
  4729  0257                     i1l1957:	
  4730                           	line	612
  4731                           ;newmain.c: 611: }
  4732                           ;newmain.c: 612: }
  4733  0257  2A8D               	goto	i1l1964
  4734                           	line	613
  4735                           	
  4736  0258                     i1l1956:	
  4737                           	
  4738  0258                     i1l5639:	
  4739                           ;newmain.c: 613: else if ( sspstat == 0b00000101 )
  4740  0258  0875               	movf	(isr@sspstat),w
  4741  0259  3A05               	xorlw	05h&0ffh
  4742  025A  1D03               	skipz
  4743  025B  2A5D               	goto	u367_21
  4744  025C  2A5E               	goto	u367_20
  4745  025D                     u367_21:
  4746  025D  2A69               	goto	i1l5649
  4747  025E                     u367_20:
  4748                           	line	616
  4749                           	
  4750  025E                     i1l5641:	
  4751                           ;newmain.c: 614: {
  4752                           ;newmain.c: 616: LATCbits.LATC5 = 1 ;
  4753  025E  0022               	movlb 2	; select bank2
  4754  025F  168E               	bsf	(270)^0100h,5	;volatile
  4755                           	line	617
  4756                           	
  4757  0260                     i1l5643:	
  4758                           ;newmain.c: 617: SSPBUF = i2c_tx_buff[0];
  4759  0260  0021               	movlb 1	; select bank1
  4760  0261  0858               	movf	(_i2c_tx_buff)^080h,w
  4761  0262  0024               	movlb 4	; select bank4
  4762  0263  0091               	movwf	(529)^0200h	;volatile
  4763                           	line	618
  4764                           	
  4765  0264                     i1l5645:	
  4766                           ;newmain.c: 618: SSPCON1bits.CKP=1;
  4767  0264  1615               	bsf	(533)^0200h,4	;volatile
  4768                           	line	619
  4769                           	
  4770  0265                     i1l5647:	
  4771                           ;newmain.c: 619: buff_idx = 1;
  4772  0265  01F6               	clrf	(isr@buff_idx)
  4773  0266  1403               	bsf	status,0
  4774  0267  0DF6               	rlf	(isr@buff_idx),f
  4775                           	line	620
  4776                           ;newmain.c: 620: }
  4777  0268  2A8D               	goto	i1l1964
  4778                           	line	621
  4779                           	
  4780  0269                     i1l1959:	
  4781                           	
  4782  0269                     i1l5649:	
  4783                           ;newmain.c: 621: else if (( sspstat == 0b00100100 )&&(!SSPCON2bits.ACKSTAT))
  4784  0269  0875               	movf	(isr@sspstat),w
  4785  026A  3A24               	xorlw	024h&0ffh
  4786  026B  1D03               	skipz
  4787  026C  2A6E               	goto	u368_21
  4788  026D  2A6F               	goto	u368_20
  4789  026E                     u368_21:
  4790  026E  2A87               	goto	i1l1961
  4791  026F                     u368_20:
  4792                           	
  4793  026F                     i1l5651:	
  4794  026F  1B16               	btfsc	(534)^0200h,6	;volatile
  4795  0270  2A72               	goto	u369_21
  4796  0271  2A73               	goto	u369_20
  4797  0272                     u369_21:
  4798  0272  2A87               	goto	i1l1961
  4799  0273                     u369_20:
  4800                           	line	623
  4801                           	
  4802  0273                     i1l5653:	
  4803                           ;newmain.c: 622: {
  4804                           ;newmain.c: 623: SSPBUF = i2c_tx_buff[buff_idx];
  4805  0273  0876               	movf	(isr@buff_idx),w
  4806  0274  3ED8               	addlw	_i2c_tx_buff&0ffh
  4807  0275  0086               	movwf	fsr1l
  4808  0276  0187               	clrf fsr1h	
  4809                           	
  4810  0277  0801               	movf	indf1,w
  4811  0278  0091               	movwf	(529)^0200h	;volatile
  4812                           	line	624
  4813                           	
  4814  0279                     i1l5655:	
  4815                           ;newmain.c: 624: SSPCON1bits.CKP = 1;
  4816  0279  1615               	bsf	(533)^0200h,4	;volatile
  4817                           	line	625
  4818                           	
  4819  027A                     i1l5657:	
  4820                           ;newmain.c: 625: if (++buff_idx == sizeof(i2c_tx_buff))
  4821  027A  3001               	movlw	(01h)
  4822  027B  00F0               	movwf	(??_isr+0)+0
  4823  027C  0870               	movf	(??_isr+0)+0,w
  4824  027D  07F6               	addwf	(isr@buff_idx),f
  4825  027E  0876               	movf	((isr@buff_idx)),w
  4826  027F  3A08               	xorlw	08h&0ffh
  4827  0280  1D03               	skipz
  4828  0281  2A83               	goto	u370_21
  4829  0282  2A84               	goto	u370_20
  4830  0283                     u370_21:
  4831  0283  2A8D               	goto	i1l1964
  4832  0284                     u370_20:
  4833                           	line	627
  4834                           	
  4835  0284                     i1l5659:	
  4836                           ;newmain.c: 626: {
  4837                           ;newmain.c: 627: buff_idx = 0;
  4838  0284  01F6               	clrf	(isr@buff_idx)
  4839  0285  2A8D               	goto	i1l1964
  4840                           	line	628
  4841                           	
  4842  0286                     i1l1962:	
  4843                           	line	629
  4844                           ;newmain.c: 628: }
  4845                           ;newmain.c: 629: }
  4846  0286  2A8D               	goto	i1l1964
  4847                           	line	630
  4848                           	
  4849  0287                     i1l1961:	
  4850                           	line	632
  4851                           ;newmain.c: 630: else
  4852                           ;newmain.c: 631: {
  4853                           ;newmain.c: 632: SSPCON1bits.CKP=1;
  4854  0287  1615               	bsf	(533)^0200h,4	;volatile
  4855  0288  2A8D               	goto	i1l1964
  4856                           	line	633
  4857                           	
  4858  0289                     i1l1963:	
  4859  0289  2A8D               	goto	i1l1964
  4860                           	
  4861  028A                     i1l1960:	
  4862  028A  2A8D               	goto	i1l1964
  4863                           	
  4864  028B                     i1l1958:	
  4865  028B  2A8D               	goto	i1l1964
  4866                           	
  4867  028C                     i1l1955:	
  4868  028C  2A8D               	goto	i1l1964
  4869                           	line	634
  4870                           	
  4871  028D                     i1l1953:	
  4872                           	line	636
  4873                           	
  4874  028D                     i1l1964:	
  4875  028D  0874               	movf	(??_isr+4),w
  4876  028E  0020               	movlb 0	; select bank0
  4877  028F  00FF               	movwf	btemp+1
  4878  0290  0009               	retfie
  4879                           	opt stack 0
  4880                           GLOBAL	__end_of_isr
  4881  0291                     	__end_of_isr:
  4882 ;; =============== function _isr ends ============
  4883                           
  4884                           	signat	_isr,88
  4885                           psect	intentry
  4886                           	global	btemp
  4887  007E                     	btemp set 07Eh
  4888                           
  4889                           	DABS	1,126,2	;btemp
  4890                           	global	wtemp0
  4891  007E                     	wtemp0 set btemp


HI-TECH Software PICC Macro Assembler V9.83 build 10920 
Symbol Table                                                                                   Mon Nov 17 15:17:50 2014

                       _RD 0CA8                         _WR 0CA9               ___awdiv@sign 0057  
                      _GIE 005F                        _isr 0004               ___awmod@sign 0057  
                      wreg 0009                       l1901 02B1                       l1910 0345  
                     l1902 02B9                       l1911 0364                       l1903 02FF  
                     l1920 0409                       l1912 03A4                       l1904 02D8  
                     l6001 04F0                       l1921 0449                       l1913 037C  
                     l1905 02F6                       l1850 0683                       l1922 0421  
                     l1914 039B                       l1906 0336                       l1851 0664  
                     l1843 0640                       l6011 0518                       l6003 04FE  
                     l1923 0440                       l1915 03DB                       l1907 030E  
                     l1860 06AB                       l1844 0686                       l1852 0682  
                     l1924 0480                       l1916 03B3                       l1908 032D  
                     l1861 06B3                       l1853 066D                       l1845 0649  
                     l6021 0536                       l6013 051C                       l6005 0502  
                     l1925 0458                       l1917 03D2                       l1909 036D  
                     l1862 06C5                       l1846 0685                       l1854 0681  
                     l1926 0477                       l1918 0412                       l1855 0676  
                     l1847 0652                       l1871 0FE3                       l1927 055A  
                     l6031 0554                       l6023 053A                       l6015 0520  
                     l6007 0506                       l1919 03EA                       l1848 0684  
                     l1856 0680                       l1872 0FE3                       l1928 055B  
                     l1857 067F                       l1849 065B                       l1865 07FE  
                     l1873 0FE9                       l1929 055B                       l6025 053E  
                     l6017 0524                       l6009 050A                       l1858 0697  
                     l1874 0FED                       l1890 05A1                       l1859 06C5  
                     l1891 05D9                       l6027 054C                       l6019 0532  
                     l1868 0FFF                       l1892 05F6                       l5501 07F4  
                     l1893 05EA                       l1885 0581                       l6029 0550  
                     l1894 05E5                       l1886 0586                       l5503 07F5  
                     l5511 0FEE                       l1895 05F5                       l1887 05A0  
                     l1896 0603                       l1888 0635                       l5441 0646  
                     l5433 0636                       l5505 07FA                       l5513 0FF8  
                     l5521 0FE2                       l1897 0618                       l1889 05D1  
                     l3850 0765                       l1898 0635                       l5451 065B  
                     l5443 0649                       l5435 0639                       l5507 07FB  
                     l5515 0FFA                       l5523 0FE9                       l3851 0766  
                     l3780 06F9                       l3852 0775                       l5461 0673  
                     l5453 0661                       l5445 064F                       l5437 063E  
                     l5509 07FD                       l5517 0FFB                       l3781 06EF  
                     l3853 0781                       l3845 0742                       l5701 0733  
                     l3782 06FE                       l3854 078C                       l3846 074C  
                     l5471 0696                       l5463 0676                       l5455 0664  
                     l5447 0652                       l5439 0640                       l5519 0FFD  
                     l3783 06FF                       l3855 0793                       l3847 0782  
                     l5711 0752                       l5703 0739                       l3784 0714  
                     l3848 0760                       l5481 06B7                       l5473 0697  
                     l5465 067C                       l5457 066A                       l5449 0658  
                     l3785 0720                       l3777 06D5                       l5721 0770  
                     l5713 0756                       l3849 0756                       l5705 0742  
                     l5801 02A4                       l3786 072B                       l3778 06E3  
                     l5475 06A5                       l5459 066D                       l5467 0686  
                     l5491 07DF                       l5483 07CB                       l3787 0732  
                     l3779 0721                       l5731 078C                       l5723 0775  
                     l5715 075B                       l5707 0746                       l5811 02AC  
                     l5803 02A5                       l5477 06AB                       l5469 0688  
                     l5493 07E8                       l5485 07CD                       l5661 06C6  
                     l5733 0793                       l5725 077A                       l5717 0760  
                     l5709 074C                       l5741 0572                       l5901 03B3  
                     l5821 02C0                       l5813 02AF                       l5805 02A6  
                     l5479 06B3                       l5495 07EB                       l5487 07D3  
                     l5671 06E3                       l5663 06CC                       l5719 0766  
                     l5727 0782                       l5751 058D                       l5743 0576  
                     l5735 055D                       l5903 03C7                       l5911 03DB  
                     l5831 02EB                       l5823 02C7                       l5815 02B7  
                     l5807 02A7                       l5497 07EF                       l5489 07D9  
                     l5681 06F9                       l5673 06E5                       l5665 06D5  
                     l5729 0786                       l5761 05CC                       l5753 059A  
                     l5745 057A                       l5737 056B                       l5921 03FE  
                     l5913 03E1                       l5905 03CB                       l5841 0305  
                     l5833 02EF                       l5825 02CF                       l5817 02B9  
                     l5809 02A9                       l5499 07F0                       l5691 0719  
                     l5683 06FF                       l5675 06EB                       l5667 06D9  
                     l5771 05EA                       l5755 059F                       l5763 05D1  
                     l5747 0581                       l5739 0570                       l5931 0418  
                     l5923 0402                       l5915 03E2                       l5907 03D2  
                     l5851 0326                       l5843 0306                       l5827 02D7  
                     l5835 02F6                       l5819 02BD                       ?_isr 0070  
                     l5685 070E                       l5677 06EF                       l5693 0721  
                     l5669 06DE                       l5781 0622                       l5773 05F6  
                     l5765 05D9                       l5757 05A1                       l5749 0586  
                     l5941 0439                       l5933 0419                       l5917 03E9  
                     l5925 0409                       l5909 03D9                       l5861 033D  
                     l5845 030D                       l5853 032D                       l5837 02FD  
                     l5829 02D8                       l5695 0725                       l5687 0712  
                     l5679 06F4                       l5783 0627                       l5775 0609  
                     l5767 05E4                       l5759 05B8                       l5951 0450  
                     l5935 0420                       l5943 0440                       l5927 0410  
                     l5919 03EA                       l5863 0344                       l5871 0364  
                     l5855 0334                       l5847 030E                       l5839 02FF  
                     l5791 029C                       l5697 072B                       l5689 0714  
                     l5777 0617                       l5769 05E5                       l5953 0457  
                     l5961 0477                       l5945 0447                       l5937 0421  
                     l5929 0412                       l5881 037B                       l5873 036B  
                     l5865 0345                       l5849 0322                       l5857 0336  
                     l5793 029E                       l5785 0294                       l5699 0732  
                     l5779 0618                       l5971 0496                       l5963 047E  
                     l5955 0458                       l5939 0435                       l5947 0449  
                     l5891 03A2                       l5883 037C                       l5867 0359  
                     l5859 033C                       l5875 036D                       l5795 029F  
                     l5787 0298                       l5981 04B4                       l5973 049A  
                     l5957 046C                       l5949 044F                       l5965 0480  
                     l5885 0390                       l5877 0373                       l5893 03A4  
                     l5869 035D                       l5797 02A1                       l5789 029B  
                     l5991 04D2                       l5983 04B8                       l5975 049E  
                     l5967 0484                       l5959 0470                       l5895 03AA  
                     l5887 0394                       l5879 0374                       l5799 02A2  
                     l5993 04D6                       l5985 04BC                       l5977 04A2  
                     l5969 0488                       l5897 03AB                       l5889 039B  
                     l5995 04E4                       l5987 04CA                       l5979 04B0  
                     l5899 03B2                       l5997 04E8                       l5989 04CE  
                     l5999 04EC                       _LATB 010D                       u3200 064F  
                     u4000 02C7                       u3201 064E                       u4001 02C6  
                     u3210 0658                       u4010 02D6                       u3211 0657  
                     u4011 02D5                       u3220 0661                       u4100 033C  
                     u3221 0660                       u4101 033B                       u3230 066A  
                     u4110 0343                       u4030 02F5                       u3231 0669  
                     u4111 0342                       u4031 02F4                       u3240 0673  
                     u4200 03AA                       u3241 0672                       u4201 03A9  
                     u4025 02DB                       u3250 067C                       u4210 03B1  
                     u4130 0363                       u4050 0305                       u3251 067B  
                     u4211 03B0                       u4131 0362                       u4051 0304  
                     u3260 0695                       u3180 063E                       u4300 0418  
                     u4060 030C                       u3261 0694                       u3181 063D  
                     u4301 0417                       u4125 0348                       u4061 030B  
                     u4045 02F7                       u3270 06A5                       u3190 0646  
                     u4310 041F                       u4230 03D1                       u4150 0373  
                     u3271 06A4                       u3191 0645                       u4311 041E  
                     u4231 03D0                       u4151 0372                       u3280 06C4  
                     u4160 037A                       u4080 032C                       u3281 06C3  
                     u3265 0691                       u4225 03B6                       u4161 0379  
                     u4145 0365                       u4081 032B                       u3290 0FE8  
                     u4330 043F                       u4250 03E1                       u3275 06A1  
                     u3291 0FE7                       u4331 043E                       u4251 03E0  
                     u4075 0311                       u4260 03E8                       u4180 039A  
                     u3285 06C0                       u4325 0424                       u4261 03E7  
                     u4245 03D3                       u4181 0399                       u3710 06CC  
                     u4350 044F                       u3711 06CB                       u4351 044E  
                     u4175 037F                       u4095 032E                       u3800 0725  
                     u3720 06D9                       u4360 0456                       u4280 0408  
                     u3721 06D8                       u4361 0455                       u4345 0441  
                     u4281 0407                       u3730 06EB                       u3810 0739  
                     u3731 06EA                       u3811 0738                       u4275 03ED  
                     u4195 039C                       u3820 0746                       u3900 0567  
                     u4380 0476                       u3821 0745                       u4381 0475  
                     u3750 06FD                       u3830 0752                       u3910 0576  
                     u3751 06FC                       u3831 0751                       u3911 0575  
                     u4375 045B                       u4295 040A                       u3920 058D  
                     u3745 06F0                       u3921 058C                       u3770 070E  
                     u3850 0764                       u3930 059A                       u3771 070D  
                     u3851 0763                       u3931 0599                       u4395 0478  
                     u3860 0770                       u3940 05D8                       u3765 0700  
                     u3861 076F                       u3845 0757                       u3941 05D7  
                     u3790 071F                       u3950 05E3                       u3791 071E  
                     u3775 070A                       u3951 05E2                       u3935 0596  
                     u3880 0780                       u3960 05F4                       u3785 0715  
                     u3881 077F                       u3865 076C                       u3961 05F3  
                     u3890 0786                       u3970 0616                       u3875 0776  
                     u3971 0615                       u3955 05DF                       u3980 0634  
                     u3981 0633                       u3990 02B7                       u3975 0612  
                     u3991 02B6                       u3985 0630                       _TMR0 0015  
                     _WREN 0CAA     __end_of_USARTWriteChar 0FEE                       _main 0294  
                     fsr0h 0005                       fsr1h 0007                       fsr0l 0004  
                     indf0 0000                       indf1 0001                       fsr1l 0006  
                     btemp 007E             ?_USARTWriteInt 005A                       start 0291  
                    ??_isr 0070                      ?_main 0070            __end_of___awdiv 0733  
                    _EEADR 0191            __end_of___awmod 0794                      _CARRY 0018  
         USARTWriteChar@ch 0051            ___awdiv@divisor 0051                      _T1CON 0018  
                    _T1GGO 00CB            ___awdiv@counter 0056                      _TMR1H 0017  
                    _TMR1L 0016                      _TRISA 008C                      _TRISB 008D  
                    _TRISC 008E                      _SSPIE 048B                      _SSPIF 008B  
                    _TXREG 019A           USARTWriteInt@val 005A           USARTWriteInt@str 0060  
                    _count 0048                      _thold 02C0                      main@i 006D  
                    main@j 006E                      isr@no 0077               main@tholdflg 006B  
          ?_USARTWriteChar 0070                      status 0003                      wtemp0 007E  
             ?_scanchannel 0070       __size_of_capsensinit 0034               __end_of_main 055D  
                   ??_main 0069                     _ADCON0 009D                     _ADCON1 009E  
                   _EEDATA 0193                     _EECON1 0195                     _EECON2 0196  
         ___awdiv@dividend 0053                isr@buff_idx 0076                     _ANSELA 018C  
                   _ANSELB 018D                     _T1GCON 0019                     i1l1940 00CE  
                   i1l1932 0011                     i1l1941 0106                     i1l1933 003F  
                   i1l1950 01E1                     i1l1942 0105                     i1l1934 0035  
                   i1l1951 0219                     i1l1943 013D                     i1l1935 0048  
                   i1l1960 028A                     i1l1936 0220                     i1l1952 0218  
                   i1l1944 013C                     i1l1953 028D                     i1l1961 0287  
                   i1l1945 0174                     i1l1937 0098                     i1l1962 0286  
                   i1l1954 023B                     i1l1946 0173                     i1l1938 0097  
                   i1l1955 028C                     i1l1963 0289                     i1l1947 01AB  
                   i1l1939 00CF                     i1l1956 0258                     i1l1964 028D  
                   i1l1948 01AA                     i1l1957 0257                     i1l1949 01E2  
                   i1l1958 028B                     i1l1959 0269                     i1l5601 01E2  
                   i1l5611 021B                     i1l5603 01E8                     i1l5621 022A  
                   i1l5613 021C                     i1l5605 0212                     i1l5541 001C  
                   i1l5533 0008                     i1l5631 0241                     i1l5623 022C  
                   i1l5615 021E                     i1l5607 0219                     i1l5551 004C  
                   i1l5543 0035                     i1l5535 0009                     i1l5641 025E  
                   i1l5633 0249                     i1l5625 0232                     i1l5609 021A  
                   i1l5561 0068                     i1l5553 0051                     i1l5617 0220  
                   i1l5545 0039                     i1l5537 0010                     i1l5651 026F  
                   i1l5643 0260                     i1l5635 024A                     i1l5627 0238  
                   i1l5619 0225                     i1l5571 00CF                     i1l5563 0091  
                   i1l5555 0053                     i1l5547 0043                     i1l5539 0011  
                   i1l5653 0273                     i1l5645 0264                     i1l5637 0254  
                   i1l5629 023B                     i1l5581 0136                     i1l5573 00D5  
                   i1l5565 0098                     i1l5557 0054                     i1l5549 0047  
                   i1l5655 0279                     i1l5647 0265                     i1l5639 0258  
                   i1l5591 017A                     i1l5583 013D                     i1l5575 00FF  
                   i1l5567 009E                     i1l5559 0063                     i1l5657 027A  
                   i1l5649 0269                     i1l5593 01A4                     i1l5585 0143  
                   i1l5577 0106                     i1l5569 00C8                     i1l5659 0284  
                   i1l5595 01AB                     i1l5587 016D                     i1l5579 010C  
                   i1l5597 01B1                     i1l5589 0174                     i1l5599 01DB  
                   u331_20 000F                     u331_21 000E                     u340_20 0091  
                   u332_20 001C                     u340_21 0090                     u332_21 001B  
                   u341_20 009E                     u333_20 003F                     u341_21 009D  
                   u333_21 003E                     u350_20 0143                     u334_20 0043  
                   u350_21 0142                     u334_21 0042                     u342_25 00A5  
                   u343_20 00C8                     u335_20 0047                     u343_21 00C7  
                   u335_21 0046                     u351_25 014A                     u352_20 016D  
                   u344_20 00D5                     u336_20 004C                     u352_21 016C  
                   u344_21 00D4                     u336_21 004B                     u360_25 01EF  
                   u361_20 0212                     u353_20 017A                     u337_20 0051  
                   u361_21 0211                     u353_21 0179                     u337_21 0050  
                   u345_25 00DC                     u370_20 0284                     u362_20 0225  
                   u346_20 00FF                     u338_20 0068                     u370_21 0283  
                   u362_21 0224                     u346_21 00FE                     u338_21 0067  
                   u354_25 0181                     u363_20 022A                     u355_20 01A4  
                   u347_20 010C                     u363_21 0229                     u355_21 01A3  
                   u347_21 010B                     u339_25 006F                     u364_20 0238  
                   u356_20 01B1                     u364_21 0237                     u356_21 01B0  
                   u348_25 0113                     u365_20 0241                     u349_20 0136  
                   u365_21 0240                     u349_21 0135                     u357_25 01B8  
                   u366_20 0254                     u358_20 01DB                     u366_21 0253  
                   u358_21 01DA                     u367_20 025E                     u359_20 01E8  
                   u367_21 025D                     u359_21 01E7                     u368_20 026F  
                   u368_21 026E                     u369_20 0273                     u369_21 0272  
                   _OSCCON 0099                     _TMR0IE 005D                     _TMR0IF 005A  
                   _TMR1IE 0488                     _TMR1IF 0088                     _SPBRGH 019C  
                   _TMR1ON 00C0                     _SPBRGL 019B            ??_USARTWriteInt 005E  
                   _SSPBUF 0211                  ??___awdiv 0055                  ??___awmod 0055  
         ___awdiv@quotient 0058            ___awmod@divisor 0051            ___awmod@counter 0056  
                   clrloop 0FDB             __pcstackCOMMON 0070                _i2c_rx_buff 00D0  
              _i2c_tx_buff 00D8                 __pbssBANK0 0020                 __pbssBANK1 00A0  
               __pbssBANK2 0120                 __pbssBANK3 01A0                 __pbssBANK4 0220  
               __pbssBANK5 02A0       __size_of_scanchannel 0090                 __pmaintext 0294  
               __pintentry 0004  USARTWriteInt@field_length 005C                    _CPSCON0 001E  
                  _CPSCON1 001F                    _OSCTUNE 0098                    _TMR1GIE 048F  
                  _TMR1GIF 008F           ??_USARTWriteChar 0051         USARTWriteInt@F3416 00E0  
                  _SSPSTAT 0214         __size_of_usartinit 0012                    ___awdiv 06C6  
                  ___awmod 0733                    _debounc 00C0                    _avgflag 0040  
                  _average 0020               __size_of_isr 028D           ___awmod@dividend 0053  
     end_of_initialization 07C8              ??_capsensinit 0051                  _RCSTAbits 019D  
        __end_of_usartinit 1000                  _TRISCbits 008E                  _TXSTAbits 019E  
           USARTWriteInt@i 0067             USARTWriteInt@j 0065      __end_of_USARTWriteInt 0636  
               main@tcount 006C        __end_of_capsensinit 07FF        start_initialization 0794  
             scanchannel@i 0053                __end_of_isr 0291                 isr@sspstat 0075  
              __pbssCOMMON 0078              __pcstackBANK0 0051                _capsensinit 07CB  
            ??_scanchannel 0051                  _channelno 0050                   ?___awdiv 0051  
                __ptext260 0FE0                  __ptext261 0FEE                  __ptext262 07CB  
                __ptext263 0636                  __ptext257 055D                  __ptext258 0733  
                __ptext259 06C6                   ?___awmod 0051                   _LATCbits 010E  
                 _PIE1bits 0091                   _PIR1bits 0011        __end_of_scanchannel 06C6  
                main@keyno 006A                  _usartinit 0FEE    __size_of_USARTWriteChar 000E  
         __size_of___awdiv 006D           __size_of___awmod 0061                _curreading0 00A0  
              _curreading1 0120                _curreading2 0140                _curreading3 01A0  
              _curreading4 01C0                _curreading5 0220                _curreading6 0240  
              _curreading7 02A0                 ?_usartinit 0070              __size_of_main 02C9  
              _scanchannel 0636                   clear_ram 0FDA     __size_of_USARTWriteInt 00D9  
              _raw_reading 0078                   intlevel1 0000               ?_capsensinit 0070  
               _OPTION_REG 0095                ??_usartinit 0051                _SSPCON1bits 0215  
              _SSPCON2bits 0216             _USARTWriteChar 0FE0              _USARTWriteInt 055D  
