

HI-TECH Software LITE Macro Assembler (PIC18) V9.65 build 7190 
                                                       Tue Apr 07 13:46:09 2015

HI-TECH Software Omniscient Code Generator build 7190
     1  000000                     opt subtitle "HI-TECH Software Omniscient Code G
                                 enerator build 7190"
     2                           
     3                           	processor	18F4620
     4  000000                     porta	equ	0F80h
     5  000000                     portb	equ	0F81h
     6  000000                     portc	equ	0F82h
     7  000000                     portd	equ	0F83h
     8  000000                     porte	equ	0F84h
     9  000000                     lata	equ	0F89h
    10  000000                     latb	equ	0F8Ah
    11  000000                     latc	equ	0F8Bh
    12  000000                     latd	equ	0F8Ch
    13  000000                     late	equ	0F8Dh
    14  000000                     trisa	equ	0F92h
    15  000000                     trisb	equ	0F93h
    16  000000                     trisc	equ	0F94h
    17  000000                     trisd	equ	0F95h
    18  000000                     trise	equ	0F96h
    19  000000                     pie1	equ	0F9Dh
    20  000000                     pir1	equ	0F9Eh
    21  000000                     ipr1	equ	0F9Fh
    22  000000                     pie2	equ	0FA0h
    23  000000                     pir2	equ	0FA1h
    24  000000                     ipr2	equ	0FA2h
    25  000000                     t3con	equ	0FB1h
    26  000000                     tmr3l	equ	0FB2h
    27  000000                     tmr3h	equ	0FB3h
    28  000000                     ccp1con	equ	0FBDh
    29  000000                     ccpr1l	equ	0FBEh
    30  000000                     ccpr1h	equ	0FBFh
    31  000000                     adcon1	equ	0FC1h
    32  000000                     adcon0	equ	0FC2h
    33  000000                     adresl	equ	0FC3h
    34  000000                     adresh	equ	0FC4h
    35  000000                     sspcon2	equ	0FC5h
    36  000000                     sspcon1	equ	0FC6h
    37  000000                     sspstat	equ	0FC7h
    38  000000                     sspadd	equ	0FC8h
    39  000000                     sspbuf	equ	0FC9h
    40  000000                     t2con	equ	0FCAh
    41  000000                     pr2	equ	0FCBh
    42  000000                     tmr2	equ	0FCCh
    43  000000                     t1con	equ	0FCDh
    44  000000                     tmr1l	equ	0FCEh
    45  000000                     tmr1h	equ	0FCFh
    46  000000                     rcon	equ	0FD0h
    47  000000                     wdtcon	equ	0FD1h
    48  000000                     lvdcon	equ	0FD2h
    49  000000                     osccon	equ	0FD3h
    50  000000                     t0con	equ	0FD5h
    51  000000                     tmr0l	equ	0FD6h
    52  000000                     tmr0h	equ	0FD7h
    53  000000                     status	equ	0FD8h
    54  000000                     fsr2	equ	0FD9h
    55  000000                     fsr2l	equ	0FD9h
    56  000000                     fsr2h	equ	0FDAh
    57  000000                     plusw2	equ	0FDBh
    58  000000                     preinc2	equ	0FDCh
    59  000000                     postdec2	equ	0FDDh
    60  000000                     postinc2	equ	0FDEh
    61  000000                     indf2	equ	0FDFh
    62  000000                     bsr	equ	0FE0h
    63  000000                     fsr1	equ	0FE1h
    64  000000                     fsr1l	equ	0FE1h
    65  000000                     fsr1h	equ	0FE2h
    66  000000                     plusw1	equ	0FE3h
    67  000000                     preinc1	equ	0FE4h
    68  000000                     postdec1	equ	0FE5h
    69  000000                     postinc1	equ	0FE6h
    70  000000                     indf1	equ	0FE7h
    71  000000                     wreg	equ	0FE8h
    72  000000                     fsr0	equ	0FE9h
    73  000000                     fsr0l	equ	0FE9h
    74  000000                     fsr0h	equ	0FEAh
    75  000000                     plusw0	equ	0FEBh
    76  000000                     preinc0	equ	0FECh
    77  000000                     postdec0	equ	0FEDh
    78  000000                     postinc0	equ	0FEEh
    79  000000                     indf0	equ	0FEFh
    80  000000                     intcon3	equ	0FF0h
    81  000000                     intcon2	equ	0FF1h
    82  000000                     intcon	equ	0FF2h
    83  000000                     prod	equ	0FF3h
    84  000000                     prodl	equ	0FF3h
    85  000000                     prodh	equ	0FF4h
    86  000000                     tablat	equ	0FF5h
    87  000000                     tblptr	equ	0FF6h
    88  000000                     tblptrl	equ	0FF6h
    89  000000                     tblptrh	equ	0FF7h
    90  000000                     tblptru	equ	0FF8h
    91  000000                     pcl	equ	0FF9h
    92  000000                     pclat	equ	0FFAh
    93  000000                     pclath	equ	0FFAh
    94  000000                     pclatu	equ	0FFBh
    95  000000                     stkptr	equ	0FFCh
    96  000000                     tosl	equ	0FFDh
    97  000000                     tosh	equ	0FFEh
    98  000000                     tosu	equ	0FFFh
    99                           	global	__ramtop
   100                           	global	__accesstop
   101                           # 27 "main.c"
   102                           	global __config1 ;#
   103                           # 27 "main.c"
   104  000000                     	__config1 equ 0xFFFF & 0xFFFF & 0xF0FF ;#
   105                           # 28 "main.c"
   106                           	global __config2 ;#
   107                           # 28 "main.c"
   108  000000                     	__config2 equ 0xFFF9 & 0xFFFF & 0xFEFF ;#
   109                           # 29 "main.c"
   110                           	global __config3 ;#
   111                           # 29 "main.c"
   112  000000                     	__config3 equ 0x7FFF & 0xFFFF & 0xFDFF & 0xFFFF
                                  ;#
   113                           # 30 "main.c"
   114                           	global __config4 ;#
   115                           # 30 "main.c"
   116  000000                     	__config4 equ 0xFFFF & 0xFFFF & 0xFFFF & 0xFFFE
                                  ;#
   117                           # 31 "main.c"
   118                           	global __config5 ;#
   119                           # 31 "main.c"
   120  000000                     	__config5 equ 0xFFFF ;#
   121                           # 32 "main.c"
   122                           	global __config6 ;#
   123                           # 32 "main.c"
   124  000000                     	__config6 equ 0xFFFF ;#
   125                           # 33 "main.c"
   126                           	global __config7 ;#
   127                           # 33 "main.c"
   128  000000                     	__config7 equ 0xBFFF ;#
   129                           	GLOBAL	__activetblptr
   130  000000                     __activetblptr	EQU	3
   131                           	GLOBAL	__smallconst,__Lsmallconst
   132  000000                     __smallconst	EQU	__Lsmallconst
   133                           	GLOBAL	__mediumconst,__Lmediumconst
   134  000000                     __mediumconst	EQU	__Lmediumconst
   135                           	GLOBAL	__Ldata
   136  000000                     __Ldata	EQU	87
   137  000000                     _main$933	equ	??_main+0
   138                           	global	_main$933
   139  000000                     main@ret	equ	??_main+4
   140                           	global	main@ret
   141  000000                     main@i	equ	??_main+6
   142                           	global	main@i
   143  000000                     Navigate@max	equ	??_Navigate+0
   144                           	global	Navigate@max
   145  000000                     Navigate@cur_dig	equ	??_Navigate+2
   146                           	global	Navigate@cur_dig
   147  000000                     Navigate@i	equ	??_Navigate+4
   148                           	global	Navigate@i
   149  000000                     Navigate@key	equ	?_Navigate+0
   150                           	global	Navigate@key
   151  000000                     Navigate@statevariable	equ	?_Navigate+2
   152                           	global	Navigate@statevariable
   153  000000                     waitkey@detected	equ	??_waitkey+0
   154                           	global	waitkey@detected
   155  000000                     getkey@detected	equ	??_getkey+0
   156                           	global	getkey@detected
   157  000000                     dispnum@i	equ	??_dispnum+0
   158                           	global	dispnum@i
   159  000000                     dispnum@number	equ	?_dispnum+0
   160                           	global	dispnum@number
   161  000000                     dispnum@pos	equ	?_dispnum+2
   162                           	global	dispnum@pos
   163  000000                     ___awtoft@f1	equ	??___awtoft+0
   164                           	global	___awtoft@f1
   165  000000                     ___awtoft@c	equ	?___awtoft+0
   166                           	global	___awtoft@c
   167  000000                     _pid$951	equ	??_pid+0
   168                           	global	_pid$951
   169  000000                     _pid$952	equ	??_pid+3
   170                           	global	_pid$952
   171  000000                     _pid$953	equ	??_pid+6
   172                           	global	_pid$953
   173  000000                     currenttemp@temp	equ	??_currenttemp+0
   174                           	global	currenttemp@temp
   175  000000                     _actual$972	equ	??_actual+0
   176                           	global	_actual$972
   177  000000                     actual@i	equ	??_actual+3
   178                           	global	actual@i
   179  000000                     actual@slope	equ	??_actual+5
   180                           	global	actual@slope
   181  000000                     actual@tmp2	equ	??_actual+8
   182                           	global	actual@tmp2
   183  000000                     actual@vtg2	equ	??_actual+11
   184                           	global	actual@vtg2
   185  000000                     actual@tmp1	equ	??_actual+14
   186                           	global	actual@tmp1
   187  000000                     actual@vtg1	equ	??_actual+17
   188                           	global	actual@vtg1
   189  000000                     actual@actualtmp	equ	??_actual+20
   190                           	global	actual@actualtmp
   191  000000                     actual@actualvtg	equ	?_actual+0
   192                           	global	actual@actualvtg
   193  000000                     actual@t	equ	?_actual+3
   194                           	global	actual@t
   195  000000                     ___ftneg@f1	equ	?___ftneg+0
   196                           	global	___ftneg@f1
   197  000000                     ___awmod@sign	equ	??___awmod+0
   198                           	global	___awmod@sign
   199  000000                     ___awmod@counter	equ	??___awmod+1
   200                           	global	___awmod@counter
   201  000000                     ___awmod@dividend	equ	?___awmod+0
   202                           	global	___awmod@dividend
   203  000000                     ___awmod@divisor	equ	?___awmod+2
   204                           	global	___awmod@divisor
   205  000000                     Display@i	equ	??_Display+0
   206                           	global	Display@i
   207  000000                     Display@str	equ	?_Display+0
   208                           	global	Display@str
   209  000000                     Display@pos	equ	?_Display+2
   210                           	global	Display@pos
   211  000000                     ___awdiv@counter	equ	??___awdiv+0
   212                           	global	___awdiv@counter
   213  000000                     ___awdiv@sign	equ	??___awdiv+1
   214                           	global	___awdiv@sign
   215  000000                     ___awdiv@quotient	equ	??___awdiv+2
   216                           	global	___awdiv@quotient
   217  000000                     ___awdiv@dividend	equ	?___awdiv+0
   218                           	global	___awdiv@dividend
   219  000000                     ___awdiv@divisor	equ	?___awdiv+2
   220                           	global	___awdiv@divisor
   221  000000                     ___fttol@sign1	equ	??___fttol+0
   222                           	global	___fttol@sign1
   223  000000                     ___fttol@exp1	equ	??___fttol+1
   224                           	global	___fttol@exp1
   225  000000                     ___fttol@lval	equ	??___fttol+2
   226                           	global	___fttol@lval
   227  000000                     ___fttol@f1	equ	?___fttol+0
   228                           	global	___fttol@f1
   229  000000                     ___ftdiv@exp2	equ	??___ftdiv+0
   230                           	global	___ftdiv@exp2
   231  000000                     ___ftdiv@sign1	equ	??___ftdiv+1
   232                           	global	___ftdiv@sign1
   233  000000                     ___ftdiv@exp1	equ	??___ftdiv+2
   234                           	global	___ftdiv@exp1
   235  000000                     ___ftdiv@sign2	equ	??___ftdiv+3
   236                           	global	___ftdiv@sign2
   237  000000                     ___ftdiv@f3	equ	??___ftdiv+4
   238                           	global	___ftdiv@f3
   239  000000                     ___ftdiv@f1	equ	?___ftdiv+0
   240                           	global	___ftdiv@f1
   241  000000                     ___ftdiv@f2	equ	?___ftdiv+3
   242                           	global	___ftdiv@f2
   243  000000                     lcd_command@cmd	equ	?_lcd_command+0
   244                           	global	lcd_command@cmd
   245  000000                     ___ftge@ff1	equ	?___ftge+0
   246                           	global	___ftge@ff1
   247  000000                     ___ftge@ff2	equ	?___ftge+3
   248                           	global	___ftge@ff2
   249  000000                     ___ftmul@sign1	equ	??___ftmul+0
   250                           	global	___ftmul@sign1
   251  000000                     ___ftmul@exp1	equ	??___ftmul+1
   252                           	global	___ftmul@exp1
   253  000000                     ___ftmul@cntr	equ	??___ftmul+2
   254                           	global	___ftmul@cntr
   255  000000                     ___ftmul@f3	equ	??___ftmul+3
   256                           	global	___ftmul@f3
   257  000000                     ___ftmul@f1	equ	?___ftmul+0
   258                           	global	___ftmul@f1
   259  000000                     ___ftmul@f2	equ	?___ftmul+3
   260                           	global	___ftmul@f2
   261  000000                     ___wmul@product	equ	??___wmul+0
   262                           	global	___wmul@product
   263  000000                     ___wmul@multiplier	equ	?___wmul+0
   264                           	global	___wmul@multiplier
   265  000000                     ___wmul@multiplicand	equ	?___wmul+2
   266                           	global	___wmul@multiplicand
   267  000000                     lcd_data@data	equ	?_lcd_data+0
   268                           	global	lcd_data@data
   269  000000                     calc_err@error	equ	??_calc_err+0
   270                           	global	calc_err@error
   271  000000                     DelayMs@i	equ	??_DelayMs+0
   272                           	global	DelayMs@i
   273  000000                     DelayMs@j	equ	??_DelayMs+2
   274                           	global	DelayMs@j
   275  000000                     DelayMs@del	equ	?_DelayMs+0
   276                           	global	DelayMs@del
   277  000000                     ___ftsub@f1	equ	?___ftsub+0
   278                           	global	___ftsub@f1
   279  000000                     ___ftsub@f2	equ	?___ftsub+3
   280                           	global	___ftsub@f2
   281  000000                     ___ftadd@sign2	equ	??___ftadd+0
   282                           	global	___ftadd@sign2
   283  000000                     ___ftadd@cntr	equ	??___ftadd+1
   284                           	global	___ftadd@cntr
   285  000000                     ___ftadd@sign1	equ	??___ftadd+2
   286                           	global	___ftadd@sign1
   287  000000                     ___ftadd@exp2	equ	??___ftadd+3
   288                           	global	___ftadd@exp2
   289  000000                     ___ftadd@exp1	equ	??___ftadd+4
   290                           	global	___ftadd@exp1
   291  000000                     ___ftadd@f1	equ	?___ftadd+0
   292                           	global	___ftadd@f1
   293  000000                     ___ftadd@f2	equ	?___ftadd+3
   294                           	global	___ftadd@f2
   295  000000                     ___ftunpack@sign	equ	??___ftunpack+0
   296                           	global	___ftunpack@sign
   297  000000                     ___ftunpack@arg	equ	?___ftunpack+0
   298                           	global	___ftunpack@arg
   299  000000                     ___ftunpack@exp	equ	?___ftunpack+2
   300                           	global	___ftunpack@exp
   301  000000                     ___ftpack@arg	equ	?___ftpack+0
   302                           	global	___ftpack@arg
   303  000000                     ___ftpack@exp	equ	?___ftpack+2
   304                           	global	___ftpack@exp
   305  000000                     ___asftadd@f1p	equ	?___asftadd+0
   306                           	global	___asftadd@f1p
   307  000000                     ___asftadd@f2	equ	?___asftadd+2
   308                           	global	___asftadd@f2
   309  000000                     i2___ftadd@sign2	equ	??i2___ftadd+0
   310                           	global	i2___ftadd@sign2
   311  000000                     i2___ftadd@cntr	equ	??i2___ftadd+1
   312                           	global	i2___ftadd@cntr
   313  000000                     i2___ftadd@sign1	equ	??i2___ftadd+2
   314                           	global	i2___ftadd@sign1
   315  000000                     i2___ftadd@exp2	equ	??i2___ftadd+3
   316                           	global	i2___ftadd@exp2
   317  000000                     i2___ftadd@exp1	equ	??i2___ftadd+4
   318                           	global	i2___ftadd@exp1
   319  000000                     i2___ftadd@f1	equ	?i2___ftadd+0
   320                           	global	i2___ftadd@f1
   321  000000                     i2___ftadd@f2	equ	?i2___ftadd+3
   322                           	global	i2___ftadd@f2
   323  000000                     i2___ftpack@arg	equ	?i2___ftpack+0
   324                           	global	i2___ftpack@arg
   325  000000                     i2___ftpack@exp	equ	?i2___ftpack+2
   326                           	global	i2___ftpack@exp
   327  000000                     i2___ftunpack@sign	equ	??i2___ftunpack+0
   328                           	global	i2___ftunpack@sign
   329  000000                     i2___ftunpack@arg	equ	?i2___ftunpack+0
   330                           	global	i2___ftunpack@arg
   331  000000                     i2___ftunpack@exp	equ	?i2___ftunpack+2
   332                           	global	i2___ftunpack@exp
   333                           ;Data sizes: Strings 0, constant 102, data 402, 
                                 bss 0, persistent 0 stack 111
   334                           	global	_main
   335                           	global	??_main
   336                           	global	?_main
   337                           
   338                           ; *************** function _main ***************
                                 **
   339                           ; Defined at:
   340                           ;		line 217 in file "main.c"
   341                           ; Parameters:
   342                           ;		None
   343                           ; Auto variables:
   344                           ;		ret         	       	type: int 
   345                           ;		i           	       	type: int 
   346                           ; Return value:
   347                           ;		type: void 
   348                           ;		size: 0
   349                           ; Registers used:
   350                           ;		wreg, fsr0l, fsr0h, status,2, status,0, tblpt
                                 rl, tblptrh, tblptru, tablat, prodl, prodh, csta
                                 ck
   351                           ; Tracked objects:
   352                           ;		On entry : 0/0
   353                           ;		On exit  : 0/0
   354                           ;		Unchanged: 0/0
   355                           ; Data sizes:
   356                           ;		Autos:    8
   357                           ;		Params:   0
   358                           ;		Temp:     2
   359                           ;		Total:   10
   360                           ; This function calls:
   361                           ;		_lcd_init
   362                           ;		_adc_init
   363                           ;		_timer0_init
   364                           ;		_cal_pid_parameters
   365                           ;		_Display
   366                           ;		_DelayMs
   367                           ;		_waitkey
   368                           ;		_Navigate
   369                           ;		_choose_tcouple
   370                           ;		___fttol
   371                           ;		_dispnum
   372                           ;		___awtoft
   373                           ;		_getkey
   374                           ;		_read_adc
   375                           ;		_currenttemp
   376                           ;		_pid
   377                           ; This function is called by:
   378                           ;		Startup code after reset
   379                           ; This function uses a non-reentrant model
   380                           ; 
   381                                   psect   text0,class=CODE,space=0,reloc=2
   382                           
   383                           	opt lm
   384                           	file	"main.c"
   385                           	line	217
   386  000000                     	__size_of_main	equ	__end_of_main-_main
   387                                   psect   text0
   388                           ;main.c: 27: asm("\tglobal __config" "1"); asm("
                                 \t__config" "1" " equ " "0xFFFF & 0xFFFF & 0xF0F
                                 F");
   389                           ;main.c: 28: asm("\tglobal __config" "2"); asm("
                                 \t__config" "2" " equ " "0xFFF9 & 0xFFFF & 0xFEF
                                 F");
   390                           ;main.c: 29: asm("\tglobal __config" "3"); asm("
                                 \t__config" "3" " equ " "0x7FFF & 0xFFFF & 0xFDF
                                 F & 0xFFFF");
   391                           ;main.c: 30: asm("\tglobal __config" "4"); asm("
                                 \t__config" "4" " equ " "0xFFFF & 0xFFFF & 0xFFF
                                 F & 0xFFFE");
   392                           ;main.c: 31: asm("\tglobal __config" "5"); asm("
                                 \t__config" "5" " equ " "0xFFFF");
   393                           ;main.c: 32: asm("\tglobal __config" "6"); asm("
                                 \t__config" "6" " equ " "0xFFFF");
   394                           	
   395  0011FA                     _main:		; BSR set to: ?
   396                           
   397                           	opt stack 27
   398                           	line	220
   399                           ;main.c: 219: int ret,i;
   400                           ;main.c: 220: OSCTUNE=0;
   401  0011FA  0102               	movlb	2	; () banked
   402  0011FC  6F08               	movwf	(??_main+8+0)&0ffh
   403  0011FE  0E00               	movlw	low(0)
   404  001200  6E9B               	movwf	((c:3995)),c
   405  001202  0102               	movlb	2	; () banked
   406  001204  5108               	movf	(??_main+8+0)&0ffh,w
   407                           	line	221
   408                           ;main.c: 221: OSCCON|=0b01110011;
   409  001206  0E73               	movlw	(073h)&0ffh
   410  001208  12D3               	iorwf	((c:4051)),c	;volatile
   411                           	line	223
   412                           ;main.c: 223: TRISA=0b11000001;
   413  00120A  0EC1               	movlw	low(0C1h)
   414  00120C  6E92               	movwf	((c:3986)),c	;volatile
   415                           	line	226
   416                           ;main.c: 226: TRISC=0b0111;
   417  00120E  0E07               	movlw	low(07h)
   418  001210  6E94               	movwf	((c:3988)),c	;volatile
   419                           	line	227
   420                           ;main.c: 227: TRISE=0b000000000;
   421  001212  0E00               	movlw	low(0)
   422  001214  6E96               	movwf	((c:3990)),c	;volatile
   423                           	line	228
   424                           ;main.c: 228: TRISB7=0;
   425  001216  9E93               	bcf	c:(31903/8),(31903)&7	;volatile
   426                           	line	229
   427                           ;main.c: 229: TRISD3=0;
   428  001218  9695               	bcf	c:(31915/8),(31915)&7	;volatile
   429                           	line	230
   430                           ;main.c: 230: TRISD2=0;
   431  00121A  9495               	bcf	c:(31914/8),(31914)&7	;volatile
   432                           	line	231
   433                           ;main.c: 231: TRISD1=0;
   434  00121C  9295               	bcf	c:(31913/8),(31913)&7	;volatile
   435                           	line	232
   436                           ;main.c: 232: TRISD0=1;
   437  00121E  8095               	bsf	c:(31912/8),(31912)&7	;volatile
   438                           	line	233
   439                           ;main.c: 233: TRISB0=0;
   440  001220  9093               	bcf	c:(31896/8),(31896)&7	;volatile
   441                           	line	234
   442                           ;main.c: 234: TRISB1=0;
   443  001222  9293               	bcf	c:(31897/8),(31897)&7	;volatile
   444                           	line	235
   445                           ;main.c: 235: TRISD4=0;
   446  001224  9895               	bcf	c:(31916/8),(31916)&7	;volatile
   447                           	line	236
   448                           ;main.c: 236: TRISD5=0;
   449  001226  9A95               	bcf	c:(31917/8),(31917)&7	;volatile
   450                           	line	237
   451                           ;main.c: 237: TRISD6=0;
   452  001228  9C95               	bcf	c:(31918/8),(31918)&7	;volatile
   453                           	line	238
   454                           ;main.c: 238: TRISD7=0;
   455  00122A  9E95               	bcf	c:(31919/8),(31919)&7	;volatile
   456                           	line	240
   457                           ;main.c: 240: thermocouple_type = 0;
   458  00122C  0E00               	movlw	low(0)
   459  00122E  6E1E               	movwf	((c:30)),c
   460  001230  0E00               	movlw	high(0)
   461  001232  6E1F               	movwf	((c:30+1)),c
   462                           	line	241
   463                           ;main.c: 241: set_temperature = 100;
   464  001234  0E00               	movlw	low(float24(100.00000000000000))
   465  001236  6E00               	movwf	((c:0)),c
   466  001238  0EC8               	movlw	high(float24(100.00000000000000))
   467  00123A  6E01               	movwf	((c:0+1)),c
   468  00123C  0E42               	movlw	low highword(float24(100.00000000000000))
   469  00123E  6E02               	movwf	((c:0+2)),c
   470                           
   471                           	line	242
   472                           ;main.c: 242: PIDFlag = 0;
   473  001240  0102               	movlb	2	; () banked
   474  001242  6F08               	movwf	(??_main+8+0)&0ffh
   475  001244  0E00               	movlw	low(0)
   476  001246  6E49               	movwf	((c:73)),c
   477  001248  0102               	movlb	2	; () banked
   478  00124A  5108               	movf	(??_main+8+0)&0ffh,w
   479                           	line	243
   480                           ;main.c: 243: sampleflag=0;
   481  00124C  0E00               	movlw	low(0)
   482  00124E  6E53               	movwf	((c:83)),c
   483  001250  0E00               	movlw	high(0)
   484  001252  6E54               	movwf	((c:83+1)),c
   485                           	line	244
   486                           ;main.c: 244: samplecount=0;
   487  001254  0E00               	movlw	low(float24(0.00000000000000000))
   488  001256  6E03               	movwf	((c:3)),c
   489  001258  0E00               	movlw	high(float24(0.00000000000000000))
   490  00125A  6E04               	movwf	((c:3+1)),c
   491  00125C  0E00               	movlw	low highword(float24(0.00000000000000000)
                                 )
   492  00125E  6E05               	movwf	((c:3+2)),c
   493                           
   494                           	line	245
   495                           ;main.c: 245: count=0;
   496  001260  0E00               	movlw	low(0)
   497  001262  6E44               	movwf	((c:68)),c
   498  001264  0E00               	movlw	high(0)
   499  001266  6E45               	movwf	((c:68+1)),c
   500                           	line	246
   501                           ;main.c: 246: accum=0;
   502  001268  0E00               	movlw	low(float24(0.00000000000000000))
   503  00126A  6E06               	movwf	((c:6)),c
   504  00126C  0E00               	movlw	high(float24(0.00000000000000000))
   505  00126E  6E07               	movwf	((c:6+1)),c
   506  001270  0E00               	movlw	low highword(float24(0.00000000000000000)
                                 )
   507  001272  6E08               	movwf	((c:6+2)),c
   508                           
   509                           	line	247
   510                           ;main.c: 247: flag=0;
   511  001274  0E00               	movlw	low(0)
   512  001276  6E46               	movwf	((c:70)),c
   513  001278  0E00               	movlw	high(0)
   514  00127A  6E47               	movwf	((c:70+1)),c
   515                           	line	248
   516                           ;main.c: 248: outint=0;
   517  00127C  0E00               	movlw	low(0)
   518  00127E  6E26               	movwf	((c:38)),c
   519  001280  0E00               	movlw	high(0)
   520  001282  6E27               	movwf	((c:38+1)),c
   521                           	line	249
   522                           ;main.c: 249: outint_1=0;
   523  001284  0E00               	movlw	low(0)
   524  001286  6E55               	movwf	((c:85)),c
   525  001288  0E00               	movlw	high(0)
   526  00128A  6E56               	movwf	((c:85+1)),c
   527                           	line	250
   528                           ;main.c: 250: for(sw=0;sw<16; sw++)
   529  00128C  0E00               	movlw	low(0)
   530  00128E  6E19               	movwf	((c:25)),c
   531  001290  0E00               	movlw	high(0)
   532  001292  6E1A               	movwf	((c:25+1)),c
   533  001294  0E10               	movlw	010h
   534  001296  5C19               	subwf	((c:25)),c,w
   535  001298  0E00               	movlw	0
   536  00129A  581A               	subwfb	((c:25+1)),c,w
   537  00129C  A0D8               	btfss	status,0
   538  00129E  EF53  F009         	goto	u3061
   539  0012A2  EF55  F009         	goto	u3060
   540  0012A6                     u3061:
   541  0012A6  EF57  F009         	goto	l118
   542  0012AA                     u3060:
   543  0012AA  EF6C  F009         	goto	l119
   544                           	line	251
   545                           	
   546  0012AE                     l118:		; BSR set to: ?
   547                           
   548                           	line	252
   549                           ;main.c: 251: {
   550                           ;main.c: 252: numstr[sw]=' ';
   551  0012AE  0E09               	movlw	low((c:9))
   552  0012B0  2419               	addwf	((c:25)),c,w
   553  0012B2  6EE9               	movwf	c:fsr0l
   554  0012B4  6AEA               	clrf	1+c:fsr0l
   555  0012B6  0E00               	movlw	high((c:9))
   556  0012B8  22EA               	addwfc	1+c:fsr0l
   557  0012BA  0E20               	movlw	low(020h)
   558  0012BC  6EEF               	movwf	indf0
   559                           	line	250
   560  0012BE  4A19               	infsnz	((c:25)),c
   561  0012C0  2A1A               	incf	((c:25+1)),c
   562  0012C2  0E10               	movlw	010h
   563  0012C4  5C19               	subwf	((c:25)),c,w
   564  0012C6  0E00               	movlw	0
   565  0012C8  581A               	subwfb	((c:25+1)),c,w
   566  0012CA  A0D8               	btfss	status,0
   567  0012CC  EF6A  F009         	goto	u3071
   568  0012D0  EF6C  F009         	goto	u3070
   569  0012D4                     u3071:
   570  0012D4  EF57  F009         	goto	l118
   571  0012D8                     u3070:
   572                           	
   573  0012D8                     l119:		; BSR set to: ?
   574                           
   575                           	line	255
   576                           ;main.c: 253: }
   577                           ;main.c: 255: lcd_init();
   578  0012D8  EC94  F015         	call	_lcd_init	;wreg free
   579                           	line	261
   580                           ;main.c: 261: adc_init();
   581  0012DC  ECCA  F021         	call	_adc_init	;wreg free
   582                           	line	262
   583                           ;main.c: 262: timer0_init();
   584  0012E0  ECFE  F021         	call	_timer0_init	;wreg free
   585                           	line	263
   586                           ;main.c: 263: cal_pid_parameters();
   587  0012E4  ECE5  F021         	call	_cal_pid_parameters	;wreg free
   588                           	line	264
   589                           ;main.c: 264: sw=1;
   590  0012E8  0E01               	movlw	low(01h)
   591  0012EA  6E19               	movwf	((c:25)),c
   592  0012EC  0E00               	movlw	high(01h)
   593  0012EE  6E1A               	movwf	((c:25+1)),c
   594                           	line	280
   595                           ;main.c: 280: while(1)
   596                           	
   597  0012F0                     l122:		; BSR set to: ?
   598                           
   599                           	line	283
   600                           ;main.c: 281: {
   601                           ;main.c: 283: switch(sw)
   602  0012F0  EF35  F00B         	goto	l125
   603                           	line	285
   604                           ;main.c: 284: {
   605                           ;main.c: 285: case 1:cur_inc = 1;
   606                           	
   607  0012F4                     l126:		; BSR set to: ?
   608                           
   609  0012F4  0E01               	movlw	low(01h)
   610  0012F6  6E1C               	movwf	((c:28)),c
   611  0012F8  0E00               	movlw	high(01h)
   612  0012FA  6E1D               	movwf	((c:28+1)),c
   613                           	line	286
   614                           ;main.c: 286: Display(string1,0x80);
   615  0012FC  0102               	movlb	2	; () banked
   616  0012FE  6F08               	movwf	(??_main+8+0)&0ffh
   617  001300  0E80               	movlw	low(080h)
   618  001302  0102               	movlb	2	; () banked
   619  001304  0102               	movlb	2	; () banked
   620  001306  6F14               	movwf	(0+(?_Display+02h))&0ffh
   621  001308  0102               	movlb	2	; () banked
   622  00130A  5108               	movf	(??_main+8+0)&0ffh,w
   623  00130C  0E01               	movlw	low(_string1)
   624  00130E  0102               	movlb	2	; () banked
   625  001310  0102               	movlb	2	; () banked
   626  001312  6F12               	movwf	((?_Display))&0ffh
   627  001314  0E10               	movlw	high(_string1)
   628  001316  0102               	movlb	2	; () banked
   629  001318  6F13               	movwf	((?_Display+1))&0ffh
   630  00131A  EC93  F01E         	call	_Display	;wreg free
   631                           	line	287
   632                           ;main.c: 287: sw=2;
   633  00131E  0E02               	movlw	low(02h)
   634  001320  6E19               	movwf	((c:25)),c
   635  001322  0E00               	movlw	high(02h)
   636  001324  6E1A               	movwf	((c:25+1)),c
   637                           	line	288
   638                           ;main.c: 288: DelayMs(50);
   639  001326  0E32               	movlw	low(032h)
   640  001328  0102               	movlb	2	; () banked
   641  00132A  0102               	movlb	2	; () banked
   642  00132C  6F1B               	movwf	((?_DelayMs))&0ffh
   643  00132E  0E00               	movlw	high(032h)
   644  001330  0102               	movlb	2	; () banked
   645  001332  6F1C               	movwf	((?_DelayMs+1))&0ffh
   646  001334  EC26  F020         	call	_DelayMs	;wreg free
   647                           	line	289
   648                           ;main.c: 289: break;
   649  001338  EF52  F00B         	goto	l121
   650                           	line	291
   651                           ;main.c: 291: case 2:
   652                           	
   653  00133C                     l127:		; BSR set to: ?
   654                           
   655                           	line	292
   656                           ;main.c: 292: for(i=0;i<16; i++)
   657  00133C  0E00               	movlw	low(0)
   658  00133E  0102               	movlb	2	; () banked
   659  001340  0102               	movlb	2	; () banked
   660  001342  6F06               	movwf	((main@i))&0ffh
   661  001344  0E00               	movlw	high(0)
   662  001346  0102               	movlb	2	; () banked
   663  001348  6F07               	movwf	((main@i+1))&0ffh
   664  00134A  0102               	movlb	2	; () banked
   665  00134C  0102               	movlb	2	; () banked
   666  00134E  5107               	movf	((main@i+1))&0ffh,w
   667  001350  0A80               	xorlw	80h
   668  001352  0F80               	addlw	-((0)^80h)
   669  001354  0E10               	movlw	010h
   670  001356  B4D8               	btfsc	status,2
   671  001358  5D06               	subwf	((main@i))&0ffh,w
   672  00135A  A0D8               	btfss	status,0
   673  00135C  EFB2  F009         	goto	u3081
   674  001360  EFB4  F009         	goto	u3080
   675  001364                     u3081:
   676  001364  EFB6  F009         	goto	l128
   677  001368                     u3080:
   678  001368  EFD3  F009         	goto	l129
   679                           	line	293
   680                           	
   681  00136C                     l128:		; BSR set to: ?
   682                           
   683                           	line	294
   684                           ;main.c: 293: {
   685                           ;main.c: 294: numstr[i]=' ';
   686  00136C  0E09               	movlw	low((c:9))
   687  00136E  0102               	movlb	2	; () banked
   688  001370  0102               	movlb	2	; () banked
   689  001372  2506               	addwf	((main@i))&0ffh,w
   690  001374  6EE9               	movwf	c:fsr0l
   691  001376  6AEA               	clrf	1+c:fsr0l
   692  001378  0E00               	movlw	high((c:9))
   693  00137A  22EA               	addwfc	1+c:fsr0l
   694  00137C  0E20               	movlw	low(020h)
   695  00137E  6EEF               	movwf	indf0
   696                           	line	292
   697  001380  0102               	movlb	2	; () banked
   698  001382  0102               	movlb	2	; () banked
   699  001384  4B06               	infsnz	((main@i))&0ffh
   700  001386  2B07               	incf	((main@i+1))&0ffh
   701  001388  0102               	movlb	2	; () banked
   702  00138A  0102               	movlb	2	; () banked
   703  00138C  5107               	movf	((main@i+1))&0ffh,w
   704  00138E  0A80               	xorlw	80h
   705  001390  0F80               	addlw	-((0)^80h)
   706  001392  0E10               	movlw	010h
   707  001394  B4D8               	btfsc	status,2
   708  001396  5D06               	subwf	((main@i))&0ffh,w
   709  001398  A0D8               	btfss	status,0
   710  00139A  EFD1  F009         	goto	u3091
   711  00139E  EFD3  F009         	goto	u3090
   712  0013A2                     u3091:
   713  0013A2  EFB6  F009         	goto	l128
   714  0013A6                     u3090:
   715                           	
   716  0013A6                     l129:		; BSR set to: ?
   717                           
   718                           	line	296
   719                           ;main.c: 295: }
   720                           ;main.c: 296: Display(string2,0x80);
   721  0013A6  0102               	movlb	2	; () banked
   722  0013A8  6F08               	movwf	(??_main+8+0)&0ffh
   723  0013AA  0E80               	movlw	low(080h)
   724  0013AC  0102               	movlb	2	; () banked
   725  0013AE  0102               	movlb	2	; () banked
   726  0013B0  6F14               	movwf	(0+(?_Display+02h))&0ffh
   727  0013B2  0102               	movlb	2	; () banked
   728  0013B4  5108               	movf	(??_main+8+0)&0ffh,w
   729  0013B6  0E12               	movlw	low(_string2)
   730  0013B8  0102               	movlb	2	; () banked
   731  0013BA  0102               	movlb	2	; () banked
   732  0013BC  6F12               	movwf	((?_Display))&0ffh
   733  0013BE  0E10               	movlw	high(_string2)
   734  0013C0  0102               	movlb	2	; () banked
   735  0013C2  6F13               	movwf	((?_Display+1))&0ffh
   736  0013C4  EC93  F01E         	call	_Display	;wreg free
   737                           	line	297
   738                           ;main.c: 297: PIDFlag=0;
   739  0013C8  0102               	movlb	2	; () banked
   740  0013CA  6F08               	movwf	(??_main+8+0)&0ffh
   741  0013CC  0E00               	movlw	low(0)
   742  0013CE  6E49               	movwf	((c:73)),c
   743  0013D0  0102               	movlb	2	; () banked
   744  0013D2  5108               	movf	(??_main+8+0)&0ffh,w
   745                           	line	298
   746                           ;main.c: 298: if(thermocouple_type==0)
   747  0013D4  501F               	movf	((c:30+1)),c,w
   748  0013D6  101E               	iorwf ((c:30)),c,w
   749                           
   750  0013D8  A4D8               	btfss	status,2
   751  0013DA  EFF1  F009         	goto	u3101
   752  0013DE  EFF3  F009         	goto	u3100
   753  0013E2                     u3101:
   754  0013E2  EF06  F00A         	goto	l131
   755  0013E6                     u3100:
   756                           	line	299
   757                           ;main.c: 299: Display(string3,0xc0);
   758  0013E6  0102               	movlb	2	; () banked
   759  0013E8  6F08               	movwf	(??_main+8+0)&0ffh
   760  0013EA  0EC0               	movlw	low(0C0h)
   761  0013EC  0102               	movlb	2	; () banked
   762  0013EE  0102               	movlb	2	; () banked
   763  0013F0  6F14               	movwf	(0+(?_Display+02h))&0ffh
   764  0013F2  0102               	movlb	2	; () banked
   765  0013F4  5108               	movf	(??_main+8+0)&0ffh,w
   766  0013F6  0E23               	movlw	low(_string3)
   767  0013F8  0102               	movlb	2	; () banked
   768  0013FA  0102               	movlb	2	; () banked
   769+ 0013FC  6F12               	movwf	((?_Display))&0ffh
   770  0013FE  0E10               	movlw	high(_string3)
   771  001400  0102               	movlb	2	; () banked
   772  001402  6F13               	movwf	((?_Display+1))&0ffh
   773  001404  EC93  F01E         	call	_Display	;wreg free
   774  001408  EF20  F00A         	goto	l132
   775                           	line	300
   776                           	
   777  00140C                     l131:		; BSR set to: ?
   778                           
   779                           ;main.c: 300: else if(thermocouple_type==1)
   780  00140C  041E               	decf	((c:30)),c,w
   781  00140E  101F               	iorwf ((c:30+1)),c,w
   782                           
   783  001410  A4D8               	btfss	status,2
   784  001412  EF0D  F00A         	goto	u3111
   785  001416  EF0F  F00A         	goto	u3110
   786  00141A                     u3111:
   787  00141A  EF20  F00A         	goto	l132
   788  00141E                     u3110:
   789                           	line	301
   790                           ;main.c: 301: Display(string4,0xc0);
   791  00141E  0102               	movlb	2	; () banked
   792  001420  6F08               	movwf	(??_main+8+0)&0ffh
   793  001422  0EC0               	movlw	low(0C0h)
   794  001424  0102               	movlb	2	; () banked
   795  001426  0102               	movlb	2	; () banked
   796  001428  6F14               	movwf	(0+(?_Display+02h))&0ffh
   797  00142A  0102               	movlb	2	; () banked
   798  00142C  5108               	movf	(??_main+8+0)&0ffh,w
   799  00142E  0E34               	movlw	low(_string4)
   800  001430  0102               	movlb	2	; () banked
   801  001432  0102               	movlb	2	; () banked
   802  001434  6F12               	movwf	((?_Display))&0ffh
   803  001436  0E10               	movlw	high(_string4)
   804  001438  0102               	movlb	2	; () banked
   805  00143A  6F13               	movwf	((?_Display+1))&0ffh
   806  00143C  EC93  F01E         	call	_Display	;wreg free
   807                           	
   808  001440                     l133:		; BSR set to: ?
   809                           
   810                           	line	302
   811                           	
   812  001440                     l132:		; BSR set to: ?
   813                           
   814                           ;main.c: 302: ret = waitkey();
   815  001440  EC5C  F016         	call	_waitkey	;wreg free
   816  001444  C20A  F204         	movff	0+?_waitkey,(main@ret)
   817  001448  C20B  F205         	movff	1+?_waitkey,(main@ret+1)
   818                           	line	303
   819                           ;main.c: 303: thermocouple_type = Navigate(ret,t
                                 hermocouple_type);
   820  00144C  C01E F20C          	movff	(c:30),0+(?_Navigate+02h)
   821  001450  C01F F20D          	movff	(c:30+1),1+(?_Navigate+02h)
   822  001454  C204  F20A         	movff	(main@ret),(?_Navigate)
   823  001458  C205  F20B         	movff	(main@ret+1),(?_Navigate+1)
   824  00145C  EC2F  F011         	call	_Navigate	;wreg free
   825  001460  C20A  F01E         	movff	0+?_Navigate,(c:30)
   826  001464  C20B  F01F         	movff	1+?_Navigate,(c:30+1)
   827                           	line	305
   828                           ;main.c: 305: break;
   829  001468  EF52  F00B         	goto	l121
   830                           	line	307
   831                           ;main.c: 307: case 3:
   832                           	
   833  00146C                     l134:		; BSR set to: ?
   834                           
   835                           	line	308
   836                           ;main.c: 308: choose_tcouple();
   837  00146C  EC8E  F021         	call	_choose_tcouple	;wreg free
   838                           	line	309
   839                           ;main.c: 309: Display(string5,0x80);
   840  001470  0102               	movlb	2	; () banked
   841  001472  6F08               	movwf	(??_main+8+0)&0ffh
   842  001474  0E80               	movlw	low(080h)
   843  001476  0102               	movlb	2	; () banked
   844  001478  0102               	movlb	2	; () banked
   845  00147A  6F14               	movwf	(0+(?_Display+02h))&0ffh
   846  00147C  0102               	movlb	2	; () banked
   847  00147E  5108               	movf	(??_main+8+0)&0ffh,w
   848  001480  0E45               	movlw	low(_string5)
   849  001482  0102               	movlb	2	; () banked
   850  001484  0102               	movlb	2	; () banked
   851  001486  6F12               	movwf	((?_Display))&0ffh
   852  001488  0E10               	movlw	high(_string5)
   853  00148A  0102               	movlb	2	; () banked
   854  00148C  6F13               	movwf	((?_Display+1))&0ffh
   855  00148E  EC93  F01E         	call	_Display	;wreg free
   856                           	line	310
   857                           ;main.c: 310: nodigit=4;
   858  001492  0102               	movlb	2	; () banked
   859  001494  6F08               	movwf	(??_main+8+0)&0ffh
   860  001496  0E04               	movlw	low(04h)
   861  001498  6E42               	movwf	((c:66)),c
   862  00149A  0102               	movlb	2	; () banked
   863  00149C  5108               	movf	(??_main+8+0)&0ffh,w
   864                           	line	311
   865                           ;main.c: 311: dispnum((int)set_temperature,0);
   866  00149E  C000 F213          	movff	(c:0),(?___fttol)
   867  0014A2  C001 F214          	movff	(c:0+1),(?___fttol+1)
   868  0014A6  C002 F215          	movff	(c:0+2),(?___fttol+2)
   869  0014AA  ECE8  F017         	call	___fttol	;wreg free
   870  0014AE  C213  F20A         	movff	0+?___fttol,(?_dispnum)
   871  0014B2  C214  F20B         	movff	1+?___fttol,(?_dispnum+1)
   872  0014B6  0102               	movlb	2	; () banked
   873  0014B8  6F08               	movwf	(??_main+8+0)&0ffh
   874  0014BA  0E00               	movlw	low(0)
   875  0014BC  0102               	movlb	2	; () banked
   876  0014BE  0102               	movlb	2	; () banked
   877  0014C0  6F0C               	movwf	(0+(?_dispnum+02h))&0ffh
   878  0014C2  0102               	movlb	2	; () banked
   879  0014C4  5108               	movf	(??_main+8+0)&0ffh,w
   880  0014C6  EC02  F01F         	call	_dispnum	;wreg free
   881                           	line	312
   882                           ;main.c: 312: ret=waitkey();
   883  0014CA  EC5C  F016         	call	_waitkey	;wreg free
   884  0014CE  C20A  F204         	movff	0+?_waitkey,(main@ret)
   885  0014D2  C20B  F205         	movff	1+?_waitkey,(main@ret+1)
   886                           	line	313
   887                           ;main.c: 313: set_temperature = Navigate(ret,(in
                                 t)set_temperature);
   888  0014D6  C000 F213          	movff	(c:0),(?___fttol)
   889  0014DA  C001 F214          	movff	(c:0+1),(?___fttol+1)
   890  0014DE  C002 F215          	movff	(c:0+2),(?___fttol+2)
   891  0014E2  ECE8  F017         	call	___fttol	;wreg free
   892  0014E6  C213  F200         	movff	0+?___fttol,(_main$933)
   893  0014EA  C214  F201         	movff	1+?___fttol,(_main$933+1)
   894  0014EE  C215  F202         	movff	2+?___fttol,(_main$933+2)
   895  0014F2  C216  F203         	movff	3+?___fttol,(_main$933+3)
   896  0014F6  C200  F20C         	movff	(_main$933),0+(?_Navigate+02h)
   897  0014FA  C201  F20D         	movff	(_main$933+1),1+(?_Navigate+02h)
   898  0014FE  C204  F20A         	movff	(main@ret),(?_Navigate)
   899  001502  C205  F20B         	movff	(main@ret+1),(?_Navigate+1)
   900  001506  EC2F  F011         	call	_Navigate	;wreg free
   901  00150A  C20A  F20A         	movff	0+?_Navigate,(?___awtoft)
   902  00150E  C20B  F20B         	movff	1+?_Navigate,(?___awtoft+1)
   903  001512  EC24  F01E         	call	___awtoft	;wreg free
   904  001516  C20A  F000         	movff	0+?___awtoft,(c:0)
   905  00151A  C20B  F001         	movff	1+?___awtoft,(c:0+1)
   906  00151E  C20C  F002         	movff	2+?___awtoft,(c:0+2)
   907                           	line	315
   908                           ;main.c: 315: break;
   909  001522  EF52  F00B         	goto	l121
   910                           	line	317
   911                           ;main.c: 317: case 4:Display(string6,0x80);
   912                           	
   913  001526                     l135:		; BSR set to: ?
   914                           
   915  001526  0102               	movlb	2	; () banked
   916  001528  6F08               	movwf	(??_main+8+0)&0ffh
   917  00152A  0E80               	movlw	low(080h)
   918  00152C  0102               	movlb	2	; () banked
   919  00152E  0102               	movlb	2	; () banked
   920  001530  6F14               	movwf	(0+(?_Display+02h))&0ffh
   921  001532  0102               	movlb	2	; () banked
   922  001534  5108               	movf	(??_main+8+0)&0ffh,w
   923  001536  0E56               	movlw	low(_string6)
   924  001538  0102               	movlb	2	; () banked
   925  00153A  0102               	movlb	2	; () banked
   926  00153C  6F12               	movwf	((?_Display))&0ffh
   927  00153E  0E10               	movlw	high(_string6)
   928  001540  0102               	movlb	2	; () banked
   929  001542  6F13               	movwf	((?_Display+1))&0ffh
   930  001544  EC93  F01E         	call	_Display	;wreg free
   931                           	line	318
   932                           ;main.c: 318: ret = getkey();
   933  001548  EC24  F017         	call	_getkey	;wreg free
   934  00154C  C20A  F204         	movff	0+?_getkey,(main@ret)
   935  001550  C20B  F205         	movff	1+?_getkey,(main@ret+1)
   936                           	line	319
   937                           ;main.c: 319: if(sw == 2)
   938  001554  5019               	movf	((c:25)),c,w
   939  001556  0A02               	xorlw	2
   940  001558  101A               	iorwf ((c:25+1)),c,w
   941                           
   942  00155A  A4D8               	btfss	status,2
   943  00155C  EFB2  F00A         	goto	u3121
   944  001560  EFB4  F00A         	goto	u3120
   945  001564                     u3121:
   946  001564  EFBC  F00A         	goto	l136
   947  001568                     u3120:
   948                           	line	320
   949                           ;main.c: 320: PIDFlag = 0;
   950  001568  0102               	movlb	2	; () banked
   951  00156A  6F08               	movwf	(??_main+8+0)&0ffh
   952  00156C  0E00               	movlw	low(0)
   953  00156E  6E49               	movwf	((c:73)),c
   954  001570  0102               	movlb	2	; () banked
   955  001572  5108               	movf	(??_main+8+0)&0ffh,w
   956  001574  EFC2  F00A         	goto	l137
   957                           	line	321
   958                           	
   959  001578                     l136:		; BSR set to: ?
   960                           
   961                           ;main.c: 321: else PIDFlag = 1;
   962  001578  0102               	movlb	2	; () banked
   963  00157A  6F08               	movwf	(??_main+8+0)&0ffh
   964  00157C  0E01               	movlw	low(01h)
   965  00157E  6E49               	movwf	((c:73)),c
   966  001580  0102               	movlb	2	; () banked
   967  001582  5108               	movf	(??_main+8+0)&0ffh,w
   968                           	
   969  001584                     l137:		; BSR set to: ?
   970                           
   971                           	line	323
   972                           ;main.c: 323: if(flag==1)
   973  001584  0446               	decf	((c:70)),c,w
   974  001586  1047               	iorwf ((c:70+1)),c,w
   975                           
   976  001588  A4D8               	btfss	status,2
   977  00158A  EFC9  F00A         	goto	u3131
   978  00158E  EFCB  F00A         	goto	u3130
   979  001592                     u3131:
   980  001592  EF33  F00B         	goto	l138
   981  001596                     u3130:
   982                           	line	325
   983                           ;main.c: 324: {
   984                           ;main.c: 325: accum = read_adc();
   985  001596  ECF6  F020         	call	_read_adc	;wreg free
   986  00159A  C20A  F20A         	movff	0+?_read_adc,(?___awtoft)
   987  00159E  C20B  F20B         	movff	1+?_read_adc,(?___awtoft+1)
   988  0015A2  EC24  F01E         	call	___awtoft	;wreg free
   989  0015A6  C20A  F006         	movff	0+?___awtoft,(c:6)
   990  0015AA  C20B  F007         	movff	1+?___awtoft,(c:6+1)
   991  0015AE  C20C  F008         	movff	2+?___awtoft,(c:6+2)
   992                           	line	331
   993                           ;main.c: 331: accumcount = 0;
   994  0015B2  0E00               	movlw	low(float24(0.00000000000000000))
   995  0015B4  6E4A               	movwf	((c:74)),c
   996  0015B6  0E00               	movlw	high(float24(0.00000000000000000))
   997  0015B8  6E4B               	movwf	((c:74+1)),c
   998  0015BA  0E00               	movlw	low highword(float24(0.00000000000000000)
                                 )
   999  0015BC  6E4C               	movwf	((c:74+2)),c
  1000                           
  1001                           	line	332
  1002                           ;main.c: 332: nodigit=4;
  1003  0015BE  0102               	movlb	2	; () banked
  1004  0015C0  6F08               	movwf	(??_main+8+0)&0ffh
  1005  0015C2  0E04               	movlw	low(04h)
  1006  0015C4  6E42               	movwf	((c:66)),c
  1007  0015C6  0102               	movlb	2	; () banked
  1008  0015C8  5108               	movf	(??_main+8+0)&0ffh,w
  1009                           	line	333
  1010                           ;main.c: 333: dispnum((int)set_temperature,5);
  1011  0015CA  C000 F213          	movff	(c:0),(?___fttol)
  1012  0015CE  C001 F214          	movff	(c:0+1),(?___fttol+1)
  1013  0015D2  C002 F215          	movff	(c:0+2),(?___fttol+2)
  1014  0015D6  ECE8  F017         	call	___fttol	;wreg free
  1015  0015DA  C213  F20A         	movff	0+?___fttol,(?_dispnum)
  1016  0015DE  C214  F20B         	movff	1+?___fttol,(?_dispnum+1)
  1017  0015E2  0102               	movlb	2	; () banked
  1018  0015E4  6F08               	movwf	(??_main+8+0)&0ffh
  1019  0015E6  0E05               	movlw	low(05h)
  1020  0015E8  0102               	movlb	2	; () banked
  1021  0015EA  0102               	movlb	2	; () banked
  1022  0015EC  6F0C               	movwf	(0+(?_dispnum+02h))&0ffh
  1023  0015EE  0102               	movlb	2	; () banked
  1024  0015F0  5108               	movf	(??_main+8+0)&0ffh,w
  1025  0015F2  EC02  F01F         	call	_dispnum	;wreg free
  1026                           	line	335
  1027                           ;main.c: 335: cur_temperature = currenttemp();
  1028  0015F6  EC30  F01D         	call	_currenttemp	;wreg free
  1029  0015FA  C20A  F02E         	movff	0+?_currenttemp,(c:46)
  1030  0015FE  C20B  F02F         	movff	1+?_currenttemp,(c:46+1)
  1031  001602  C20C  F030         	movff	2+?_currenttemp,(c:46+2)
  1032                           	line	336
  1033                           ;main.c: 336: dispnum((int)cur_temperature,10);
  1034  001606  C02E F213          	movff	(c:46),(?___fttol)
  1035  00160A  C02F F214          	movff	(c:46+1),(?___fttol+1)
  1036  00160E  C030 F215          	movff	(c:46+2),(?___fttol+2)
  1037  001612  ECE8  F017         	call	___fttol	;wreg free
  1038  001616  C213  F20A         	movff	0+?___fttol,(?_dispnum)
  1039  00161A  C214  F20B         	movff	1+?___fttol,(?_dispnum+1)
  1040  00161E  0102               	movlb	2	; () banked
  1041  001620  6F08               	movwf	(??_main+8+0)&0ffh
  1042  001622  0E0A               	movlw	low(0Ah)
  1043  001624  0102               	movlb	2	; () banked
  1044  001626  0102               	movlb	2	; () banked
  1045  001628  6F0C               	movwf	(0+(?_dispnum+02h))&0ffh
  1046  00162A  0102               	movlb	2	; () banked
  1047  00162C  5108               	movf	(??_main+8+0)&0ffh,w
  1048  00162E  EC02  F01F         	call	_dispnum	;wreg free
  1049                           	line	337
  1050                           ;main.c: 337: pid();
  1051  001632  ECDE  F012         	call	_pid	;wreg free
  1052                           	line	338
  1053                           ;main.c: 338: accum=0;
  1054  001636  0E00               	movlw	low(float24(0.00000000000000000))
  1055  001638  6E06               	movwf	((c:6)),c
  1056  00163A  0E00               	movlw	high(float24(0.00000000000000000))
  1057  00163C  6E07               	movwf	((c:6+1)),c
  1058  00163E  0E00               	movlw	low highword(float24(0.00000000000000000)
                                 )
  1059  001640  6E08               	movwf	((c:6+2)),c
  1060                           
  1061                           	line	339
  1062                           ;main.c: 339: dispnum((int)outint,0);
  1063  001642  0102               	movlb	2	; () banked
  1064  001644  6F08               	movwf	(??_main+8+0)&0ffh
  1065  001646  0E00               	movlw	low(0)
  1066  001648  0102               	movlb	2	; () banked
  1067  00164A  0102               	movlb	2	; () banked
  1068  00164C  6F0C               	movwf	(0+(?_dispnum+02h))&0ffh
  1069  00164E  0102               	movlb	2	; () banked
  1070  001650  5108               	movf	(??_main+8+0)&0ffh,w
  1071  001652  C026 F20A          	movff	(c:38),(?_dispnum)
  1072  001656  C027 F20B          	movff	(c:38+1),(?_dispnum+1)
  1073  00165A  EC02  F01F         	call	_dispnum	;wreg free
  1074                           	line	340
  1075                           ;main.c: 340: flag=0;
  1076  00165E  0E00               	movlw	low(0)
  1077  001660  6E46               	movwf	((c:70)),c
  1078  001662  0E00               	movlw	high(0)
  1079  001664  6E47               	movwf	((c:70+1)),c
  1080                           	line	349
  1081                           	
  1082  001666                     l138:		; BSR set to: ?
  1083                           
  1084                           	line	357
  1085                           ;main.c: 349: }
  1086                           ;main.c: 357: break;
  1087  001666  EF52  F00B         	goto	l121
  1088                           	line	283
  1089                           	
  1090  00166A                     l125:		; BSR set to: ?
  1091                           
  1092  00166A  C019 F208          	movff	(c:25),??_main+8+0
  1093  00166E  C01A F209          	movff	(c:25+1),??_main+8+0+1
  1094  001672  0102               	movlb	2	; () banked
  1095  001674  EF4C  F00B         	goto	l30021
  1096  001678                     l30022:
  1097  001678  0102               	movlb	2	; () banked
  1098  00167A  5108               	movf	(??_main+8+0)&0ffh,w
  1099  00167C  0A01               	xorlw	1 ^ 0
  1100  00167E  E101 D639          	bz	l126
  1101  001682  0A03               	xorlw	2 ^ 1
  1102  001684  E101 D65A          	bz	l127
  1103  001688  0A01               	xorlw	3 ^ 2
  1104  00168A  E101 D6EF          	bz	l134
  1105  00168E  0A07               	xorlw	4 ^ 3
  1106  001690  E101 D749          	bz	l135
  1107  001694  EF52  F00B         	goto	l121
  1108                           
  1109  001698                     l30021:
  1110  001698  0102               	movlb	2	; () banked
  1111  00169A  5109               	movf	(??_main+8+1)&0ffh,w
  1112  00169C  0A00               	xorlw	0 ^ 0
  1113  00169E  E0EC               	bz	l30022
  1114  0016A0  EF52  F00B         	goto	l121
  1115                           
  1116                           	line	360
  1117                           	
  1118  0016A4                     l121:		; BSR set to: ?
  1119                           
  1120                           	line	280
  1121  0016A4  EF78  F009         	goto	l122
  1122                           	global	start
  1123  0016A8  EF0C  F000         	goto	start
  1124                           	opt stack 0
  1125                           GLOBAL __end_of_main
  1126  0016AC                     	__end_of_main:
  1127                           	FNSIZE	_main,10,0
  1128                           ; =============== function _main ends ==========
                                 ==
  1129                           
  1130                                   psect   text1,class=CODE,space=0,reloc=2
  1131                           	line	361
  1132                           
  1133                           	opt lm
  1134                           	signat	_main,88
  1135                           	global	_Navigate
  1136                           	global	??_Navigate
  1137                           	global	?_Navigate
  1138                           
  1139                           ; *************** function _Navigate ***********
                                 ******
  1140                           ; Defined at:
  1141                           ;		line 452 in file "main.c"
  1142                           ; Parameters:
  1143                           ;		key            size:   2offs:   0	type: int 
  1144                           ;		statevariabl   size:   2offs:   2	type: int 
  1145                           ; Auto variables:
  1146                           ;		max         	       	type: int 
  1147                           ;		cur_dig     	       	type: int 
  1148                           ;		i           	       	type: int 
  1149                           ; Return value:
  1150                           ;		type: int 
  1151                           ;		size: 2
  1152                           ; Registers used:
  1153                           ;		wreg, fsr0l, fsr0h, status,2, status,0, prodl
                                 , prodh, cstack
  1154                           ; Tracked objects:
  1155                           ;		On entry : 0/0
  1156                           ;		On exit  : 0/0
  1157                           ;		Unchanged: 0/0
  1158                           ; Data sizes:
  1159                           ;		Autos:    6
  1160                           ;		Params:   4
  1161                           ;		Temp:     6
  1162                           ;		Total:   16
  1163                           ; This function calls:
  1164                           ;		___wmul
  1165                           ;		___awmod
  1166                           ;		___awdiv
  1167                           ; This function is called by:
  1168                           ;		_main
  1169                           ; This function uses a non-reentrant model
  1170                           ; 
  1171                           	file	"main.c"
  1172                           	line	452
  1173  000000                     	__size_of_Navigate	equ	__end_of_Navigate-_Navig
                                 ate
  1174                           ;main.c: 451: int Navigate(int key,int statevari
                                 able)
  1175                           ;main.c: 452: {
  1176                           	
  1177  00225E                     _Navigate:		; BSR set to: ?
  1178                           
  1179                           	opt stack 26
  1180                           	line	455
  1181                           ;main.c: 453: int i, max,cur_dig;
  1182                           ;main.c: 455: for(i=0; i<nodigit-1; i++)
  1183  00225E  0E00               	movlw	low(0)
  1184  002260  0102               	movlb	2	; () banked
  1185  002262  0102               	movlb	2	; () banked
  1186  002264  6F12               	movwf	((Navigate@i))&0ffh
  1187  002266  0E00               	movlw	high(0)
  1188  002268  0102               	movlb	2	; () banked
  1189  00226A  6F13               	movwf	((Navigate@i+1))&0ffh
  1190  00226C  EF4D  F011         	goto	l180
  1191                           	line	456
  1192                           	
  1193  002270                     l177:		; BSR set to: ?
  1194                           
  1195                           ;main.c: 456: max*=10;
  1196  002270  0E0A               	movlw	low(0Ah)
  1197  002272  0102               	movlb	2	; () banked
  1198  002274  0102               	movlb	2	; () banked
  1199  002276  6F30               	movwf	(0+(?___wmul+02h))&0ffh
  1200  002278  0E00               	movlw	high(0Ah)
  1201  00227A  0102               	movlb	2	; () banked
  1202  00227C  6F31               	movwf	(1+(?___wmul+02h))&0ffh
  1203  00227E  C20E  F22E         	movff	(Navigate@max),(?___wmul)
  1204  002282  C20F  F22F         	movff	(Navigate@max+1),(?___wmul+1)
  1205  002286  ECBC  F020         	call	___wmul	;wreg free
  1206  00228A  C22E  F20E         	movff	0+?___wmul,(Navigate@max)
  1207  00228E  C22F  F20F         	movff	1+?___wmul,(Navigate@max+1)
  1208                           	line	455
  1209  002292  0102               	movlb	2	; () banked
  1210  002294  0102               	movlb	2	; () banked
  1211  002296  4B12               	infsnz	((Navigate@i))&0ffh
  1212  002298  2B13               	incf	((Navigate@i+1))&0ffh
  1213                           	
  1214  00229A                     l180:		; BSR set to: ?
  1215                           
  1216  00229A  0EFF               	movlw	low(-1)
  1217  00229C  2442               	addwf	((c:66)),c,w
  1218  00229E  0102               	movlb	2	; () banked
  1219  0022A0  6F14               	movwf	(??_Navigate+6+0)&0ffh
  1220  0022A2  0102               	movlb	2	; () banked
  1221  0022A4  6B15               	clrf	1+(??_Navigate+6+0)&0ffh
  1222  0022A6  0EFF               	movlw	high(-1)
  1223  0022A8  0102               	movlb	2	; () banked
  1224  0022AA  2315               	addwfc	1+(??_Navigate+6+0)&0ffh
  1225  0022AC  0102               	movlb	2	; () banked
  1226  0022AE  0102               	movlb	2	; () banked
  1227  0022B0  5113               	movf	((Navigate@i+1))&0ffh,w
  1228  0022B2  0A80               	xorlw	80h
  1229  0022B4  0102               	movlb	2	; () banked
  1230  0022B6  6F16               	movwf	(??_Navigate+8+0)&0ffh
  1231  0022B8  5114               	movf	(??_Navigate+6+0)&0ffh,w
  1232  0022BA  0102               	movlb	2	; () banked
  1233  0022BC  0102               	movlb	2	; () banked
  1234  0022BE  5D12               	subwf	((Navigate@i))&0ffh,w
  1235  0022C0  0102               	movlb	2	; () banked
  1236  0022C2  5115               	movf	(??_Navigate+6+1)&0ffh,w
  1237  0022C4  0A80               	xorlw	80h
  1238  0022C6  0102               	movlb	2	; () banked
  1239  0022C8  5916               	subwfb	(??_Navigate+8+0)&0ffh,w
  1240  0022CA  A0D8               	btfss	status,0
  1241  0022CC  EF6A  F011         	goto	u3141
  1242  0022D0  EF6C  F011         	goto	u3140
  1243  0022D4                     u3141:
  1244  0022D4  EF38  F011         	goto	l177
  1245  0022D8                     u3140:
  1246                           	
  1247  0022D8                     l178:		; BSR set to: ?
  1248                           
  1249                           	line	458
  1250                           ;main.c: 458: if(statevariable > 9)
  1251  0022D8  0102               	movlb	2	; () banked
  1252  0022DA  0102               	movlb	2	; () banked
  1253  0022DC  510D               	movf	((Navigate@statevariable+1))&0ffh,w
  1254  0022DE  0A80               	xorlw	80h
  1255  0022E0  0F80               	addlw	-((0)^80h)
  1256  0022E2  0E0A               	movlw	0Ah
  1257  0022E4  B4D8               	btfsc	status,2
  1258  0022E6  5D0C               	subwf	((Navigate@statevariable))&0ffh,w
  1259  0022E8  A0D8               	btfss	status,0
  1260  0022EA  EF79  F011         	goto	u3151
  1261  0022EE  EF7B  F011         	goto	u3150
  1262  0022F2                     u3151:
  1263  0022F2  EFA2  F011         	goto	l181
  1264  0022F6                     u3150:
  1265                           	line	459
  1266                           ;main.c: 459: cur_dig = (statevariable % (cur_in
                                 c * 10))/cur_inc;
  1267  0022F6  0E0A               	movlw	low(0Ah)
  1268  0022F8  0102               	movlb	2	; () banked
  1269  0022FA  0102               	movlb	2	; () banked
  1270  0022FC  6F30               	movwf	(0+(?___wmul+02h))&0ffh
  1271  0022FE  0E00               	movlw	high(0Ah)
  1272  002300  0102               	movlb	2	; () banked
  1273  002302  6F31               	movwf	(1+(?___wmul+02h))&0ffh
  1274  002304  C01C F22E          	movff	(c:28),(?___wmul)
  1275  002308  C01D F22F          	movff	(c:28+1),(?___wmul+1)
  1276  00230C  ECBC  F020         	call	___wmul	;wreg free
  1277  002310  C22E  F21C         	movff	0+?___wmul,0+(?___awmod+02h)
  1278  002314  C22F  F21D         	movff	1+?___wmul,1+(?___awmod+02h)
  1279  002318  C20C  F21A         	movff	(Navigate@statevariable),(?___awmod)
  1280  00231C  C20D  F21B         	movff	(Navigate@statevariable+1),(?___awmod+1)
  1281  002320  EC0A  F01C         	call	___awmod	;wreg free
  1282  002324  C21A  F21A         	movff	0+?___awmod,(?___awdiv)
  1283  002328  C21B  F21B         	movff	1+?___awmod,(?___awdiv+1)
  1284  00232C  C01C F21C          	movff	(c:28),0+(?___awdiv+02h)
  1285  002330  C01D F21D          	movff	(c:28+1),1+(?___awdiv+02h)
  1286  002334  EC09  F01A         	call	___awdiv	;wreg free
  1287  002338  C21A  F210         	movff	0+?___awdiv,(Navigate@cur_dig)
  1288  00233C  C21B  F211         	movff	1+?___awdiv,(Navigate@cur_dig+1)
  1289  002340  EFA6  F011         	goto	l182
  1290                           	line	460
  1291                           	
  1292  002344                     l181:		; BSR set to: ?
  1293                           
  1294                           	line	461
  1295                           ;main.c: 460: else
  1296                           ;main.c: 461: cur_dig = statevariable;
  1297  002344  C20C  F210         	movff	(Navigate@statevariable),(Navigate@cur_di
                                 g)
  1298  002348  C20D  F211         	movff	(Navigate@statevariable+1),(Navigate@cur_
                                 dig+1)
  1299                           	
  1300  00234C                     l182:		; BSR set to: ?
  1301                           
  1302                           	line	464
  1303                           ;main.c: 464: switch(key)
  1304  00234C  EFB5  F012         	goto	l184
  1305                           	line	466
  1306                           ;main.c: 465: {
  1307                           ;main.c: 466: case 1:
  1308                           	
  1309  002350                     l185:		; BSR set to: ?
  1310                           
  1311                           	line	467
  1312                           ;main.c: 467: if(cur_dig < 9)
  1313  002350  0102               	movlb	2	; () banked
  1314  002352  0102               	movlb	2	; () banked
  1315  002354  5111               	movf	((Navigate@cur_dig+1))&0ffh,w
  1316  002356  0A80               	xorlw	80h
  1317  002358  0F80               	addlw	-((0)^80h)
  1318  00235A  0E09               	movlw	09h
  1319  00235C  B4D8               	btfsc	status,2
  1320  00235E  5D10               	subwf	((Navigate@cur_dig))&0ffh,w
  1321  002360  B0D8               	btfsc	status,0
  1322  002362  EFB5  F011         	goto	u3161
  1323  002366  EFB7  F011         	goto	u3160
  1324  00236A                     u3161:
  1325  00236A  EFF3  F011         	goto	l186
  1326  00236E                     u3160:
  1327                           	line	468
  1328                           ;main.c: 468: if((statevariable + cur_inc )<=(st
                                 ates[sw].statemax_val))
  1329  00236E  0102               	movlb	2	; () banked
  1330  002370  C20C  F214         	movff	(Navigate@statevariable),??_Navigate+6+0
  1331  002374  0102               	movlb	2	; () banked
  1332  002376  C20D  F215         	movff	(Navigate@statevariable+1),??_Navigate+6+
                                 0+1
  1333  00237A  501C               	movf	((c:28)),c,w
  1334  00237C  0102               	movlb	2	; () banked
  1335  00237E  2714               	addwf	(??_Navigate+6+0)&0ffh
  1336  002380  501D               	movf	((c:28+1)),c,w
  1337  002382  0102               	movlb	2	; () banked
  1338  002384  2315               	addwfc	(??_Navigate+6+1)&0ffh
  1339  002386  5019               	movf	((c:25)),c,w
  1340  002388  0D06               	mullw	06h
  1341  00238A  CFF3 F216          	movff	prodl,??_Navigate+8+0
  1342  00238E  0E02               	movlw	02h
  1343  002390  0102               	movlb	2	; () banked
  1344  002392  2716               	addwf	(??_Navigate+8+0)&0ffh
  1345  002394  0101               	movlb	1	; () banked
  1346  002396  0ECB               	movlw	low(459)
  1347  002398  0102               	movlb	2	; () banked
  1348  00239A  2516               	addwf	(??_Navigate+8+0)&0ffh,w
  1349  00239C  6EE9               	movwf	c:fsr0l
  1350  00239E  6AEA               	clrf	1+c:fsr0l
  1351  0023A0  0101               	movlb	1	; () banked
  1352  0023A2  0E01               	movlw	high(459)
  1353  0023A4  22EA               	addwfc	1+c:fsr0l
  1354  0023A6  CFEE F217          	movff	postinc0,??_Navigate+9+0
  1355  0023AA  CFED F218          	movff	postdec0,??_Navigate+9+0+1
  1356  0023AE  0102               	movlb	2	; () banked
  1357  0023B0  5118               	movf	(??_Navigate+9+1)&0ffh,w
  1358  0023B2  0A80               	xorlw	80h
  1359  0023B4  0102               	movlb	2	; () banked
  1360  0023B6  6F19               	movwf	(??_Navigate+11+0)&0ffh
  1361  0023B8  5114               	movf	(??_Navigate+6+0)&0ffh,w
  1362  0023BA  0102               	movlb	2	; () banked
  1363  0023BC  5D17               	subwf	(??_Navigate+9+0)&0ffh,w
  1364  0023BE  0102               	movlb	2	; () banked
  1365  0023C0  5115               	movf	(??_Navigate+6+1)&0ffh,w
  1366  0023C2  0A80               	xorlw	80h
  1367  0023C4  0102               	movlb	2	; () banked
  1368  0023C6  5919               	subwfb	(??_Navigate+11+0)&0ffh,w
  1369  0023C8  A0D8               	btfss	status,0
  1370  0023CA  EFE9  F011         	goto	u3171
  1371  0023CE  EFEB  F011         	goto	u3170
  1372  0023D2                     u3171:
  1373  0023D2  EFF3  F011         	goto	l186
  1374  0023D6                     u3170:
  1375                           	line	469
  1376                           ;main.c: 469: statevariable+=cur_inc;
  1377  0023D6  501C               	movf	((c:28)),c,w
  1378  0023D8  0102               	movlb	2	; () banked
  1379  0023DA  0102               	movlb	2	; () banked
  1380  0023DC  270C               	addwf	((Navigate@statevariable))&0ffh
  1381  0023DE  501D               	movf	((c:28+1)),c,w
  1382  0023E0  0102               	movlb	2	; () banked
  1383  0023E2  0102               	movlb	2	; () banked
  1384  0023E4  230D               	addwfc	((Navigate@statevariable+1))&0ffh
  1385                           
  1386                           	
  1387  0023E6                     l187:		; BSR set to: ?
  1388                           
  1389                           	line	472
  1390                           	
  1391  0023E6                     l186:		; BSR set to: ?
  1392                           
  1393                           ;main.c: 472: break;
  1394  0023E6  EFD7  F012         	goto	l183
  1395                           	line	474
  1396                           ;main.c: 474: case 2:
  1397                           	
  1398  0023EA                     l188:		; BSR set to: ?
  1399                           
  1400                           	line	475
  1401                           ;main.c: 475: if (cur_dig > 0)
  1402  0023EA  0102               	movlb	2	; () banked
  1403  0023EC  0102               	movlb	2	; () banked
  1404  0023EE  5111               	movf	((Navigate@cur_dig+1))&0ffh,w
  1405  0023F0  0A80               	xorlw	80h
  1406  0023F2  0F80               	addlw	-((0)^80h)
  1407  0023F4  0E01               	movlw	01h
  1408  0023F6  B4D8               	btfsc	status,2
  1409  0023F8  5D10               	subwf	((Navigate@cur_dig))&0ffh,w
  1410  0023FA  A0D8               	btfss	status,0
  1411  0023FC  EF02  F012         	goto	u3181
  1412  002400  EF04  F012         	goto	u3180
  1413  002404                     u3181:
  1414  002404  EFF3  F011         	goto	l186
  1415  002408                     u3180:
  1416                           	line	476
  1417                           ;main.c: 476: if((statevariable- cur_inc)>=(stat
                                 es[sw].statemin_val))
  1418  002408  5019               	movf	((c:25)),c,w
  1419  00240A  0D06               	mullw	06h
  1420  00240C  CFF3 F214          	movff	prodl,??_Navigate+6+0
  1421  002410  0E04               	movlw	04h
  1422  002412  0102               	movlb	2	; () banked
  1423  002414  2714               	addwf	(??_Navigate+6+0)&0ffh
  1424  002416  0101               	movlb	1	; () banked
  1425  002418  0ECB               	movlw	low(459)
  1426  00241A  0102               	movlb	2	; () banked
  1427  00241C  2514               	addwf	(??_Navigate+6+0)&0ffh,w
  1428  00241E  6EE9               	movwf	c:fsr0l
  1429  002420  6AEA               	clrf	1+c:fsr0l
  1430  002422  0101               	movlb	1	; () banked
  1431  002424  0E01               	movlw	high(459)
  1432  002426  22EA               	addwfc	1+c:fsr0l
  1433  002428  CFEE F215          	movff	postinc0,??_Navigate+7+0
  1434  00242C  CFED F216          	movff	postdec0,??_Navigate+7+0+1
  1435  002430  0102               	movlb	2	; () banked
  1436  002432  C20C  F217         	movff	(Navigate@statevariable),??_Navigate+9+0
  1437  002436  0102               	movlb	2	; () banked
  1438  002438  C20D  F218         	movff	(Navigate@statevariable+1),??_Navigate+9+
                                 0+1
  1439  00243C  501C               	movf	((c:28)),c,w
  1440  00243E  0102               	movlb	2	; () banked
  1441  002440  5F17               	subwf	(??_Navigate+9+0)&0ffh
  1442  002442  501D               	movf	((c:28+1)),c,w
  1443  002444  0102               	movlb	2	; () banked
  1444  002446  5B18               	subwfb	(??_Navigate+9+1)&0ffh
  1445  002448  0102               	movlb	2	; () banked
  1446  00244A  5118               	movf	(??_Navigate+9+1)&0ffh,w
  1447  00244C  0A80               	xorlw	80h
  1448  00244E  0102               	movlb	2	; () banked
  1449  002450  6F19               	movwf	(??_Navigate+11+0)&0ffh
  1450  002452  5115               	movf	(??_Navigate+7+0)&0ffh,w
  1451  002454  0102               	movlb	2	; () banked
  1452  002456  5D17               	subwf	(??_Navigate+9+0)&0ffh,w
  1453  002458  0102               	movlb	2	; () banked
  1454  00245A  5116               	movf	(??_Navigate+7+1)&0ffh,w
  1455  00245C  0A80               	xorlw	80h
  1456  00245E  0102               	movlb	2	; () banked
  1457  002460  5919               	subwfb	(??_Navigate+11+0)&0ffh,w
  1458  002462  A0D8               	btfss	status,0
  1459  002464  EF36  F012         	goto	u3191
  1460  002468  EF38  F012         	goto	u3190
  1461  00246C                     u3191:
  1462  00246C  EF40  F012         	goto	l189
  1463  002470                     u3190:
  1464                           	line	477
  1465                           ;main.c: 477: statevariable-=cur_inc;
  1466  002470  501C               	movf	((c:28)),c,w
  1467  002472  0102               	movlb	2	; () banked
  1468  002474  0102               	movlb	2	; () banked
  1469  002476  5F0C               	subwf	((Navigate@statevariable))&0ffh
  1470  002478  501D               	movf	((c:28+1)),c,w
  1471  00247A  0102               	movlb	2	; () banked
  1472  00247C  0102               	movlb	2	; () banked
  1473  00247E  5B0D               	subwfb	((Navigate@statevariable+1))&0ffh
  1474                           
  1475                           	
  1476  002480                     l190:		; BSR set to: ?
  1477                           
  1478                           	line	480
  1479                           	
  1480  002480                     l189:		; BSR set to: ?
  1481                           
  1482                           ;main.c: 480: break;
  1483  002480  EFD7  F012         	goto	l183
  1484                           	line	482
  1485                           ;main.c: 482: case 3:
  1486                           	
  1487  002484                     l191:		; BSR set to: ?
  1488                           
  1489                           	line	483
  1490                           ;main.c: 483: position++;
  1491  002484  2A48               	incf	((c:72)),c
  1492                           	line	485
  1493                           ;main.c: 485: cur_inc*=10;
  1494  002486  0E0A               	movlw	low(0Ah)
  1495  002488  0102               	movlb	2	; () banked
  1496  00248A  0102               	movlb	2	; () banked
  1497  00248C  6F30               	movwf	(0+(?___wmul+02h))&0ffh
  1498  00248E  0E00               	movlw	high(0Ah)
  1499  002490  0102               	movlb	2	; () banked
  1500  002492  6F31               	movwf	(1+(?___wmul+02h))&0ffh
  1501  002494  C01C F22E          	movff	(c:28),(?___wmul)
  1502  002498  C01D F22F          	movff	(c:28+1),(?___wmul+1)
  1503  00249C  ECBC  F020         	call	___wmul	;wreg free
  1504  0024A0  C22E  F01C         	movff	0+?___wmul,(c:28)
  1505  0024A4  C22F  F01D         	movff	1+?___wmul,(c:28+1)
  1506                           	line	487
  1507                           ;main.c: 487: if(cur_inc>max)
  1508  0024A8  0102               	movlb	2	; () banked
  1509  0024AA  0102               	movlb	2	; () banked
  1510  0024AC  510F               	movf	((Navigate@max+1))&0ffh,w
  1511  0024AE  0A80               	xorlw	80h
  1512  0024B0  0102               	movlb	2	; () banked
  1513  0024B2  6F14               	movwf	(??_Navigate+6+0)&0ffh
  1514  0024B4  501C               	movf	((c:28)),c,w
  1515  0024B6  0102               	movlb	2	; () banked
  1516  0024B8  0102               	movlb	2	; () banked
  1517  0024BA  5D0E               	subwf	((Navigate@max))&0ffh,w
  1518  0024BC  501D               	movf	((c:28+1)),c,w
  1519  0024BE  0A80               	xorlw	80h
  1520  0024C0  0102               	movlb	2	; () banked
  1521  0024C2  5914               	subwfb	(??_Navigate+6+0)&0ffh,w
  1522  0024C4  B0D8               	btfsc	status,0
  1523  0024C6  EF67  F012         	goto	u3201
  1524  0024CA  EF69  F012         	goto	u3200
  1525  0024CE                     u3201:
  1526  0024CE  EFF3  F011         	goto	l186
  1527  0024D2                     u3200:
  1528                           	line	488
  1529                           ;main.c: 488: cur_inc=1;
  1530  0024D2  0E01               	movlw	low(01h)
  1531  0024D4  6E1C               	movwf	((c:28)),c
  1532  0024D6  0E00               	movlw	high(01h)
  1533  0024D8  6E1D               	movwf	((c:28+1)),c
  1534                           	
  1535  0024DA                     l192:		; BSR set to: ?
  1536                           
  1537                           	line	489
  1538                           ;main.c: 489: break;
  1539  0024DA  EFD7  F012         	goto	l183
  1540                           	line	491
  1541                           ;main.c: 491: case 4:
  1542                           	
  1543  0024DE                     l193:		; BSR set to: ?
  1544                           
  1545                           	line	492
  1546                           ;main.c: 492: sw=states[sw].enter_state;
  1547  0024DE  5019               	movf	((c:25)),c,w
  1548  0024E0  0D06               	mullw	06h
  1549  0024E2  0101               	movlb	1	; () banked
  1550  0024E4  0ECB               	movlw	low(459)
  1551  0024E6  24F3               	addwf	(prodl),c,w
  1552  0024E8  6EE9               	movwf	c:fsr0l
  1553  0024EA  6AEA               	clrf	1+c:fsr0l
  1554  0024EC  0101               	movlb	1	; () banked
  1555  0024EE  0E01               	movlw	high(459)
  1556  0024F0  22EA               	addwfc	1+c:fsr0l
  1557  0024F2  50EF               	movf	indf0,w
  1558  0024F4  0102               	movlb	2	; () banked
  1559  0024F6  6F14               	movwf	(??_Navigate+6+0)&0ffh
  1560  0024F8  0102               	movlb	2	; () banked
  1561  0024FA  5114               	movf	((??_Navigate+6+0))&0ffh,w
  1562  0024FC  6E19               	movwf	((c:25)),c
  1563  0024FE  6A1A               	clrf	((c:25+1)),c
  1564                           	line	494
  1565                           ;main.c: 494: cur_inc=1;
  1566  002500  0E01               	movlw	low(01h)
  1567  002502  6E1C               	movwf	((c:28)),c
  1568  002504  0E00               	movlw	high(01h)
  1569  002506  6E1D               	movwf	((c:28+1)),c
  1570                           	line	495
  1571                           ;main.c: 495: position=0xc0;
  1572  002508  0102               	movlb	2	; () banked
  1573  00250A  6F14               	movwf	(??_Navigate+6+0)&0ffh
  1574  00250C  0EC0               	movlw	low(0C0h)
  1575  00250E  6E48               	movwf	((c:72)),c
  1576  002510  0102               	movlb	2	; () banked
  1577  002512  5114               	movf	(??_Navigate+6+0)&0ffh,w
  1578                           	line	497
  1579                           ;main.c: 497: break;
  1580  002514  EFD7  F012         	goto	l183
  1581                           	line	499
  1582                           ;main.c: 499: case 5:
  1583                           	
  1584  002518                     l194:		; BSR set to: ?
  1585                           
  1586                           	line	500
  1587                           ;main.c: 500: sw=states[sw].escape_state;
  1588  002518  5019               	movf	((c:25)),c,w
  1589  00251A  0D06               	mullw	06h
  1590  00251C  CFF3 F214          	movff	prodl,??_Navigate+6+0
  1591  002520  0E01               	movlw	01h
  1592  002522  0102               	movlb	2	; () banked
  1593  002524  2714               	addwf	(??_Navigate+6+0)&0ffh
  1594  002526  0101               	movlb	1	; () banked
  1595  002528  0ECB               	movlw	low(459)
  1596  00252A  0102               	movlb	2	; () banked
  1597  00252C  2514               	addwf	(??_Navigate+6+0)&0ffh,w
  1598  00252E  6EE9               	movwf	c:fsr0l
  1599  002530  6AEA               	clrf	1+c:fsr0l
  1600  002532  0101               	movlb	1	; () banked
  1601  002534  0E01               	movlw	high(459)
  1602  002536  22EA               	addwfc	1+c:fsr0l
  1603  002538  50EF               	movf	indf0,w
  1604  00253A  0102               	movlb	2	; () banked
  1605  00253C  6F15               	movwf	(??_Navigate+7+0)&0ffh
  1606  00253E  0102               	movlb	2	; () banked
  1607  002540  5115               	movf	((??_Navigate+7+0))&0ffh,w
  1608  002542  6E19               	movwf	((c:25)),c
  1609  002544  6A1A               	clrf	((c:25+1)),c
  1610                           	line	501
  1611                           ;main.c: 501: cur_inc=1;
  1612  002546  0E01               	movlw	low(01h)
  1613  002548  6E1C               	movwf	((c:28)),c
  1614  00254A  0E00               	movlw	high(01h)
  1615  00254C  6E1D               	movwf	((c:28+1)),c
  1616                           	line	502
  1617                           ;main.c: 502: position=0xc0;
  1618  00254E  0102               	movlb	2	; () banked
  1619  002550  6F14               	movwf	(??_Navigate+6+0)&0ffh
  1620  002552  0EC0               	movlw	low(0C0h)
  1621  002554  6E48               	movwf	((c:72)),c
  1622  002556  0102               	movlb	2	; () banked
  1623  002558  5114               	movf	(??_Navigate+6+0)&0ffh,w
  1624                           	line	504
  1625                           ;main.c: 504: break;
  1626  00255A  EFD7  F012         	goto	l183
  1627                           	line	506
  1628                           ;main.c: 506: case 6:
  1629                           	
  1630  00255E                     l195:		; BSR set to: ?
  1631                           
  1632                           	line	507
  1633                           ;main.c: 507: sw = 2;
  1634  00255E  0E02               	movlw	low(02h)
  1635  002560  6E19               	movwf	((c:25)),c
  1636  002562  0E00               	movlw	high(02h)
  1637  002564  6E1A               	movwf	((c:25+1)),c
  1638                           	line	509
  1639                           ;main.c: 509: break;
  1640  002566  EFD7  F012         	goto	l183
  1641                           	line	464
  1642                           	
  1643  00256A                     l184:		; BSR set to: ?
  1644                           
  1645  00256A  0102               	movlb	2	; () banked
  1646  00256C  C20A  F214         	movff	(Navigate@key),??_Navigate+6+0
  1647  002570  0102               	movlb	2	; () banked
  1648  002572  C20B  F215         	movff	(Navigate@key+1),??_Navigate+6+0+1
  1649  002576  0102               	movlb	2	; () banked
  1650  002578  EFD1  F012         	goto	l30023
  1651  00257C                     l30024:
  1652  00257C  0102               	movlb	2	; () banked
  1653  00257E  5114               	movf	(??_Navigate+6+0)&0ffh,w
  1654  002580  0A01               	xorlw	1 ^ 0
  1655  002582  E101 D6E5          	bz	l185
  1656  002586  0A03               	xorlw	2 ^ 1
  1657  002588  E101 D72F          	bz	l188
  1658  00258C  0A01               	xorlw	3 ^ 2
  1659  00258E  E101 D779          	bz	l191
  1660  002592  0A07               	xorlw	4 ^ 3
  1661  002594  E0A4               	bz	l193
  1662  002596  0A01               	xorlw	5 ^ 4
  1663  002598  E0BF               	bz	l194
  1664  00259A  0A03               	xorlw	6 ^ 5
  1665  00259C  E0E0               	bz	l195
  1666  00259E  EFD7  F012         	goto	l183
  1667                           
  1668  0025A2                     l30023:
  1669  0025A2  0102               	movlb	2	; () banked
  1670  0025A4  5115               	movf	(??_Navigate+6+1)&0ffh,w
  1671  0025A6  0A00               	xorlw	0 ^ 0
  1672  0025A8  E0E9               	bz	l30024
  1673  0025AA  EFD7  F012         	goto	l183
  1674                           
  1675                           	line	511
  1676                           	
  1677  0025AE                     l183:		; BSR set to: ?
  1678                           
  1679                           	line	512
  1680  0025AE  C20C  F20A         	movff	(Navigate@statevariable),(?_Navigate)
  1681  0025B2  C20D  F20B         	movff	(Navigate@statevariable+1),(?_Navigate+1)
  1682  0025B6  EFDD  F012         	goto	l176
  1683                           	line	513
  1684                           ;main.c: 513: }
  1685  0025BA                     l176:
  1686                           			; BSR set to: ?
  1687                           
  1688  0025BA  0012               	return
  1689                           	opt stack 0
  1690                           GLOBAL __end_of_Navigate
  1691  0025BC                     	__end_of_Navigate:
  1692                           	FNSIZE	_Navigate,12,4
  1693                           ; =============== function _Navigate ends ======
                                 ======
  1694                           
  1695                           	signat	_Navigate,8314
  1696                           	global	_waitkey
  1697                           	global	??_waitkey
  1698                           	global	?_waitkey
  1699                           
  1700                           ; *************** function _waitkey ************
                                 *****
  1701                           ; Defined at:
  1702                           ;		line 364 in file "main.c"
  1703                           ; Parameters:
  1704                           ;		None
  1705                           ; Auto variables:
  1706                           ;		detected    	       	type: int 
  1707                           ; Return value:
  1708                           ;		type: int 
  1709                           ;		size: 2
  1710                           ; Registers used:
  1711                           ;		wreg, status,2, status,0
  1712                           ; Tracked objects:
  1713                           ;		On entry : 0/0
  1714                           ;		On exit  : 0/0
  1715                           ;		Unchanged: 0/0
  1716                           ; Data sizes:
  1717                           ;		Autos:    2
  1718                           ;		Params:   2
  1719                           ;		Temp:     0
  1720                           ;		Total:    4
  1721                           ; This function calls:
  1722                           ;		Nothing
  1723                           ; This function is called by:
  1724                           ;		_main
  1725                           ; This function uses a non-reentrant model
  1726                           ; 
  1727                                   psect   text2,class=CODE,space=0,reloc=2
  1728                           
  1729                           	opt lm
  1730                           	file	"main.c"
  1731                           	line	364
  1732  000000                     	__size_of_waitkey	equ	__end_of_waitkey-_waitkey
  1733                           ;main.c: 363: int waitkey( void)
  1734                           ;main.c: 364: {
  1735                           	
  1736  002CB8                     _waitkey:		; BSR set to: ?
  1737                           
  1738                           	opt stack 26
  1739                           	line	365
  1740                           ;main.c: 365: int detected=0;
  1741  002CB8  0E00               	movlw	low(0)
  1742  002CBA  0102               	movlb	2	; () banked
  1743  002CBC  0102               	movlb	2	; () banked
  1744  002CBE  6F0C               	movwf	((waitkey@detected))&0ffh
  1745  002CC0  0E00               	movlw	high(0)
  1746  002CC2  0102               	movlb	2	; () banked
  1747  002CC4  6F0D               	movwf	((waitkey@detected+1))&0ffh
  1748                           	line	366
  1749                           ;main.c: 366: while(detected==0)
  1750  002CC6  EF97  F016         	goto	l140
  1751                           	
  1752  002CCA                     l141:		; BSR set to: ?
  1753                           
  1754                           	line	368
  1755                           ;main.c: 367: {
  1756                           ;main.c: 368: if(RA6==0)
  1757  002CCA  BC80               	btfsc	c:(31750/8),(31750)&7	;volatile
  1758  002CCC  EF6A  F016         	goto	u3211
  1759  002CD0  EF6C  F016         	goto	u3210
  1760  002CD4                     u3211:
  1761  002CD4  EF6F  F016         	goto	l143
  1762  002CD8                     u3210:
  1763                           	line	369
  1764                           ;main.c: 369: detected|=0b00000001;
  1765  002CD8  0102               	movlb	2	; () banked
  1766  002CDA  0102               	movlb	2	; () banked
  1767  002CDC  810C               	bsf	(0+(0/8)+(waitkey@detected))&0ffh,(0)&7
  1768                           	
  1769  002CDE                     l143:		; BSR set to: ?
  1770                           
  1771                           	line	370
  1772                           ;main.c: 370: if(RA7==0)
  1773  002CDE  BE80               	btfsc	c:(31751/8),(31751)&7	;volatile
  1774  002CE0  EF74  F016         	goto	u3221
  1775  002CE4  EF76  F016         	goto	u3220
  1776  002CE8                     u3221:
  1777  002CE8  EF79  F016         	goto	l144
  1778  002CEC                     u3220:
  1779                           	line	371
  1780                           ;main.c: 371: detected|=0b00000010 ;
  1781  002CEC  0102               	movlb	2	; () banked
  1782  002CEE  0102               	movlb	2	; () banked
  1783  002CF0  830C               	bsf	(0+(1/8)+(waitkey@detected))&0ffh,(1)&7
  1784                           	
  1785  002CF2                     l144:		; BSR set to: ?
  1786                           
  1787                           	line	372
  1788                           ;main.c: 372: if(RC0==0)
  1789  002CF2  B082               	btfsc	c:(31760/8),(31760)&7	;volatile
  1790  002CF4  EF7E  F016         	goto	u3231
  1791  002CF8  EF80  F016         	goto	u3230
  1792  002CFC                     u3231:
  1793  002CFC  EF83  F016         	goto	l145
  1794  002D00                     u3230:
  1795                           	line	373
  1796                           ;main.c: 373: detected|=0b00000100;
  1797  002D00  0102               	movlb	2	; () banked
  1798  002D02  0102               	movlb	2	; () banked
  1799  002D04  850C               	bsf	(0+(2/8)+(waitkey@detected))&0ffh,(2)&7
  1800                           	
  1801  002D06                     l145:		; BSR set to: ?
  1802                           
  1803                           	line	374
  1804                           ;main.c: 374: if(RC1==0)
  1805  002D06  B282               	btfsc	c:(31761/8),(31761)&7	;volatile
  1806  002D08  EF88  F016         	goto	u3241
  1807  002D0C  EF8A  F016         	goto	u3240
  1808  002D10                     u3241:
  1809  002D10  EF8D  F016         	goto	l146
  1810  002D14                     u3240:
  1811                           	line	375
  1812                           ;main.c: 375: detected|= 0b00001000;
  1813  002D14  0102               	movlb	2	; () banked
  1814  002D16  0102               	movlb	2	; () banked
  1815  002D18  870C               	bsf	(0+(3/8)+(waitkey@detected))&0ffh,(3)&7
  1816                           	
  1817  002D1A                     l146:		; BSR set to: ?
  1818                           
  1819                           	line	376
  1820                           ;main.c: 376: if(RD0==0)
  1821  002D1A  B083               	btfsc	c:(31768/8),(31768)&7	;volatile
  1822  002D1C  EF92  F016         	goto	u3251
  1823  002D20  EF94  F016         	goto	u3250
  1824  002D24                     u3251:
  1825  002D24  EF97  F016         	goto	l140
  1826  002D28                     u3250:
  1827                           	line	377
  1828                           ;main.c: 377: detected|= 0b00010000;
  1829  002D28  0102               	movlb	2	; () banked
  1830  002D2A  0102               	movlb	2	; () banked
  1831  002D2C  890C               	bsf	(0+(4/8)+(waitkey@detected))&0ffh,(4)&7
  1832                           	
  1833  002D2E                     l147:		; BSR set to: ?
  1834                           
  1835                           	line	379
  1836                           	
  1837  002D2E                     l140:		; BSR set to: ?
  1838                           
  1839                           	line	366
  1840  002D2E  0102               	movlb	2	; () banked
  1841  002D30  0102               	movlb	2	; () banked
  1842  002D32  510D               	movf	((waitkey@detected+1))&0ffh,w
  1843  002D34  110C               	iorwf ((waitkey@detected))&0ffh,w
  1844                           
  1845  002D36  B4D8               	btfsc	status,2
  1846  002D38  EFA0  F016         	goto	u3261
  1847  002D3C  EFA2  F016         	goto	u3260
  1848  002D40                     u3261:
  1849  002D40  EF65  F016         	goto	l141
  1850  002D44                     u3260:
  1851                           	
  1852  002D44                     l142:		; BSR set to: ?
  1853                           
  1854                           	line	380
  1855                           ;main.c: 379: }
  1856                           ;main.c: 380: if(detected==0b00010101)
  1857  002D44  0102               	movlb	2	; () banked
  1858  002D46  0102               	movlb	2	; () banked
  1859  002D48  510C               	movf	((waitkey@detected))&0ffh,w
  1860  002D4A  0A15               	xorlw	21
  1861  002D4C  110D               	iorwf ((waitkey@detected+1))&0ffh,w
  1862                           
  1863  002D4E  A4D8               	btfss	status,2
  1864  002D50  EFAC  F016         	goto	u3271
  1865  002D54  EFAE  F016         	goto	u3270
  1866  002D58                     u3271:
  1867  002D58  EFBB  F016         	goto	l148
  1868  002D5C                     u3270:
  1869                           	line	382
  1870                           ;main.c: 381: {
  1871                           ;main.c: 382: sw = 2;
  1872  002D5C  0E02               	movlw	low(02h)
  1873  002D5E  6E19               	movwf	((c:25)),c
  1874  002D60  0E00               	movlw	high(02h)
  1875  002D62  6E1A               	movwf	((c:25+1)),c
  1876                           	line	383
  1877  002D64  0E00               	movlw	low(0)
  1878  002D66  0102               	movlb	2	; () banked
  1879  002D68  0102               	movlb	2	; () banked
  1880  002D6A  6F0A               	movwf	((?_waitkey))&0ffh
  1881  002D6C  0E00               	movlw	high(0)
  1882  002D6E  0102               	movlb	2	; () banked
  1883  002D70  6F0B               	movwf	((?_waitkey+1))&0ffh
  1884  002D72  EF23  F017         	goto	l139
  1885                           	line	385
  1886                           	
  1887  002D76                     l148:		; BSR set to: ?
  1888                           
  1889                           ;main.c: 385: else if(detected==0b00000001)
  1890  002D76  0102               	movlb	2	; () banked
  1891  002D78  0102               	movlb	2	; () banked
  1892  002D7A  050C               	decf	((waitkey@detected))&0ffh,w
  1893  002D7C  110D               	iorwf ((waitkey@detected+1))&0ffh,w
  1894                           
  1895  002D7E  A4D8               	btfss	status,2
  1896  002D80  EFC4  F016         	goto	u3281
  1897  002D84  EFC6  F016         	goto	u3280
  1898  002D88                     u3281:
  1899  002D88  EFCF  F016         	goto	l150
  1900  002D8C                     u3280:
  1901                           	line	387
  1902  002D8C  0E01               	movlw	low(01h)
  1903  002D8E  0102               	movlb	2	; () banked
  1904  002D90  0102               	movlb	2	; () banked
  1905  002D92  6F0A               	movwf	((?_waitkey))&0ffh
  1906  002D94  0E00               	movlw	high(01h)
  1907  002D96  0102               	movlb	2	; () banked
  1908  002D98  6F0B               	movwf	((?_waitkey+1))&0ffh
  1909  002D9A  EF23  F017         	goto	l139
  1910                           	line	389
  1911                           	
  1912  002D9E                     l150:		; BSR set to: ?
  1913                           
  1914                           ;main.c: 389: else if(detected==0b00000010)
  1915  002D9E  0102               	movlb	2	; () banked
  1916  002DA0  0102               	movlb	2	; () banked
  1917  002DA2  510C               	movf	((waitkey@detected))&0ffh,w
  1918  002DA4  0A02               	xorlw	2
  1919  002DA6  110D               	iorwf ((waitkey@detected+1))&0ffh,w
  1920                           
  1921  002DA8  A4D8               	btfss	status,2
  1922  002DAA  EFD9  F016         	goto	u3291
  1923  002DAE  EFDB  F016         	goto	u3290
  1924  002DB2                     u3291:
  1925  002DB2  EFE4  F016         	goto	l152
  1926  002DB6                     u3290:
  1927                           	line	391
  1928  002DB6  0E02               	movlw	low(02h)
  1929  002DB8  0102               	movlb	2	; () banked
  1930  002DBA  0102               	movlb	2	; () banked
  1931  002DBC  6F0A               	movwf	((?_waitkey))&0ffh
  1932  002DBE  0E00               	movlw	high(02h)
  1933  002DC0  0102               	movlb	2	; () banked
  1934  002DC2  6F0B               	movwf	((?_waitkey+1))&0ffh
  1935  002DC4  EF23  F017         	goto	l139
  1936                           	line	393
  1937                           	
  1938  002DC8                     l152:		; BSR set to: ?
  1939                           
  1940                           ;main.c: 393: else if(detected==0b00000100)
  1941  002DC8  0102               	movlb	2	; () banked
  1942  002DCA  0102               	movlb	2	; () banked
  1943  002DCC  510C               	movf	((waitkey@detected))&0ffh,w
  1944  002DCE  0A04               	xorlw	4
  1945  002DD0  110D               	iorwf ((waitkey@detected+1))&0ffh,w
  1946                           
  1947  002DD2  A4D8               	btfss	status,2
  1948  002DD4  EFEE  F016         	goto	u3301
  1949  002DD8  EFF0  F016         	goto	u3300
  1950  002DDC                     u3301:
  1951  002DDC  EFF9  F016         	goto	l154
  1952  002DE0                     u3300:
  1953                           	line	395
  1954  002DE0  0E03               	movlw	low(03h)
  1955  002DE2  0102               	movlb	2	; () banked
  1956  002DE4  0102               	movlb	2	; () banked
  1957  002DE6  6F0A               	movwf	((?_waitkey))&0ffh
  1958  002DE8  0E00               	movlw	high(03h)
  1959  002DEA  0102               	movlb	2	; () banked
  1960  002DEC  6F0B               	movwf	((?_waitkey+1))&0ffh
  1961  002DEE  EF23  F017         	goto	l139
  1962                           	line	397
  1963                           	
  1964  002DF2                     l154:		; BSR set to: ?
  1965                           
  1966                           ;main.c: 397: else if(detected==0b00001000)
  1967  002DF2  0102               	movlb	2	; () banked
  1968  002DF4  0102               	movlb	2	; () banked
  1969  002DF6  510C               	movf	((waitkey@detected))&0ffh,w
  1970  002DF8  0A08               	xorlw	8
  1971  002DFA  110D               	iorwf ((waitkey@detected+1))&0ffh,w
  1972                           
  1973  002DFC  A4D8               	btfss	status,2
  1974  002DFE  EF03  F017         	goto	u3311
  1975  002E02  EF05  F017         	goto	u3310
  1976  002E06                     u3311:
  1977  002E06  EF0E  F017         	goto	l156
  1978  002E0A                     u3310:
  1979                           	line	399
  1980  002E0A  0E04               	movlw	low(04h)
  1981  002E0C  0102               	movlb	2	; () banked
  1982  002E0E  0102               	movlb	2	; () banked
  1983  002E10  6F0A               	movwf	((?_waitkey))&0ffh
  1984  002E12  0E00               	movlw	high(04h)
  1985  002E14  0102               	movlb	2	; () banked
  1986  002E16  6F0B               	movwf	((?_waitkey+1))&0ffh
  1987  002E18  EF23  F017         	goto	l139
  1988                           	line	401
  1989                           	
  1990  002E1C                     l156:		; BSR set to: ?
  1991                           
  1992                           ;main.c: 401: else if(detected==0b00010000)
  1993  002E1C  0102               	movlb	2	; () banked
  1994  002E1E  0102               	movlb	2	; () banked
  1995  002E20  510C               	movf	((waitkey@detected))&0ffh,w
  1996  002E22  0A10               	xorlw	16
  1997  002E24  110D               	iorwf ((waitkey@detected+1))&0ffh,w
  1998                           
  1999  002E26  A4D8               	btfss	status,2
  2000  002E28  EF18  F017         	goto	u3321
  2001  002E2C  EF1A  F017         	goto	u3320
  2002  002E30                     u3321:
  2003  002E30  EF23  F017         	goto	l149
  2004  002E34                     u3320:
  2005                           	line	403
  2006  002E34  0E05               	movlw	low(05h)
  2007  002E36  0102               	movlb	2	; () banked
  2008  002E38  0102               	movlb	2	; () banked
  2009  002E3A  6F0A               	movwf	((?_waitkey))&0ffh
  2010  002E3C  0E00               	movlw	high(05h)
  2011  002E3E  0102               	movlb	2	; () banked
  2012  002E40  6F0B               	movwf	((?_waitkey+1))&0ffh
  2013  002E42  EF23  F017         	goto	l139
  2014                           	line	406
  2015                           	
  2016  002E46                     l149:		; BSR set to: ?
  2017                           
  2018                           ;main.c: 404: }
  2019                           ;main.c: 406: }
  2020  002E46                     l139:
  2021                           			; BSR set to: ?
  2022                           
  2023  002E46  0012               	return
  2024                           	opt stack 0
  2025                           GLOBAL __end_of_waitkey
  2026  002E48                     	__end_of_waitkey:
  2027                           	FNSIZE	_waitkey,2,2
  2028                           ; =============== function _waitkey ends =======
                                 =====
  2029                           
  2030                           	signat	_waitkey,90
  2031                           	global	_read_adc
  2032                           	global	??_read_adc
  2033                           	global	?_read_adc
  2034                           
  2035                           ; *************** function _read_adc ***********
                                 ******
  2036                           ; Defined at:
  2037                           ;		line 651 in file "main.c"
  2038                           ; Parameters:
  2039                           ;		None
  2040                           ; Auto variables:
  2041                           ;		None
  2042                           ; Return value:
  2043                           ;		type: int 
  2044                           ;		size: 2
  2045                           ; Registers used:
  2046                           ;		wreg, status,2, status,0, cstack
  2047                           ; Tracked objects:
  2048                           ;		On entry : 0/0
  2049                           ;		On exit  : 0/0
  2050                           ;		Unchanged: 0/0
  2051                           ; Data sizes:
  2052                           ;		Autos:    0
  2053                           ;		Params:   2
  2054                           ;		Temp:     0
  2055                           ;		Total:    2
  2056                           ; This function calls:
  2057                           ;		_DelayMs
  2058                           ; This function is called by:
  2059                           ;		_main
  2060                           ; This function uses a non-reentrant model
  2061                           ; 
  2062                                   psect   text3,class=CODE,space=0,reloc=2
  2063                           
  2064                           	opt lm
  2065                           	file	"main.c"
  2066                           	line	651
  2067  000000                     	__size_of_read_adc	equ	__end_of_read_adc-_read_
                                 adc
  2068                           ;main.c: 650: int read_adc(void)
  2069                           ;main.c: 651: {
  2070                           	
  2071  0041EC                     _read_adc:		; BSR set to: ?
  2072                           
  2073                           	opt stack 26
  2074                           	line	652
  2075  0041EC  9C9E               	bcf	c:(31990/8),(31990)&7	;volatile
  2076                           	line	653
  2077                           ;main.c: 653: ADCON0bits.ADON = 1;
  2078  0041EE  80C2               	bsf	((c:4034)),c,0	;volatile
  2079                           	line	657
  2080                           ;main.c: 657: DelayMs(10);
  2081  0041F0  0E0A               	movlw	low(0Ah)
  2082  0041F2  0102               	movlb	2	; () banked
  2083  0041F4  0102               	movlb	2	; () banked
  2084  0041F6  6F1B               	movwf	((?_DelayMs))&0ffh
  2085  0041F8  0E00               	movlw	high(0Ah)
  2086  0041FA  0102               	movlb	2	; () banked
  2087  0041FC  6F1C               	movwf	((?_DelayMs+1))&0ffh
  2088  0041FE  EC26  F020         	call	_DelayMs	;wreg free
  2089                           	line	659
  2090                           ;main.c: 659: ADCON0 |= 0b010;
  2091  004202  82C2               	bsf	(0+(1/8)+(c:4034)),c,(1)&7	;volatile
  2092                           	line	660
  2093                           ;main.c: 660: while(!ADIF){}
  2094  004204  EF04  F021         	goto	l219
  2095                           	
  2096  004208                     l219:		; BSR set to: ?
  2097                           
  2098  004208  AC9E               	btfss	c:(31990/8),(31990)&7	;volatile
  2099  00420A  EF09  F021         	goto	u3331
  2100  00420E  EF0B  F021         	goto	u3330
  2101  004212                     u3331:
  2102  004212  EF04  F021         	goto	l219
  2103  004216                     u3330:
  2104                           	
  2105  004216                     l221:		; BSR set to: ?
  2106                           
  2107                           	line	661
  2108                           ;main.c: 661: ADIF = 0;
  2109  004216  9C9E               	bcf	c:(31990/8),(31990)&7	;volatile
  2110                           	line	662
  2111                           ;main.c: 662: ADCON0bits.ADON = 0;
  2112  004218  90C2               	bcf	((c:4034)),c,0	;volatile
  2113                           	line	663
  2114                           ;main.c: 663: ADC_Count = ADRESH;
  2115  00421A  CFC4 F031          	movff	(c:4036),(c:49)	;volatile
  2116  00421E  6A32               	clrf	((c:49+1)),c
  2117                           	line	664
  2118                           ;main.c: 664: ADC_Count <<= 8 ;
  2119  004220  5031               	movf	((c:49)),c,w
  2120  004222  6E32               	movwf	((c:49+1)),c
  2121  004224  6A31               	clrf	((c:49)),c
  2122                           	line	665
  2123                           ;main.c: 665: ADC_Count += ADRESL;
  2124  004226  50C3               	movf	((c:4035)),c,w	;volatile
  2125  004228  2631               	addwf	((c:49)),c
  2126  00422A  0E00               	movlw	0
  2127  00422C  2232               	addwfc	((c:49+1)),c
  2128                           	line	666
  2129                           ;main.c: 666: ADC_Count = ADC_Count & 0x03ff;
  2130  00422E  0EFF               	movlw	0FFh
  2131  004230  1431               	andwf	((c:49)),c,w
  2132                           	
  2133  004232  6E31               	movwf	((c:49)),c
  2134  004234  0E03               	movlw	03h
  2135  004236  1432               	andwf	((c:49+1)),c,w
  2136  004238  6E32               	movwf	1+((c:49)),c
  2137                           	line	667
  2138                           ;main.c: 667: ADIF = 0;
  2139  00423A  9C9E               	bcf	c:(31990/8),(31990)&7	;volatile
  2140                           	line	668
  2141  00423C  C031 F20A          	movff	(c:49),(?_read_adc)
  2142  004240  C032 F20B          	movff	(c:49+1),(?_read_adc+1)
  2143  004244  EF24  F021         	goto	l218
  2144                           	line	670
  2145                           ;main.c: 670: }
  2146  004248                     l218:
  2147                           			; BSR set to: ?
  2148                           
  2149  004248  0012               	return
  2150                           	opt stack 0
  2151                           GLOBAL __end_of_read_adc
  2152  00424A                     	__end_of_read_adc:
  2153                           	FNSIZE	_read_adc,0,2
  2154                           ; =============== function _read_adc ends ======
                                 ======
  2155                           
  2156                           	signat	_read_adc,90
  2157                           	global	_getkey
  2158                           	global	??_getkey
  2159                           	global	?_getkey
  2160                           
  2161                           ; *************** function _getkey *************
                                 ****
  2162                           ; Defined at:
  2163                           ;		line 408 in file "main.c"
  2164                           ; Parameters:
  2165                           ;		None
  2166                           ; Auto variables:
  2167                           ;		detected    	       	type: int 
  2168                           ; Return value:
  2169                           ;		type: int 
  2170                           ;		size: 2
  2171                           ; Registers used:
  2172                           ;		wreg, status,2, status,0
  2173                           ; Tracked objects:
  2174                           ;		On entry : 0/0
  2175                           ;		On exit  : 0/0
  2176                           ;		Unchanged: 0/0
  2177                           ; Data sizes:
  2178                           ;		Autos:    2
  2179                           ;		Params:   2
  2180                           ;		Temp:     0
  2181                           ;		Total:    4
  2182                           ; This function calls:
  2183                           ;		Nothing
  2184                           ; This function is called by:
  2185                           ;		_main
  2186                           ; This function uses a non-reentrant model
  2187                           ; 
  2188                                   psect   text4,class=CODE,space=0,reloc=2
  2189                           
  2190                           	opt lm
  2191                           	file	"main.c"
  2192                           	line	408
  2193  000000                     	__size_of_getkey	equ	__end_of_getkey-_getkey
  2194                           ;main.c: 407: int getkey()
  2195                           ;main.c: 408: {
  2196                           	
  2197  002E48                     _getkey:		; BSR set to: ?
  2198                           
  2199                           	opt stack 26
  2200                           	line	409
  2201  002E48  0E00               	movlw	low(0)
  2202  002E4A  0102               	movlb	2	; () banked
  2203  002E4C  0102               	movlb	2	; () banked
  2204  002E4E  6F0C               	movwf	((getkey@detected))&0ffh
  2205  002E50  0E00               	movlw	high(0)
  2206  002E52  0102               	movlb	2	; () banked
  2207  002E54  6F0D               	movwf	((getkey@detected+1))&0ffh
  2208                           	line	410
  2209                           ;main.c: 410: if(RA6==0)
  2210  002E56  BC80               	btfsc	c:(31750/8),(31750)&7	;volatile
  2211  002E58  EF30  F017         	goto	u3341
  2212  002E5C  EF32  F017         	goto	u3340
  2213  002E60                     u3341:
  2214  002E60  EF35  F017         	goto	l160
  2215  002E64                     u3340:
  2216                           	line	411
  2217                           ;main.c: 411: detected|=0b00000001;
  2218  002E64  0102               	movlb	2	; () banked
  2219  002E66  0102               	movlb	2	; () banked
  2220  002E68  810C               	bsf	(0+(0/8)+(getkey@detected))&0ffh,(0)&7
  2221                           	
  2222  002E6A                     l160:		; BSR set to: ?
  2223                           
  2224                           	line	412
  2225                           ;main.c: 412: if(RA7==0)
  2226  002E6A  BE80               	btfsc	c:(31751/8),(31751)&7	;volatile
  2227  002E6C  EF3A  F017         	goto	u3351
  2228  002E70  EF3C  F017         	goto	u3350
  2229  002E74                     u3351:
  2230  002E74  EF3F  F017         	goto	l161
  2231  002E78                     u3350:
  2232                           	line	413
  2233                           ;main.c: 413: detected|=0b00000010 ;
  2234  002E78  0102               	movlb	2	; () banked
  2235  002E7A  0102               	movlb	2	; () banked
  2236  002E7C  830C               	bsf	(0+(1/8)+(getkey@detected))&0ffh,(1)&7
  2237                           	
  2238  002E7E                     l161:		; BSR set to: ?
  2239                           
  2240                           	line	414
  2241                           ;main.c: 414: if(RC0==0)
  2242  002E7E  B082               	btfsc	c:(31760/8),(31760)&7	;volatile
  2243  002E80  EF44  F017         	goto	u3361
  2244  002E84  EF46  F017         	goto	u3360
  2245  002E88                     u3361:
  2246  002E88  EF49  F017         	goto	l162
  2247  002E8C                     u3360:
  2248                           	line	415
  2249                           ;main.c: 415: detected|=0b00000100;
  2250  002E8C  0102               	movlb	2	; () banked
  2251  002E8E  0102               	movlb	2	; () banked
  2252  002E90  850C               	bsf	(0+(2/8)+(getkey@detected))&0ffh,(2)&7
  2253                           	
  2254  002E92                     l162:		; BSR set to: ?
  2255                           
  2256                           	line	416
  2257                           ;main.c: 416: if(RC1==0)
  2258  002E92  B282               	btfsc	c:(31761/8),(31761)&7	;volatile
  2259  002E94  EF4E  F017         	goto	u3371
  2260  002E98  EF50  F017         	goto	u3370
  2261  002E9C                     u3371:
  2262  002E9C  EF53  F017         	goto	l163
  2263  002EA0                     u3370:
  2264                           	line	417
  2265                           ;main.c: 417: detected|= 0b00001000;
  2266  002EA0  0102               	movlb	2	; () banked
  2267  002EA2  0102               	movlb	2	; () banked
  2268  002EA4  870C               	bsf	(0+(3/8)+(getkey@detected))&0ffh,(3)&7
  2269                           	
  2270  002EA6                     l163:		; BSR set to: ?
  2271                           
  2272                           	line	418
  2273                           ;main.c: 418: if(RD0==0)
  2274  002EA6  B083               	btfsc	c:(31768/8),(31768)&7	;volatile
  2275  002EA8  EF58  F017         	goto	u3381
  2276  002EAC  EF5A  F017         	goto	u3380
  2277  002EB0                     u3381:
  2278  002EB0  EF5D  F017         	goto	l164
  2279  002EB4                     u3380:
  2280                           	line	419
  2281                           ;main.c: 419: detected|= 0b00010000;
  2282  002EB4  0102               	movlb	2	; () banked
  2283  002EB6  0102               	movlb	2	; () banked
  2284  002EB8  890C               	bsf	(0+(4/8)+(getkey@detected))&0ffh,(4)&7
  2285                           	
  2286  002EBA                     l164:		; BSR set to: ?
  2287                           
  2288                           	line	422
  2289                           ;main.c: 422: if(detected==0b00010101)
  2290  002EBA  0102               	movlb	2	; () banked
  2291  002EBC  0102               	movlb	2	; () banked
  2292  002EBE  510C               	movf	((getkey@detected))&0ffh,w
  2293  002EC0  0A15               	xorlw	21
  2294  002EC2  110D               	iorwf ((getkey@detected+1))&0ffh,w
  2295                           
  2296  002EC4  A4D8               	btfss	status,2
  2297  002EC6  EF67  F017         	goto	u3391
  2298  002ECA  EF69  F017         	goto	u3390
  2299  002ECE                     u3391:
  2300  002ECE  EF76  F017         	goto	l165
  2301  002ED2                     u3390:
  2302                           	line	424
  2303                           ;main.c: 423: {
  2304                           ;main.c: 424: sw = 2;
  2305  002ED2  0E02               	movlw	low(02h)
  2306  002ED4  6E19               	movwf	((c:25)),c
  2307  002ED6  0E00               	movlw	high(02h)
  2308  002ED8  6E1A               	movwf	((c:25+1)),c
  2309                           	line	425
  2310  002EDA  0E06               	movlw	low(06h)
  2311  002EDC  0102               	movlb	2	; () banked
  2312  002EDE  0102               	movlb	2	; () banked
  2313  002EE0  6F0A               	movwf	((?_getkey))&0ffh
  2314  002EE2  0E00               	movlw	high(06h)
  2315  002EE4  0102               	movlb	2	; () banked
  2316  002EE6  6F0B               	movwf	((?_getkey+1))&0ffh
  2317  002EE8  EFE7  F017         	goto	l159
  2318                           	line	427
  2319                           	
  2320  002EEC                     l165:		; BSR set to: ?
  2321                           
  2322                           ;main.c: 427: else if(detected==0b00000001)
  2323  002EEC  0102               	movlb	2	; () banked
  2324  002EEE  0102               	movlb	2	; () banked
  2325  002EF0  050C               	decf	((getkey@detected))&0ffh,w
  2326  002EF2  110D               	iorwf ((getkey@detected+1))&0ffh,w
  2327                           
  2328  002EF4  A4D8               	btfss	status,2
  2329  002EF6  EF7F  F017         	goto	u3401
  2330  002EFA  EF81  F017         	goto	u3400
  2331  002EFE                     u3401:
  2332  002EFE  EF8A  F017         	goto	l167
  2333  002F02                     u3400:
  2334                           	line	429
  2335  002F02  0E01               	movlw	low(01h)
  2336  002F04  0102               	movlb	2	; () banked
  2337  002F06  0102               	movlb	2	; () banked
  2338  002F08  6F0A               	movwf	((?_getkey))&0ffh
  2339  002F0A  0E00               	movlw	high(01h)
  2340  002F0C  0102               	movlb	2	; () banked
  2341  002F0E  6F0B               	movwf	((?_getkey+1))&0ffh
  2342  002F10  EFE7  F017         	goto	l159
  2343                           	line	431
  2344                           	
  2345  002F14                     l167:		; BSR set to: ?
  2346                           
  2347                           ;main.c: 431: else if(detected==0b00000010)
  2348  002F14  0102               	movlb	2	; () banked
  2349  002F16  0102               	movlb	2	; () banked
  2350  002F18  510C               	movf	((getkey@detected))&0ffh,w
  2351  002F1A  0A02               	xorlw	2
  2352  002F1C  110D               	iorwf ((getkey@detected+1))&0ffh,w
  2353                           
  2354  002F1E  A4D8               	btfss	status,2
  2355  002F20  EF94  F017         	goto	u3411
  2356  002F24  EF96  F017         	goto	u3410
  2357  002F28                     u3411:
  2358  002F28  EF9F  F017         	goto	l169
  2359  002F2C                     u3410:
  2360                           	line	433
  2361  002F2C  0E02               	movlw	low(02h)
  2362  002F2E  0102               	movlb	2	; () banked
  2363  002F30  0102               	movlb	2	; () banked
  2364  002F32  6F0A               	movwf	((?_getkey))&0ffh
  2365  002F34  0E00               	movlw	high(02h)
  2366  002F36  0102               	movlb	2	; () banked
  2367  002F38  6F0B               	movwf	((?_getkey+1))&0ffh
  2368  002F3A  EFE7  F017         	goto	l159
  2369                           	line	435
  2370                           	
  2371  002F3E                     l169:		; BSR set to: ?
  2372                           
  2373                           ;main.c: 435: else if(detected==0b00000100)
  2374  002F3E  0102               	movlb	2	; () banked
  2375  002F40  0102               	movlb	2	; () banked
  2376  002F42  510C               	movf	((getkey@detected))&0ffh,w
  2377  002F44  0A04               	xorlw	4
  2378  002F46  110D               	iorwf ((getkey@detected+1))&0ffh,w
  2379                           
  2380  002F48  A4D8               	btfss	status,2
  2381  002F4A  EFA9  F017         	goto	u3421
  2382  002F4E  EFAB  F017         	goto	u3420
  2383  002F52                     u3421:
  2384  002F52  EFB4  F017         	goto	l171
  2385  002F56                     u3420:
  2386                           	line	437
  2387  002F56  0E03               	movlw	low(03h)
  2388  002F58  0102               	movlb	2	; () banked
  2389  002F5A  0102               	movlb	2	; () banked
  2390  002F5C  6F0A               	movwf	((?_getkey))&0ffh
  2391  002F5E  0E00               	movlw	high(03h)
  2392  002F60  0102               	movlb	2	; () banked
  2393  002F62  6F0B               	movwf	((?_getkey+1))&0ffh
  2394  002F64  EFE7  F017         	goto	l159
  2395                           	line	439
  2396                           	
  2397  002F68                     l171:		; BSR set to: ?
  2398                           
  2399                           ;main.c: 439: else if(detected==0b00001000)
  2400  002F68  0102               	movlb	2	; () banked
  2401  002F6A  0102               	movlb	2	; () banked
  2402  002F6C  510C               	movf	((getkey@detected))&0ffh,w
  2403  002F6E  0A08               	xorlw	8
  2404  002F70  110D               	iorwf ((getkey@detected+1))&0ffh,w
  2405                           
  2406  002F72  A4D8               	btfss	status,2
  2407  002F74  EFBE  F017         	goto	u3431
  2408  002F78  EFC0  F017         	goto	u3430
  2409  002F7C                     u3431:
  2410  002F7C  EFC9  F017         	goto	l173
  2411  002F80                     u3430:
  2412                           	line	441
  2413  002F80  0E04               	movlw	low(04h)
  2414  002F82  0102               	movlb	2	; () banked
  2415  002F84  0102               	movlb	2	; () banked
  2416  002F86  6F0A               	movwf	((?_getkey))&0ffh
  2417  002F88  0E00               	movlw	high(04h)
  2418  002F8A  0102               	movlb	2	; () banked
  2419  002F8C  6F0B               	movwf	((?_getkey+1))&0ffh
  2420  002F8E  EFE7  F017         	goto	l159
  2421                           	line	443
  2422                           	
  2423  002F92                     l173:		; BSR set to: ?
  2424                           
  2425                           ;main.c: 443: else if(detected==0b00010000)
  2426  002F92  0102               	movlb	2	; () banked
  2427  002F94  0102               	movlb	2	; () banked
  2428  002F96  510C               	movf	((getkey@detected))&0ffh,w
  2429  002F98  0A10               	xorlw	16
  2430  002F9A  110D               	iorwf ((getkey@detected+1))&0ffh,w
  2431                           
  2432  002F9C  A4D8               	btfss	status,2
  2433  002F9E  EFD3  F017         	goto	u3441
  2434  002FA2  EFD5  F017         	goto	u3440
  2435  002FA6                     u3441:
  2436  002FA6  EFDE  F017         	goto	l166
  2437  002FAA                     u3440:
  2438                           	line	445
  2439  002FAA  0E05               	movlw	low(05h)
  2440  002FAC  0102               	movlb	2	; () banked
  2441  002FAE  0102               	movlb	2	; () banked
  2442  002FB0  6F0A               	movwf	((?_getkey))&0ffh
  2443  002FB2  0E00               	movlw	high(05h)
  2444  002FB4  0102               	movlb	2	; () banked
  2445  002FB6  6F0B               	movwf	((?_getkey+1))&0ffh
  2446  002FB8  EFE7  F017         	goto	l159
  2447                           	line	447
  2448                           	
  2449  002FBC                     l166:		; BSR set to: ?
  2450                           
  2451  002FBC  0E07               	movlw	low(07h)
  2452  002FBE  0102               	movlb	2	; () banked
  2453  002FC0  0102               	movlb	2	; () banked
  2454  002FC2  6F0A               	movwf	((?_getkey))&0ffh
  2455  002FC4  0E00               	movlw	high(07h)
  2456  002FC6  0102               	movlb	2	; () banked
  2457  002FC8  6F0B               	movwf	((?_getkey+1))&0ffh
  2458  002FCA  EFE7  F017         	goto	l159
  2459                           	line	449
  2460                           ;main.c: 449: }
  2461  002FCE                     l159:
  2462                           			; BSR set to: ?
  2463                           
  2464  002FCE  0012               	return
  2465                           	opt stack 0
  2466                           GLOBAL __end_of_getkey
  2467  002FD0                     	__end_of_getkey:
  2468                           	FNSIZE	_getkey,2,2
  2469                           ; =============== function _getkey ends ========
                                 ====
  2470                           
  2471                           	signat	_getkey,90
  2472                           	global	_dispnum
  2473                           	global	??_dispnum
  2474                           	global	?_dispnum
  2475                           
  2476                           ; *************** function _dispnum ************
                                 *****
  2477                           ; Defined at:
  2478                           ;		line 610 in file "main.c"
  2479                           ; Parameters:
  2480                           ;		number         size:   2offs:   0	type: int 
  2481                           ;		pos            size:   1offs:   2	type: unsig
                                 ned char 
  2482                           ; Auto variables:
  2483                           ;		i           	       	type: int 
  2484                           ; Return value:
  2485                           ;		type: int 
  2486                           ;		size: 2
  2487                           ; Registers used:
  2488                           ;		wreg, fsr0l, fsr0h, status,2, status,0, tblpt
                                 rl, tblptrh, tblptru, tablat, cstack
  2489                           ; Tracked objects:
  2490                           ;		On entry : 0/0
  2491                           ;		On exit  : 0/0
  2492                           ;		Unchanged: 0/0
  2493                           ; Data sizes:
  2494                           ;		Autos:    2
  2495                           ;		Params:   3
  2496                           ;		Temp:     3
  2497                           ;		Total:    8
  2498                           ; This function calls:
  2499                           ;		___awmod
  2500                           ;		___awdiv
  2501                           ;		_Display
  2502                           ; This function is called by:
  2503                           ;		_main
  2504                           ; This function uses a non-reentrant model
  2505                           ; 
  2506                                   psect   text5,class=CODE,space=0,reloc=2
  2507                           
  2508                           	opt lm
  2509                           	file	"main.c"
  2510                           	line	610
  2511  000000                     	__size_of_dispnum	equ	__end_of_dispnum-_dispnum
  2512                           ;main.c: 609: int dispnum(int number,char pos)
  2513                           ;main.c: 610: {
  2514                           	
  2515  003E04                     _dispnum:		; BSR set to: ?
  2516                           
  2517                           	opt stack 26
  2518                           	line	616
  2519                           ;main.c: 611: int i;
  2520                           ;main.c: 616: for(i=pos+nodigit;i>pos;i--)
  2521  003E04  0102               	movlb	2	; () banked
  2522  003E06  0102               	movlb	2	; () banked
  2523  003E08  510C               	movf	((dispnum@pos))&0ffh,w
  2524  003E0A  2442               	addwf	((c:66)),c,w
  2525  003E0C  0102               	movlb	2	; () banked
  2526                           	
  2527  003E0E  0102               	movlb	2	; () banked
  2528  003E10  6F0D               	movwf	((dispnum@i))&0ffh
  2529  003E12  0102               	movlb	2	; () banked
  2530  003E14  6B0E               	clrf	1+((dispnum@i))&0ffh
  2531  003E16  0102               	movlb	2	; () banked
  2532  003E18  370E               	rlcf	1+((dispnum@i))&0ffh
  2533                           	
  2534  003E1A  EF3F  F01F         	goto	l215
  2535                           	line	617
  2536                           	
  2537  003E1E                     l212:		; BSR set to: ?
  2538                           
  2539                           	line	618
  2540                           ;main.c: 617: {
  2541                           ;main.c: 618: numstr[i]=((number%10)+0x30);
  2542  003E1E  0E09               	movlw	low((c:9))
  2543  003E20  0102               	movlb	2	; () banked
  2544  003E22  0102               	movlb	2	; () banked
  2545  003E24  250D               	addwf	((dispnum@i))&0ffh,w
  2546  003E26  6EE9               	movwf	c:fsr0l
  2547  003E28  6AEA               	clrf	1+c:fsr0l
  2548  003E2A  0E00               	movlw	high((c:9))
  2549  003E2C  22EA               	addwfc	1+c:fsr0l
  2550  003E2E  0E0A               	movlw	low(0Ah)
  2551  003E30  0102               	movlb	2	; () banked
  2552  003E32  0102               	movlb	2	; () banked
  2553  003E34  6F1C               	movwf	(0+(?___awmod+02h))&0ffh
  2554  003E36  0E00               	movlw	high(0Ah)
  2555  003E38  0102               	movlb	2	; () banked
  2556  003E3A  6F1D               	movwf	(1+(?___awmod+02h))&0ffh
  2557  003E3C  C20A  F21A         	movff	(dispnum@number),(?___awmod)
  2558  003E40  C20B  F21B         	movff	(dispnum@number+1),(?___awmod+1)
  2559  003E44  EC0A  F01C         	call	___awmod	;wreg free
  2560  003E48  0102               	movlb	2	; () banked
  2561  003E4A  0102               	movlb	2	; () banked
  2562  003E4C  511A               	movf	(0+?___awmod)&0ffh,w
  2563  003E4E  0F30               	addlw	low(030h)
  2564  003E50  6EEF               	movwf	indf0
  2565                           
  2566                           	line	619
  2567                           ;main.c: 619: number=number/10;
  2568  003E52  0E0A               	movlw	low(0Ah)
  2569  003E54  0102               	movlb	2	; () banked
  2570  003E56  0102               	movlb	2	; () banked
  2571  003E58  6F1C               	movwf	(0+(?___awdiv+02h))&0ffh
  2572  003E5A  0E00               	movlw	high(0Ah)
  2573  003E5C  0102               	movlb	2	; () banked
  2574  003E5E  6F1D               	movwf	(1+(?___awdiv+02h))&0ffh
  2575  003E60  C20A  F21A         	movff	(dispnum@number),(?___awdiv)
  2576  003E64  C20B  F21B         	movff	(dispnum@number+1),(?___awdiv+1)
  2577  003E68  EC09  F01A         	call	___awdiv	;wreg free
  2578  003E6C  C21A  F20A         	movff	0+?___awdiv,(dispnum@number)
  2579  003E70  C21B  F20B         	movff	1+?___awdiv,(dispnum@number+1)
  2580                           	line	616
  2581  003E74  0102               	movlb	2	; () banked
  2582  003E76  0102               	movlb	2	; () banked
  2583  003E78  070D               	decf	((dispnum@i))&0ffh
  2584  003E7A  A0D8               	btfss	status,0
  2585  003E7C  070E               	decf	((dispnum@i+1))&0ffh
  2586                           	
  2587  003E7E                     l215:		; BSR set to: ?
  2588                           
  2589  003E7E  0102               	movlb	2	; () banked
  2590  003E80  C20C  F20F         	movff	(dispnum@pos),??_dispnum+2+0
  2591  003E84  0102               	movlb	2	; () banked
  2592  003E86  6B10               	clrf	(??_dispnum+2+0+1)&0ffh
  2593  003E88  0102               	movlb	2	; () banked
  2594  003E8A  5110               	movf	(??_dispnum+2+1)&0ffh,w
  2595  003E8C  0A80               	xorlw	80h
  2596  003E8E  0102               	movlb	2	; () banked
  2597  003E90  6F11               	movwf	(??_dispnum+4+0)&0ffh
  2598  003E92  0102               	movlb	2	; () banked
  2599  003E94  510D               	movf	((dispnum@i))&0ffh,w
  2600  003E96  0102               	movlb	2	; () banked
  2601  003E98  5D0F               	subwf	(??_dispnum+2+0)&0ffh,w
  2602  003E9A  0102               	movlb	2	; () banked
  2603  003E9C  0102               	movlb	2	; () banked
  2604  003E9E  510E               	movf	((dispnum@i+1))&0ffh,w
  2605  003EA0  0A80               	xorlw	80h
  2606  003EA2  0102               	movlb	2	; () banked
  2607  003EA4  5911               	subwfb	(??_dispnum+4+0)&0ffh,w
  2608  003EA6  A0D8               	btfss	status,0
  2609  003EA8  EF58  F01F         	goto	u3451
  2610  003EAC  EF5A  F01F         	goto	u3450
  2611  003EB0                     u3451:
  2612  003EB0  EF0F  F01F         	goto	l212
  2613  003EB4                     u3450:
  2614                           	
  2615  003EB4                     l213:		; BSR set to: ?
  2616                           
  2617                           	line	622
  2618                           ;main.c: 620: }
  2619                           ;main.c: 622: Display(numstr,0xc0);
  2620  003EB4  0102               	movlb	2	; () banked
  2621  003EB6  6F0F               	movwf	(??_dispnum+2+0)&0ffh
  2622  003EB8  0EC0               	movlw	low(0C0h)
  2623  003EBA  0102               	movlb	2	; () banked
  2624  003EBC  0102               	movlb	2	; () banked
  2625  003EBE  6F14               	movwf	(0+(?_Display+02h))&0ffh
  2626  003EC0  0102               	movlb	2	; () banked
  2627  003EC2  510F               	movf	(??_dispnum+2+0)&0ffh,w
  2628  003EC4  0E09               	movlw	low((c:9))
  2629  003EC6  0102               	movlb	2	; () banked
  2630  003EC8  0102               	movlb	2	; () banked
  2631  003ECA  6F12               	movwf	((?_Display))&0ffh
  2632  003ECC  0E00               	movlw	high((c:9))
  2633  003ECE  0102               	movlb	2	; () banked
  2634  003ED0  6F13               	movwf	((?_Display+1))&0ffh
  2635  003ED2  EC93  F01E         	call	_Display	;wreg free
  2636                           	line	623
  2637                           ;main.c: 623: }
  2638  003ED6                     l211:
  2639                           			; BSR set to: ?
  2640                           
  2641  003ED6  0012               	return
  2642                           	opt stack 0
  2643                           GLOBAL __end_of_dispnum
  2644  003ED8                     	__end_of_dispnum:
  2645                           	FNSIZE	_dispnum,5,3
  2646                           ; =============== function _dispnum ends =======
                                 =====
  2647                           
  2648                           	signat	_dispnum,8314
  2649                           	global	___awtoft
  2650                           	global	??___awtoft
  2651                           	global	?___awtoft
  2652                           
  2653                           ; *************** function ___awtoft ***********
                                 ******
  2654                           ; Defined at:
  2655                           ;		line 16 in file "C:\Program Files\HI-TECH Sof
                                 tware\PICC-18\PRO\9.65\sources\awtoft.c"
  2656                           ; Parameters:
  2657                           ;		c              size:   2offs:   0	type: int 
  2658                           ; Auto variables:
  2659                           ;		f1          	       	type: float 
  2660                           ; Return value:
  2661                           ;		type: float 
  2662                           ;		size: 3
  2663                           ; Registers used:
  2664                           ;		wreg, fsr0l, fsr0h, status,2, status,0, cstac
                                 k
  2665                           ; Tracked objects:
  2666                           ;		On entry : 0/0
  2667                           ;		On exit  : 0/0
  2668                           ;		Unchanged: 0/0
  2669                           ; Data sizes:
  2670                           ;		Autos:    3
  2671                           ;		Params:   3
  2672                           ;		Temp:     1
  2673                           ;		Total:    7
  2674                           ; This function calls:
  2675                           ;		___ftpack
  2676                           ;		___ftneg
  2677                           ; This function is called by:
  2678                           ;		_main
  2679                           ; This function uses a non-reentrant model
  2680                           ; 
  2681                                   psect   text6,class=CODE,space=0,reloc=2
  2682                           
  2683                           	opt lm
  2684                           	file	"C:\Program Files\HI-TECH Software\PICC-18
                                 \PRO\9.65\sources\awtoft.c"
  2685                           	line	16
  2686  000000                     	__size_of___awtoft	equ	__end_of___awtoft-___awt
                                 oft
  2687                           	
  2688  003C48                     ___awtoft:		; BSR set to: ?
  2689                           
  2690                           	opt stack 26
  2691                           	line	19
  2692  003C48  0102               	movlb	2	; () banked
  2693  003C4A  0102               	movlb	2	; () banked
  2694  003C4C  510B               	movf	((___awtoft@c+1))&0ffh,w
  2695  003C4E  110A               	iorwf ((___awtoft@c))&0ffh,w
  2696                           
  2697  003C50  A4D8               	btfss	status,2
  2698  003C52  EF2D  F01E         	goto	u3461
  2699  003C56  EF2F  F01E         	goto	u3460
  2700  003C5A                     u3461:
  2701  003C5A  EF3D  F01E         	goto	l343
  2702  003C5E                     u3460:
  2703                           	line	20
  2704  003C5E  0E00               	movlw	low(float24(0.00000000000000000))
  2705  003C60  0102               	movlb	2	; () banked
  2706  003C62  0102               	movlb	2	; () banked
  2707  003C64  6F0A               	movwf	((?___awtoft))&0ffh
  2708  003C66  0E00               	movlw	high(float24(0.00000000000000000))
  2709  003C68  0102               	movlb	2	; () banked
  2710  003C6A  0102               	movlb	2	; () banked
  2711  003C6C  6F0B               	movwf	((?___awtoft+1))&0ffh
  2712  003C6E  0E00               	movlw	low highword(float24(0.00000000000000000)
                                 )
  2713  003C70  0102               	movlb	2	; () banked
  2714  003C72  0102               	movlb	2	; () banked
  2715  003C74  6F0C               	movwf	((?___awtoft+2))&0ffh
  2716                           
  2717  003C76  EF92  F01E         	goto	l342
  2718                           	
  2719  003C7A                     l343:		; BSR set to: ?
  2720                           
  2721                           	line	21
  2722  003C7A  0102               	movlb	2	; () banked
  2723  003C7C  0102               	movlb	2	; () banked
  2724  003C7E  C20A  F20D         	movff	(___awtoft@c),(___awtoft@f1)
  2725  003C82  0102               	movlb	2	; () banked
  2726  003C84  0102               	movlb	2	; () banked
  2727  003C86  C20B  F20E         	movff	(___awtoft@c+1),(___awtoft@f1+1)
  2728  003C8A  0102               	movlb	2	; () banked
  2729  003C8C  0102               	movlb	2	; () banked
  2730  003C8E  6B0F               	clrf	((___awtoft@f1+2))&0ffh
  2731  003C90  0102               	movlb	2	; () banked
  2732  003C92  BF0E               	btfsc	((___awtoft@f1+1))&0ffh,7
  2733  003C94  070F               	decf	((___awtoft@f1+2))&0ffh
  2734                           	line	22
  2735  003C96  0102               	movlb	2	; () banked
  2736  003C98  0102               	movlb	2	; () banked
  2737  003C9A  AF0B               	btfss	((___awtoft@c+1))&0ffh,7
  2738  003C9C  EF52  F01E         	goto	u3471
  2739  003CA0  EF54  F01E         	goto	u3470
  2740  003CA4                     u3471:
  2741  003CA4  EF60  F01E         	goto	l344
  2742  003CA8                     u3470:
  2743                           	line	23
  2744  003CA8  0102               	movlb	2	; () banked
  2745  003CAA  0102               	movlb	2	; () banked
  2746  003CAC  1F0F               	comf	((___awtoft@f1+2))&0ffh
  2747  003CAE  0102               	movlb	2	; () banked
  2748  003CB0  1F0E               	comf	((___awtoft@f1+1))&0ffh
  2749  003CB2  0102               	movlb	2	; () banked
  2750  003CB4  6D0D               	negf	((___awtoft@f1))&0ffh
  2751  003CB6  0E00               	movlw	0
  2752  003CB8  0102               	movlb	2	; () banked
  2753  003CBA  230E               	addwfc	((___awtoft@f1+1))&0ffh
  2754  003CBC  0102               	movlb	2	; () banked
  2755  003CBE  230F               	addwfc	((___awtoft@f1+2))&0ffh
  2756                           	
  2757  003CC0                     l344:		; BSR set to: ?
  2758                           
  2759                           	line	24
  2760  003CC0  0102               	movlb	2	; () banked
  2761  003CC2  6F10               	movwf	(??___awtoft+3+0)&0ffh
  2762  003CC4  0E8E               	movlw	low(08Eh)
  2763  003CC6  0102               	movlb	2	; () banked
  2764  003CC8  0102               	movlb	2	; () banked
  2765  003CCA  6F42               	movwf	(0+(?___ftpack+02h))&0ffh
  2766  003CCC  0102               	movlb	2	; () banked
  2767  003CCE  5110               	movf	(??___awtoft+3+0)&0ffh,w
  2768  003CD0  0102               	movlb	2	; () banked
  2769  003CD2  0E0D               	movlw	low(___awtoft@f1)
  2770  003CD4  0102               	movlb	2	; () banked
  2771  003CD6  0102               	movlb	2	; () banked
  2772  003CD8  6F40               	movwf	((?___ftpack))&0ffh
  2773  003CDA  0102               	movlb	2	; () banked
  2774  003CDC  0E02               	movlw	high(___awtoft@f1)
  2775  003CDE  0102               	movlb	2	; () banked
  2776  003CE0  6F41               	movwf	((?___ftpack+1))&0ffh
  2777  003CE2  EC9F  F018         	call	___ftpack	;wreg free
  2778                           	line	25
  2779  003CE6  0102               	movlb	2	; () banked
  2780  003CE8  0102               	movlb	2	; () banked
  2781  003CEA  AF0B               	btfss	((___awtoft@c+1))&0ffh,7
  2782  003CEC  EF7A  F01E         	goto	u3481
  2783  003CF0  EF7C  F01E         	goto	u3480
  2784  003CF4                     u3481:
  2785  003CF4  EF8A  F01E         	goto	l345
  2786  003CF8                     u3480:
  2787                           	line	26
  2788  003CF8  C20D  F211         	movff	(___awtoft@f1),(?___ftneg)
  2789  003CFC  C20E  F212         	movff	(___awtoft@f1+1),(?___ftneg+1)
  2790  003D00  C20F  F213         	movff	(___awtoft@f1+2),(?___ftneg+2)
  2791  003D04  EC25  F021         	call	___ftneg	;wreg free
  2792  003D08  C211  F20D         	movff	0+?___ftneg,(___awtoft@f1)
  2793  003D0C  C212  F20E         	movff	1+?___ftneg,(___awtoft@f1+1)
  2794  003D10  C213  F20F         	movff	2+?___ftneg,(___awtoft@f1+2)
  2795                           	
  2796  003D14                     l345:		; BSR set to: ?
  2797                           
  2798                           	line	27
  2799  003D14  C20D  F20A         	movff	(___awtoft@f1),(?___awtoft)
  2800  003D18  C20E  F20B         	movff	(___awtoft@f1+1),(?___awtoft+1)
  2801  003D1C  C20F  F20C         	movff	(___awtoft@f1+2),(?___awtoft+2)
  2802  003D20  EF92  F01E         	goto	l342
  2803                           	line	28
  2804  003D24                     l342:
  2805                           			; BSR set to: ?
  2806                           
  2807  003D24  0012               	return
  2808                           	opt stack 0
  2809                           GLOBAL __end_of___awtoft
  2810  003D26                     	__end_of___awtoft:
  2811                           	FNSIZE	___awtoft,4,3
  2812                           ; =============== function ___awtoft ends ======
                                 ======
  2813                           
  2814                           	signat	___awtoft,4219
  2815                           	global	_choose_tcouple
  2816                           	global	??_choose_tcouple
  2817                           	global	?_choose_tcouple
  2818                           
  2819                           ; *************** function _choose_tcouple *****
                                 ************
  2820                           ; Defined at:
  2821                           ;		line 883 in file "main.c"
  2822                           ; Parameters:
  2823                           ;		None
  2824                           ; Auto variables:
  2825                           ;		None
  2826                           ; Return value:
  2827                           ;		type: void 
  2828                           ;		size: 0
  2829                           ; Registers used:
  2830                           ;		wreg, status,2, status,0
  2831                           ; Tracked objects:
  2832                           ;		On entry : 0/0
  2833                           ;		On exit  : 0/0
  2834                           ;		Unchanged: 0/0
  2835                           ; Data sizes:
  2836                           ;		Autos:    0
  2837                           ;		Params:   0
  2838                           ;		Temp:     0
  2839                           ;		Total:    0
  2840                           ; This function calls:
  2841                           ;		Nothing
  2842                           ; This function is called by:
  2843                           ;		_main
  2844                           ; This function uses a non-reentrant model
  2845                           ; 
  2846                                   psect   text7,class=CODE,space=0,reloc=2
  2847                           
  2848                           	opt lm
  2849                           	file	"main.c"
  2850                           	line	883
  2851  000000                     	__size_of_choose_tcouple	equ	__end_of_choose_tc
                                 ouple-_choose_tcouple
  2852                           ;main.c: 882: void choose_tcouple(void)
  2853                           ;main.c: 883: {
  2854                           	
  2855  00431C                     _choose_tcouple:		; BSR set to: ?
  2856                           
  2857                           	opt stack 26
  2858                           	line	884
  2859                           ;main.c: 884: if(thermocouple_type==0)
  2860  00431C  501F               	movf	((c:30+1)),c,w
  2861  00431E  101E               	iorwf ((c:30)),c,w
  2862                           
  2863  004320  A4D8               	btfss	status,2
  2864  004322  EF95  F021         	goto	u3491
  2865  004326  EF97  F021         	goto	u3490
  2866  00432A                     u3491:
  2867  00432A  EF9D  F021         	goto	l253
  2868  00432E                     u3490:
  2869                           	line	886
  2870                           ;main.c: 885: {
  2871                           ;main.c: 886: LATB1=1;
  2872  00432E  828A               	bsf	c:(31825/8),(31825)&7	;volatile
  2873                           	line	887
  2874                           ;main.c: 887: LATB0=1;
  2875  004330  808A               	bsf	c:(31824/8),(31824)&7	;volatile
  2876                           	line	888
  2877                           ;main.c: 888: LATD7=0;
  2878  004332  9E8C               	bcf	c:(31847/8),(31847)&7	;volatile
  2879                           	line	889
  2880                           ;main.c: 889: LATD6=0;
  2881  004334  9C8C               	bcf	c:(31846/8),(31846)&7	;volatile
  2882                           	line	890
  2883                           ;main.c: 890: LATD5=0;
  2884  004336  9A8C               	bcf	c:(31845/8),(31845)&7	;volatile
  2885                           	line	891
  2886                           ;main.c: 891: LATD4=0;
  2887  004338  988C               	bcf	c:(31844/8),(31844)&7	;volatile
  2888                           	line	893
  2889                           	
  2890  00433A                     l253:		; BSR set to: ?
  2891                           
  2892                           	line	894
  2893                           ;main.c: 893: }
  2894                           ;main.c: 894: if(thermocouple_type==1)
  2895  00433A  041E               	decf	((c:30)),c,w
  2896  00433C  101F               	iorwf ((c:30+1)),c,w
  2897                           
  2898  00433E  A4D8               	btfss	status,2
  2899  004340  EFA4  F021         	goto	u3501
  2900  004344  EFA6  F021         	goto	u3500
  2901  004348                     u3501:
  2902  004348  EFAC  F021         	goto	l254
  2903  00434C                     u3500:
  2904                           	line	896
  2905                           ;main.c: 895: {
  2906                           ;main.c: 896: LATB1=0;
  2907  00434C  928A               	bcf	c:(31825/8),(31825)&7	;volatile
  2908                           	line	897
  2909                           ;main.c: 897: LATB0=0;
  2910  00434E  908A               	bcf	c:(31824/8),(31824)&7	;volatile
  2911                           	line	898
  2912                           ;main.c: 898: LATD7=0;
  2913  004350  9E8C               	bcf	c:(31847/8),(31847)&7	;volatile
  2914                           	line	900
  2915                           ;main.c: 900: LATD6=1;
  2916  004352  8C8C               	bsf	c:(31846/8),(31846)&7	;volatile
  2917                           	line	901
  2918                           ;main.c: 901: LATD5=0;
  2919  004354  9A8C               	bcf	c:(31845/8),(31845)&7	;volatile
  2920                           	line	902
  2921                           ;main.c: 902: LATD4=0;
  2922  004356  988C               	bcf	c:(31844/8),(31844)&7	;volatile
  2923                           	line	904
  2924                           	
  2925  004358                     l254:		; BSR set to: ?
  2926                           
  2927                           	line	905
  2928                           ;main.c: 904: }
  2929                           ;main.c: 905: }
  2930  004358                     l252:
  2931                           			; BSR set to: ?
  2932                           
  2933  004358  0012               	return
  2934                           	opt stack 0
  2935                           GLOBAL __end_of_choose_tcouple
  2936  00435A                     	__end_of_choose_tcouple:
  2937                           	FNSIZE	_choose_tcouple,0,0
  2938                           ; =============== function _choose_tcouple ends 
                                 ============
  2939                           
  2940                           	signat	_choose_tcouple,88
  2941                           	global	_adc_init
  2942                           	global	??_adc_init
  2943                           	global	?_adc_init
  2944                           
  2945                           ; *************** function _adc_init ***********
                                 ******
  2946                           ; Defined at:
  2947                           ;		line 637 in file "main.c"
  2948                           ; Parameters:
  2949                           ;		None
  2950                           ; Auto variables:
  2951                           ;		None
  2952                           ; Return value:
  2953                           ;		type: void 
  2954                           ;		size: 0
  2955                           ; Registers used:
  2956                           ;		wreg, status,2, status,0, cstack
  2957                           ; Tracked objects:
  2958                           ;		On entry : 0/0
  2959                           ;		On exit  : 0/0
  2960                           ;		Unchanged: 0/0
  2961                           ; Data sizes:
  2962                           ;		Autos:    0
  2963                           ;		Params:   0
  2964                           ;		Temp:     1
  2965                           ;		Total:    1
  2966                           ; This function calls:
  2967                           ;		_DelayMs
  2968                           ; This function is called by:
  2969                           ;		_main
  2970                           ; This function uses a non-reentrant model
  2971                           ; 
  2972                                   psect   text8,class=CODE,space=0,reloc=2
  2973                           
  2974                           	opt lm
  2975                           	file	"main.c"
  2976                           	line	637
  2977  000000                     	__size_of_adc_init	equ	__end_of_adc_init-_adc_i
                                 nit
  2978                           ;main.c: 636: void adc_init(void)
  2979                           ;main.c: 637: {
  2980                           	
  2981  004394                     _adc_init:		; BSR set to: ?
  2982                           
  2983                           	opt stack 26
  2984                           	line	638
  2985                           ;main.c: 638: ADCON0=0;
  2986  004394  0E00               	movlw	low(0)
  2987  004396  6EC2               	movwf	((c:4034)),c	;volatile
  2988                           	line	639
  2989                           ;main.c: 639: ADCON1=0b00001110;
  2990  004398  0102               	movlb	2	; () banked
  2991  00439A  6F0A               	movwf	(??_adc_init+0+0)&0ffh
  2992  00439C  0E0E               	movlw	low(0Eh)
  2993  00439E  6EC1               	movwf	((c:4033)),c
  2994  0043A0  0102               	movlb	2	; () banked
  2995  0043A2  510A               	movf	(??_adc_init+0+0)&0ffh,w
  2996                           	line	640
  2997                           ;main.c: 640: ADCON2=0b10101000;
  2998  0043A4  0102               	movlb	2	; () banked
  2999  0043A6  6F0A               	movwf	(??_adc_init+0+0)&0ffh
  3000  0043A8  0EA8               	movlw	low(0A8h)
  3001  0043AA  6EC0               	movwf	((c:4032)),c
  3002  0043AC  0102               	movlb	2	; () banked
  3003  0043AE  510A               	movf	(??_adc_init+0+0)&0ffh,w
  3004                           	line	642
  3005                           ;main.c: 642: ADIF = 0;
  3006  0043B0  9C9E               	bcf	c:(31990/8),(31990)&7	;volatile
  3007                           	line	644
  3008                           ;main.c: 644: INTCONbits.GIE = 1;
  3009  0043B2  8EF2               	bsf	((c:4082)),c,7
  3010                           	line	646
  3011                           ;main.c: 646: DelayMs(5);
  3012  0043B4  0E05               	movlw	low(05h)
  3013  0043B6  0102               	movlb	2	; () banked
  3014  0043B8  0102               	movlb	2	; () banked
  3015  0043BA  6F1B               	movwf	((?_DelayMs))&0ffh
  3016  0043BC  0E00               	movlw	high(05h)
  3017  0043BE  0102               	movlb	2	; () banked
  3018  0043C0  6F1C               	movwf	((?_DelayMs+1))&0ffh
  3019  0043C2  EC26  F020         	call	_DelayMs	;wreg free
  3020                           	line	647
  3021                           ;main.c: 647: ADCON0 |= 0b010;
  3022  0043C6  82C2               	bsf	(0+(1/8)+(c:4034)),c,(1)&7	;volatile
  3023                           	line	648
  3024                           ;main.c: 648: }
  3025  0043C8                     l217:
  3026                           			; BSR set to: ?
  3027                           
  3028  0043C8  0012               	return
  3029                           	opt stack 0
  3030                           GLOBAL __end_of_adc_init
  3031  0043CA                     	__end_of_adc_init:
  3032                           	FNSIZE	_adc_init,1,0
  3033                           ; =============== function _adc_init ends ======
                                 ======
  3034                           
  3035                           	signat	_adc_init,88
  3036                           	global	_lcd_init
  3037                           	global	??_lcd_init
  3038                           	global	?_lcd_init
  3039                           
  3040                           ; *************** function _lcd_init ***********
                                 ******
  3041                           ; Defined at:
  3042                           ;		line 578 in file "main.c"
  3043                           ; Parameters:
  3044                           ;		None
  3045                           ; Auto variables:
  3046                           ;		None
  3047                           ; Return value:
  3048                           ;		type: void 
  3049                           ;		size: 0
  3050                           ; Registers used:
  3051                           ;		wreg, status,2, status,0, cstack
  3052                           ; Tracked objects:
  3053                           ;		On entry : 0/0
  3054                           ;		On exit  : 0/0
  3055                           ;		Unchanged: 0/0
  3056                           ; Data sizes:
  3057                           ;		Autos:    0
  3058                           ;		Params:   0
  3059                           ;		Temp:     1
  3060                           ;		Total:    1
  3061                           ; This function calls:
  3062                           ;		_DelayMs
  3063                           ;		_lcd_command
  3064                           ; This function is called by:
  3065                           ;		_main
  3066                           ; This function uses a non-reentrant model
  3067                           ; 
  3068                                   psect   text9,class=CODE,space=0,reloc=2
  3069                           
  3070                           	opt lm
  3071                           	file	"main.c"
  3072                           	line	578
  3073  000000                     	__size_of_lcd_init	equ	__end_of_lcd_init-_lcd_i
                                 nit
  3074                           ;main.c: 577: void lcd_init( void )
  3075                           ;main.c: 578: {
  3076                           	
  3077  002B28                     _lcd_init:		; BSR set to: ?
  3078                           
  3079                           	opt stack 26
  3080                           	line	579
  3081                           ;main.c: 579: DelayMs(100);
  3082  002B28  0E64               	movlw	low(064h)
  3083  002B2A  0102               	movlb	2	; () banked
  3084  002B2C  0102               	movlb	2	; () banked
  3085  002B2E  6F1B               	movwf	((?_DelayMs))&0ffh
  3086  002B30  0E00               	movlw	high(064h)
  3087  002B32  0102               	movlb	2	; () banked
  3088  002B34  6F1C               	movwf	((?_DelayMs+1))&0ffh
  3089  002B36  EC26  F020         	call	_DelayMs	;wreg free
  3090                           	line	580
  3091                           ;main.c: 580: lcd_command(0x03);
  3092  002B3A  0102               	movlb	2	; () banked
  3093  002B3C  6F0A               	movwf	(??_lcd_init+0+0)&0ffh
  3094  002B3E  0E03               	movlw	low(03h)
  3095  002B40  0102               	movlb	2	; () banked
  3096  002B42  0102               	movlb	2	; () banked
  3097  002B44  6F19               	movwf	((?_lcd_command))&0ffh
  3098  002B46  0102               	movlb	2	; () banked
  3099  002B48  510A               	movf	(??_lcd_init+0+0)&0ffh,w
  3100  002B4A  EC60  F01B         	call	_lcd_command	;wreg free
  3101                           	line	581
  3102                           ;main.c: 581: DelayMs(250);
  3103  002B4E  0EFA               	movlw	low(0FAh)
  3104  002B50  0102               	movlb	2	; () banked
  3105  002B52  0102               	movlb	2	; () banked
  3106  002B54  6F1B               	movwf	((?_DelayMs))&0ffh
  3107  002B56  0E00               	movlw	high(0FAh)
  3108  002B58  0102               	movlb	2	; () banked
  3109  002B5A  6F1C               	movwf	((?_DelayMs+1))&0ffh
  3110  002B5C  EC26  F020         	call	_DelayMs	;wreg free
  3111                           	line	582
  3112                           ;main.c: 582: lcd_command(0x03);
  3113  002B60  0102               	movlb	2	; () banked
  3114  002B62  6F0A               	movwf	(??_lcd_init+0+0)&0ffh
  3115  002B64  0E03               	movlw	low(03h)
  3116  002B66  0102               	movlb	2	; () banked
  3117  002B68  0102               	movlb	2	; () banked
  3118  002B6A  6F19               	movwf	((?_lcd_command))&0ffh
  3119  002B6C  0102               	movlb	2	; () banked
  3120  002B6E  510A               	movf	(??_lcd_init+0+0)&0ffh,w
  3121  002B70  EC60  F01B         	call	_lcd_command	;wreg free
  3122                           	line	583
  3123                           ;main.c: 583: DelayMs(250);
  3124  002B74  0EFA               	movlw	low(0FAh)
  3125  002B76  0102               	movlb	2	; () banked
  3126  002B78  0102               	movlb	2	; () banked
  3127  002B7A  6F1B               	movwf	((?_DelayMs))&0ffh
  3128  002B7C  0E00               	movlw	high(0FAh)
  3129  002B7E  0102               	movlb	2	; () banked
  3130  002B80  6F1C               	movwf	((?_DelayMs+1))&0ffh
  3131  002B82  EC26  F020         	call	_DelayMs	;wreg free
  3132                           	line	584
  3133                           ;main.c: 584: lcd_command(0x03);
  3134  002B86  0102               	movlb	2	; () banked
  3135  002B88  6F0A               	movwf	(??_lcd_init+0+0)&0ffh
  3136  002B8A  0E03               	movlw	low(03h)
  3137  002B8C  0102               	movlb	2	; () banked
  3138  002B8E  0102               	movlb	2	; () banked
  3139  002B90  6F19               	movwf	((?_lcd_command))&0ffh
  3140  002B92  0102               	movlb	2	; () banked
  3141  002B94  510A               	movf	(??_lcd_init+0+0)&0ffh,w
  3142  002B96  EC60  F01B         	call	_lcd_command	;wreg free
  3143                           	line	585
  3144                           ;main.c: 585: DelayMs(250);
  3145  002B9A  0EFA               	movlw	low(0FAh)
  3146  002B9C  0102               	movlb	2	; () banked
  3147  002B9E  0102               	movlb	2	; () banked
  3148  002BA0  6F1B               	movwf	((?_DelayMs))&0ffh
  3149  002BA2  0E00               	movlw	high(0FAh)
  3150  002BA4  0102               	movlb	2	; () banked
  3151  002BA6  6F1C               	movwf	((?_DelayMs+1))&0ffh
  3152  002BA8  EC26  F020         	call	_DelayMs	;wreg free
  3153                           	line	586
  3154                           ;main.c: 586: lcd_command(0x02);
  3155  002BAC  0102               	movlb	2	; () banked
  3156  002BAE  6F0A               	movwf	(??_lcd_init+0+0)&0ffh
  3157  002BB0  0E02               	movlw	low(02h)
  3158  002BB2  0102               	movlb	2	; () banked
  3159  002BB4  0102               	movlb	2	; () banked
  3160  002BB6  6F19               	movwf	((?_lcd_command))&0ffh
  3161  002BB8  0102               	movlb	2	; () banked
  3162  002BBA  510A               	movf	(??_lcd_init+0+0)&0ffh,w
  3163  002BBC  EC60  F01B         	call	_lcd_command	;wreg free
  3164                           	line	587
  3165                           ;main.c: 587: DelayMs(250);
  3166  002BC0  0EFA               	movlw	low(0FAh)
  3167  002BC2  0102               	movlb	2	; () banked
  3168  002BC4  0102               	movlb	2	; () banked
  3169  002BC6  6F1B               	movwf	((?_DelayMs))&0ffh
  3170  002BC8  0E00               	movlw	high(0FAh)
  3171  002BCA  0102               	movlb	2	; () banked
  3172  002BCC  6F1C               	movwf	((?_DelayMs+1))&0ffh
  3173  002BCE  EC26  F020         	call	_DelayMs	;wreg free
  3174                           	line	588
  3175                           ;main.c: 588: lcd_command(0x28);
  3176  002BD2  0102               	movlb	2	; () banked
  3177  002BD4  6F0A               	movwf	(??_lcd_init+0+0)&0ffh
  3178  002BD6  0E28               	movlw	low(028h)
  3179  002BD8  0102               	movlb	2	; () banked
  3180  002BDA  0102               	movlb	2	; () banked
  3181  002BDC  6F19               	movwf	((?_lcd_command))&0ffh
  3182  002BDE  0102               	movlb	2	; () banked
  3183  002BE0  510A               	movf	(??_lcd_init+0+0)&0ffh,w
  3184  002BE2  EC60  F01B         	call	_lcd_command	;wreg free
  3185                           	line	589
  3186                           ;main.c: 589: DelayMs(250);
  3187  002BE6  0EFA               	movlw	low(0FAh)
  3188  002BE8  0102               	movlb	2	; () banked
  3189  002BEA  0102               	movlb	2	; () banked
  3190  002BEC  6F1B               	movwf	((?_DelayMs))&0ffh
  3191  002BEE  0E00               	movlw	high(0FAh)
  3192  002BF0  0102               	movlb	2	; () banked
  3193  002BF2  6F1C               	movwf	((?_DelayMs+1))&0ffh
  3194  002BF4  EC26  F020         	call	_DelayMs	;wreg free
  3195                           	line	590
  3196                           ;main.c: 590: lcd_command(0x28);
  3197  002BF8  0102               	movlb	2	; () banked
  3198  002BFA  6F0A               	movwf	(??_lcd_init+0+0)&0ffh
  3199  002BFC  0E28               	movlw	low(028h)
  3200  002BFE  0102               	movlb	2	; () banked
  3201  002C00  0102               	movlb	2	; () banked
  3202  002C02  6F19               	movwf	((?_lcd_command))&0ffh
  3203  002C04  0102               	movlb	2	; () banked
  3204  002C06  510A               	movf	(??_lcd_init+0+0)&0ffh,w
  3205  002C08  EC60  F01B         	call	_lcd_command	;wreg free
  3206                           	line	591
  3207                           ;main.c: 591: DelayMs(250);
  3208  002C0C  0EFA               	movlw	low(0FAh)
  3209  002C0E  0102               	movlb	2	; () banked
  3210  002C10  0102               	movlb	2	; () banked
  3211  002C12  6F1B               	movwf	((?_DelayMs))&0ffh
  3212  002C14  0E00               	movlw	high(0FAh)
  3213  002C16  0102               	movlb	2	; () banked
  3214  002C18  6F1C               	movwf	((?_DelayMs+1))&0ffh
  3215  002C1A  EC26  F020         	call	_DelayMs	;wreg free
  3216                           	line	592
  3217                           ;main.c: 592: lcd_command(0x28);
  3218  002C1E  0102               	movlb	2	; () banked
  3219  002C20  6F0A               	movwf	(??_lcd_init+0+0)&0ffh
  3220  002C22  0E28               	movlw	low(028h)
  3221  002C24  0102               	movlb	2	; () banked
  3222  002C26  0102               	movlb	2	; () banked
  3223  002C28  6F19               	movwf	((?_lcd_command))&0ffh
  3224  002C2A  0102               	movlb	2	; () banked
  3225  002C2C  510A               	movf	(??_lcd_init+0+0)&0ffh,w
  3226  002C2E  EC60  F01B         	call	_lcd_command	;wreg free
  3227                           	line	593
  3228                           ;main.c: 593: DelayMs(250);
  3229  002C32  0EFA               	movlw	low(0FAh)
  3230  002C34  0102               	movlb	2	; () banked
  3231  002C36  0102               	movlb	2	; () banked
  3232  002C38  6F1B               	movwf	((?_DelayMs))&0ffh
  3233  002C3A  0E00               	movlw	high(0FAh)
  3234  002C3C  0102               	movlb	2	; () banked
  3235  002C3E  6F1C               	movwf	((?_DelayMs+1))&0ffh
  3236  002C40  EC26  F020         	call	_DelayMs	;wreg free
  3237                           	line	594
  3238                           ;main.c: 594: lcd_command(0x0C);
  3239  002C44  0102               	movlb	2	; () banked
  3240  002C46  6F0A               	movwf	(??_lcd_init+0+0)&0ffh
  3241  002C48  0E0C               	movlw	low(0Ch)
  3242  002C4A  0102               	movlb	2	; () banked
  3243  002C4C  0102               	movlb	2	; () banked
  3244  002C4E  6F19               	movwf	((?_lcd_command))&0ffh
  3245  002C50  0102               	movlb	2	; () banked
  3246  002C52  510A               	movf	(??_lcd_init+0+0)&0ffh,w
  3247  002C54  EC60  F01B         	call	_lcd_command	;wreg free
  3248                           	line	595
  3249                           ;main.c: 595: DelayMs(250);
  3250  002C58  0EFA               	movlw	low(0FAh)
  3251  002C5A  0102               	movlb	2	; () banked
  3252  002C5C  0102               	movlb	2	; () banked
  3253  002C5E  6F1B               	movwf	((?_DelayMs))&0ffh
  3254  002C60  0E00               	movlw	high(0FAh)
  3255  002C62  0102               	movlb	2	; () banked
  3256  002C64  6F1C               	movwf	((?_DelayMs+1))&0ffh
  3257  002C66  EC26  F020         	call	_DelayMs	;wreg free
  3258                           	line	596
  3259                           ;main.c: 596: lcd_command(0x06);
  3260  002C6A  0102               	movlb	2	; () banked
  3261  002C6C  6F0A               	movwf	(??_lcd_init+0+0)&0ffh
  3262  002C6E  0E06               	movlw	low(06h)
  3263  002C70  0102               	movlb	2	; () banked
  3264  002C72  0102               	movlb	2	; () banked
  3265  002C74  6F19               	movwf	((?_lcd_command))&0ffh
  3266  002C76  0102               	movlb	2	; () banked
  3267  002C78  510A               	movf	(??_lcd_init+0+0)&0ffh,w
  3268  002C7A  EC60  F01B         	call	_lcd_command	;wreg free
  3269                           	line	597
  3270                           ;main.c: 597: DelayMs(250);
  3271  002C7E  0EFA               	movlw	low(0FAh)
  3272  002C80  0102               	movlb	2	; () banked
  3273  002C82  0102               	movlb	2	; () banked
  3274  002C84  6F1B               	movwf	((?_DelayMs))&0ffh
  3275  002C86  0E00               	movlw	high(0FAh)
  3276  002C88  0102               	movlb	2	; () banked
  3277  002C8A  6F1C               	movwf	((?_DelayMs+1))&0ffh
  3278  002C8C  EC26  F020         	call	_DelayMs	;wreg free
  3279                           	line	598
  3280                           ;main.c: 598: lcd_command(0x01);
  3281  002C90  0102               	movlb	2	; () banked
  3282  002C92  6F0A               	movwf	(??_lcd_init+0+0)&0ffh
  3283  002C94  0E01               	movlw	low(01h)
  3284  002C96  0102               	movlb	2	; () banked
  3285  002C98  0102               	movlb	2	; () banked
  3286  002C9A  6F19               	movwf	((?_lcd_command))&0ffh
  3287  002C9C  0102               	movlb	2	; () banked
  3288  002C9E  510A               	movf	(??_lcd_init+0+0)&0ffh,w
  3289  002CA0  EC60  F01B         	call	_lcd_command	;wreg free
  3290                           	line	599
  3291                           ;main.c: 599: DelayMs(250);
  3292  002CA4  0EFA               	movlw	low(0FAh)
  3293  002CA6  0102               	movlb	2	; () banked
  3294  002CA8  0102               	movlb	2	; () banked
  3295  002CAA  6F1B               	movwf	((?_DelayMs))&0ffh
  3296  002CAC  0E00               	movlw	high(0FAh)
  3297  002CAE  0102               	movlb	2	; () banked
  3298  002CB0  6F1C               	movwf	((?_DelayMs+1))&0ffh
  3299  002CB2  EC26  F020         	call	_DelayMs	;wreg free
  3300                           	line	600
  3301                           ;main.c: 600: }
  3302  002CB6                     l202:
  3303                           			; BSR set to: ?
  3304                           
  3305  002CB6  0012               	return
  3306                           	opt stack 0
  3307                           GLOBAL __end_of_lcd_init
  3308  002CB8                     	__end_of_lcd_init:
  3309                           	FNSIZE	_lcd_init,1,0
  3310                           ; =============== function _lcd_init ends ======
                                 ======
  3311                           
  3312                           	signat	_lcd_init,88
  3313                           	global	_pid
  3314                           	global	??_pid
  3315                           	global	?_pid
  3316                           
  3317                           ; *************** function _pid ****************
                                 *
  3318                           ; Defined at:
  3319                           ;		line 832 in file "main.c"
  3320                           ; Parameters:
  3321                           ;		None
  3322                           ; Auto variables:
  3323                           ;		None
  3324                           ; Return value:
  3325                           ;		type: void 
  3326                           ;		size: 0
  3327                           ; Registers used:
  3328                           ;		wreg, fsr0l, fsr0h, status,2, status,0, cstac
                                 k
  3329                           ; Tracked objects:
  3330                           ;		On entry : 0/0
  3331                           ;		On exit  : 0/0
  3332                           ;		Unchanged: 0/0
  3333                           ; Data sizes:
  3334                           ;		Autos:    9
  3335                           ;		Params:   0
  3336                           ;		Temp:     0
  3337                           ;		Total:    9
  3338                           ; This function calls:
  3339                           ;		_pid_error
  3340                           ;		___ftmul
  3341                           ;		___ftadd
  3342                           ;		___ftge
  3343                           ;		___fttol
  3344                           ; This function is called by:
  3345                           ;		_main
  3346                           ; This function uses a non-reentrant model
  3347                           ; 
  3348                                   psect   text10,class=CODE,space=0,reloc=
                                 2
  3349                           
  3350                           	opt lm
  3351                           	file	"main.c"
  3352                           	line	832
  3353  000000                     	__size_of_pid	equ	__end_of_pid-_pid
  3354                           ;main.c: 831: void pid(void)
  3355                           ;main.c: 832: {
  3356                           	
  3357  0025BC                     _pid:		; BSR set to: ?
  3358                           
  3359                           	opt stack 26
  3360                           	line	834
  3361                           ;main.c: 834: pid_error();
  3362  0025BC  EC77  F020         	call	_pid_error	;wreg free
  3363                           	line	835
  3364                           ;main.c: 835: if(pid_cycle_no>1)
  3365  0025C0  0E01               	movlw	(02h-1)
  3366  0025C2  6443               	cpfsgt	((c:67)),c
  3367  0025C4  EFE6  F012         	goto	u3511
  3368+ 0025C8  EFE8  F012         	goto	u3510
  3369+ 0025CC                     u3511:
  3370+ 0025CC  EFCD  F013         	goto	l240
  3371+ 0025D0                     u3510:
  3372+                          	line	837
  3373+                          ;main.c: 836: {
  3374+                          ;main.c: 837: u=(u1 + (k1*e0) + (k2*e1) + (k3*e2
      +                          ));
  3375+ 0025D0  C02B F231          	movff	(c:43),0+(?___ftmul+03h)
  3376+ 0025D4  C02C F232          	movff	(c:43+1),1+(?___ftmul+03h)
  3377+ 0025D8  C02D F233          	movff	(c:43+2),2+(?___ftmul+03h)
  3378+ 0025DC  C03F F22E          	movff	(c:63),(?___ftmul)
  3379+ 0025E0  C040 F22F          	movff	(c:63+1),(?___ftmul+1)
  3380+ 0025E4  C041 F230          	movff	(c:63+2),(?___ftmul+2)
  3381+ 0025E8  ECCE  F013         	call	___ftmul	;wreg free
  3382+ 0025EC  C22E  F20A         	movff	0+?___ftmul,(_pid$951)
  3383+ 0025F0  C22F  F20B         	movff	1+?___ftmul,(_pid$951+1)
  3384+ 0025F4  C230  F20C         	movff	2+?___ftmul,(_pid$951+2)
  3385+ 0025F8  C028 F231          	movff	(c:40),0+(?___ftmul+03h)
  3386+ 0025FC  C029 F232          	movff	(c:40+1),1+(?___ftmul+03h)
  3387+ 002600  C02A F233          	movff	(c:40+2),2+(?___ftmul+03h)
  3388+ 002604  C036 F22E          	movff	(c:54),(?___ftmul)
  3389+ 002608  C037 F22F          	movff	(c:54+1),(?___ftmul+1)
  3390+ 00260C  C038 F230          	movff	(c:54+2),(?___ftmul+2)
  3391+ 002610  ECCE  F013         	call	___ftmul	;wreg free
  3392+ 002614  C22E  F20D         	movff	0+?___ftmul,(_pid$952)
  3393+ 002618  C22F  F20E         	movff	1+?___ftmul,(_pid$952+1)
  3394+ 00261C  C230  F20F         	movff	2+?___ftmul,(_pid$952+2)
  3395+ 002620  C20D  F237         	movff	(_pid$952),0+(?___ftadd+03h)
  3396+ 002624  C20E  F238         	movff	(_pid$952+1),1+(?___ftadd+03h)
  3397+ 002628  C20F  F239         	movff	(_pid$952+2),2+(?___ftadd+03h)
  3398+ 00262C  C20A  F234         	movff	(_pid$951),(?___ftadd)
  3399+ 002630  C20B  F235         	movff	(_pid$951+1),(?___ftadd+1)
  3400+ 002634  C20C  F236         	movff	(_pid$951+2),(?___ftadd+2)
  3401+ 002638  EC5E  F00F         	call	___ftadd	;wreg free
  3402+ 00263C  C234  F210         	movff	0+?___ftadd,(_pid$953)
  3403+ 002640  C235  F211         	movff	1+?___ftadd,(_pid$953+1)
  3404+ 002644  C236  F212         	movff	2+?___ftadd,(_pid$953+2)
  3405+ 002648  C03C F231          	movff	(c:60),0+(?___ftmul+03h)
  3406+ 00264C  C03D F232          	movff	(c:60+1),1+(?___ftmul+03h)
  3407+ 002650  C03E F233          	movff	(c:60+2),2+(?___ftmul+03h)
  3408+ 002654  C039 F22E          	movff	(c:57),(?___ftmul)
  3409+ 002658  C03A F22F          	movff	(c:57+1),(?___ftmul+1)
  3410+ 00265C  C03B F230          	movff	(c:57+2),(?___ftmul+2)
  3411+ 002660  ECCE  F013         	call	___ftmul	;wreg free
  3412+ 002664  C22E  F237         	movff	0+?___ftmul,0+(?___ftadd+03h)
  3413+ 002668  C22F  F238         	movff	1+?___ftmul,1+(?___ftadd+03h)
  3414+ 00266C  C230  F239         	movff	2+?___ftmul,2+(?___ftadd+03h)
  3415+ 002670  C210  F234         	movff	(_pid$953),(?___ftadd)
  3416+ 002674  C211  F235         	movff	(_pid$953+1),(?___ftadd+1)
  3417+ 002678  C212  F236         	movff	(_pid$953+2),(?___ftadd+2)
  3418+ 00267C  EC5E  F00F         	call	___ftadd	;wreg free
  3419+ 002680  C234  F234         	movff	0+?___ftadd,(?___ftadd)
  3420+ 002684  C235  F235         	movff	1+?___ftadd,(?___ftadd+1)
  3421+ 002688  C236  F236         	movff	2+?___ftadd,(?___ftadd+2)
  3422+ 00268C  C033 F237          	movff	(c:51),0+(?___ftadd+03h)
  3423+ 002690  C034 F238          	movff	(c:51+1),1+(?___ftadd+03h)
  3424+ 002694  C035 F239          	movff	(c:51+2),2+(?___ftadd+03h)
  3425+ 002698  EC5E  F00F         	call	___ftadd	;wreg free
  3426+ 00269C  C234  F020         	movff	0+?___ftadd,(c:32)
  3427+ 0026A0  C235  F021         	movff	1+?___ftadd,(c:32+1)
  3428+ 0026A4  C236  F022         	movff	2+?___ftadd,(c:32+2)
  3429+                          	line	839
  3430+                          ;main.c: 839: if (u > 1000.0) u = 1000.0;
  3431+ 0026A8  C020 F231          	movff	(c:32),0+(?___ftge+03h)
  3432+ 0026AC  C021 F232          	movff	(c:32+1),1+(?___ftge+03h)
  3433+ 0026B0  C022 F233          	movff	(c:32+2),2+(?___ftge+03h)
  3434+ 0026B4  0E00               	movlw	low(float24(1000.0000000000000))
  3435+ 0026B6  0102               	movlb	2	; () banked
  3436+ 0026B8  0102               	movlb	2	; () banked
  3437+ 0026BA  6F2E               	movwf	((?___ftge))&0ffh
  3438+ 0026BC  0E7A               	movlw	high(float24(1000.0000000000000))
  3439+ 0026BE  0102               	movlb	2	; () banked
  3440+ 0026C0  0102               	movlb	2	; () banked
  3441+ 0026C2  6F2F               	movwf	((?___ftge+1))&0ffh
  3442+ 0026C4  0E44               	movlw	low highword(float24(1000.0000000000000))
  3443+ 0026C6  0102               	movlb	2	; () banked
  3444+ 0026C8  0102               	movlb	2	; () banked
  3445+ 0026CA  6F30               	movwf	((?___ftge+2))&0ffh
  3446+                          
  3447+ 0026CC  ECAD  F01D         	call	___ftge	;wreg free
  3448+ 0026D0  B0D8               	btfsc	status,0
  3449+ 0026D2  EF6D  F013         	goto	u3521
  3450+ 0026D6  EF6F  F013         	goto	u3520
  3451+ 0026DA                     u3521:
  3452+ 0026DA  EF75  F013         	goto	l241
  3453+ 0026DE                     u3520:
  3454+ 0026DE  0E00               	movlw	low(float24(1000.0000000000000))
  3455+ 0026E0  6E20               	movwf	((c:32)),c
  3456+ 0026E2  0E7A               	movlw	high(float24(1000.0000000000000))
  3457+ 0026E4  6E21               	movwf	((c:32+1)),c
  3458+ 0026E6  0E44               	movlw	low highword(float24(1000.0000000000000))
  3459+ 0026E8  6E22               	movwf	((c:32+2)),c
  3460+                          
  3461+                          	
  3462+ 0026EA                     l241:		; BSR set to: ?
  3463+                          
  3464+                          	line	840
  3465+                          ;main.c: 840: if (u < 0.0) u = 0.0;
  3466+ 0026EA  5022               	movf	((c:32+2)),c,w
  3467+ 0026EC  0A80               	xorlw	80h
  3468+ 0026EE  0F80               	addlw	-(low highword(float24(0.0000000000000000
      +                          0)))^80h
  3469+                          	
  3470+ 0026F0  E105               	bnz	u3535
  3471+ 0026F2  0E00               	movlw	high(float24(0.00000000000000000))
  3472+ 0026F4  5C21               	subwf	((c:32+1)),c,w
  3473+ 0026F6  E102               	bnz	u3535
  3474+ 0026F8  0E00               	movlw	low(float24(0.00000000000000000))
  3475+ 0026FA  5C20               	subwf	((c:32)),c,w
  3476+ 0026FC                     u3535:
  3477+ 0026FC  B0D8               	btfsc	status,0
  3478+ 0026FE  EF83  F013         	goto	u3531
  3479+ 002702  EF85  F013         	goto	u3530
  3480+ 002706                     u3531:
  3481+ 002706  EF8B  F013         	goto	l242
  3482+ 00270A                     u3530:
  3483+ 00270A  0E00               	movlw	low(float24(0.00000000000000000))
  3484+ 00270C  6E20               	movwf	((c:32)),c
  3485+ 00270E  0E00               	movlw	high(float24(0.00000000000000000))
  3486+ 002710  6E21               	movwf	((c:32+1)),c
  3487+ 002712  0E00               	movlw	low highword(float24(0.00000000000000000)
      +                          )
  3488+ 002714  6E22               	movwf	((c:32+2)),c
  3489+                          
  3490+                          	
  3491+ 002716                     l242:		; BSR set to: ?
  3492+                          
  3493+                          	line	842
  3494+                          ;main.c: 842: u1 = u;
  3495+ 002716  C020 F033          	movff	(c:32),(c:51)
  3496+ 00271A  C021 F034          	movff	(c:32+1),(c:51+1)
  3497+ 00271E  C022 F035          	movff	(c:32+2),(c:51+2)
  3498+                          	line	844
  3499+                          ;main.c: 844: outint = u * 1 ;
  3500+ 002722  0E00               	movlw	low(float24(1.0000000000000000))
  3501+ 002724  0102               	movlb	2	; () banked
  3502+ 002726  0102               	movlb	2	; () banked
  3503+ 002728  6F31               	movwf	(0+(?___ftmul+03h))&0ffh
  3504+ 00272A  0E80               	movlw	high(float24(1.0000000000000000))
  3505+ 00272C  0102               	movlb	2	; () banked
  3506+ 00272E  0102               	movlb	2	; () banked
  3507+ 002730  6F32               	movwf	(1+(?___ftmul+03h))&0ffh
  3508+ 002732  0E3F               	movlw	low highword(float24(1.0000000000000000))
  3509+ 002734  0102               	movlb	2	; () banked
  3510+ 002736  0102               	movlb	2	; () banked
  3511+ 002738  6F33               	movwf	(2+(?___ftmul+03h))&0ffh
  3512+                          
  3513+ 00273A  C020 F22E          	movff	(c:32),(?___ftmul)
  3514+ 00273E  C021 F22F          	movff	(c:32+1),(?___ftmul+1)
  3515+ 002742  C022 F230          	movff	(c:32+2),(?___ftmul+2)
  3516+ 002746  ECCE  F013         	call	___ftmul	;wreg free
  3517+ 00274A  C22E  F213         	movff	0+?___ftmul,(?___fttol)
  3518+ 00274E  C22F  F214         	movff	1+?___ftmul,(?___fttol+1)
  3519+ 002752  C230  F215         	movff	2+?___ftmul,(?___fttol+2)
  3520+ 002756  ECE8  F017         	call	___fttol	;wreg free
  3521+ 00275A  C213  F026         	movff	0+?___fttol,(c:38)
  3522+ 00275E  C214  F027         	movff	1+?___fttol,(c:38+1)
  3523+                          	line	845
  3524+                          ;main.c: 845: if ( outint > 1000 )
  3525+ 002762  5027               	movf	((c:38+1)),c,w
  3526+ 002764  0A80               	xorlw	80h
  3527+ 002766  0F7D               	addlw	-((03h)^80h)
  3528+ 002768  0EE9               	movlw	0E9h
  3529+ 00276A  B4D8               	btfsc	status,2
  3530+ 00276C  5C26               	subwf	((c:38)),c,w
  3531+ 00276E  A0D8               	btfss	status,0
  3532+ 002770  EFBC  F013         	goto	u3541
  3533+ 002774  EFBE  F013         	goto	u3540
  3534+ 002778                     u3541:
  3535+ 002778  EFC2  F013         	goto	l243
  3536+ 00277C                     u3540:
  3537+                          	line	847
  3538+                          ;main.c: 846: {
  3539+                          ;main.c: 847: outint = 1000 ;
  3540+ 00277C  0EE8               	movlw	low(03E8h)
  3541+ 00277E  6E26               	movwf	((c:38)),c
  3542+ 002780  0E03               	movlw	high(03E8h)
  3543+ 002782  6E27               	movwf	((c:38+1)),c
  3544+                          	line	848
  3545+                          	
  3546+ 002784                     l243:		; BSR set to: ?
  3547+                          
  3548+                          	line	850
  3549+                          ;main.c: 848: }
  3550+                          ;main.c: 850: if ( outint < 0 )
  3551+ 002784  AE27               	btfss	((c:38+1)),c,7
  3552+ 002786  EFC7  F013         	goto	u3551
  3553+ 00278A  EFC9  F013         	goto	u3550
  3554+ 00278E                     u3551:
  3555+ 00278E  EFCD  F013         	goto	l240
  3556+ 002792                     u3550:
  3557+                          	line	852
  3558+                          ;main.c: 851: {
  3559+                          ;main.c: 852: outint = 0 ;
  3560+ 002792  0E00               	movlw	low(0)
  3561+ 002794  6E26               	movwf	((c:38)),c
  3562+ 002796  0E00               	movlw	high(0)
  3563+ 002798  6E27               	movwf	((c:38+1)),c
  3564+                          	line	853
  3565+                          	
  3566+ 00279A                     l244:		; BSR set to: ?
  3567+                          
  3568+                          	line	856
  3569+                          	
  3570+ 00279A                     l240:		; BSR set to: ?
  3571+                          
  3572+                          	line	857
  3573+                          ;main.c: 853: }
  3574+                          ;main.c: 856: }
  3575+                          ;main.c: 857: }
  3576+ 00279A                     l239:
  3577+                          			; BSR set to: ?
  3578+                          
  3579+ 00279A  0012               	return
  3580+                          	opt stack 0
  3581+                          GLOBAL __end_of_pid
  3582+ 00279C                     	__end_of_pid:
  3583+                          	FNSIZE	_pid,9,0
  3584+                          ; =============== function _pid ends ===========
      +                          =
  3585+                          
  3586+                          	signat	_pid,88
  3587+                          	global	_currenttemp
  3588+                          	global	??_currenttemp
  3589+                          	global	?_currenttemp
  3590+                          
  3591+                          ; *************** function _currenttemp ********
      +                          *********
  3592+                          ; Defined at:
  3593+                          ;		line 773 in file "main.c"
  3594+                          ; Parameters:
  3595+                          ;		None
  3596+                          ; Auto variables:
  3597+                          ;		temp        	       	type: float 
  3598+                          ; Return value:
  3599+                          ;		type: float 
  3600+                          ;		size: 3
  3601+                          ; Registers used:
  3602+                          ;		wreg, fsr0l, fsr0h, status,2, status,0, cstac
      +                          k
  3603+                          ; Tracked objects:
  3604+                          ;		On entry : 0/0
  3605+                          ;		On exit  : 0/0
  3606+                          ;		Unchanged: 0/0
  3607+                          ; Data sizes:
  3608+                          ;		Autos:    3
  3609+                          ;		Params:   3
  3610+                          ;		Temp:     0
  3611+                          ;		Total:    6
  3612+                          ; This function calls:
  3613+                          ;		___ftmul
  3614+                          ;		___ftdiv
  3615+                          ;		_actual
  3616+                          ; This function is called by:
  3617+                          ;		_main
  3618+                          ; This function uses a non-reentrant model
  3619+                          ; 
  3620+                                  psect   text11,class=CODE,space=0,reloc=
      +                          2
  3621+                          
  3622+                          	opt lm
  3623+                          	file	"main.c"
  3624+                          	line	773
  3625+ 000000                     	__size_of_currenttemp	equ	__end_of_currenttemp-
      +                          _currenttemp
  3626+                          ;main.c: 772: float currenttemp(void)
  3627+                          ;main.c: 773: {
  3628+                          	
  3629+ 003A60                     _currenttemp:		; BSR set to: ?
  3630+                          
  3631+                          	opt stack 26
  3632+                          	line	777
  3633+                          ;main.c: 774: float temp;
  3634+                          ;main.c: 777: a = accum ;
  3635+ 003A60  C006 F023          	movff	(c:6),(c:35)
  3636+ 003A64  C007 F024          	movff	(c:6+1),(c:35+1)
  3637+ 003A68  C008 F025          	movff	(c:6+2),(c:35+2)
  3638+                          	line	786
  3639+                          ;main.c: 786: a=(20.640*a)/526.0;
  3640+ 003A6C  0E1F               	movlw	low(float24(20.640000000000001))
  3641+ 003A6E  0102               	movlb	2	; () banked
  3642+ 003A70  0102               	movlb	2	; () banked
  3643+ 003A72  6F31               	movwf	(0+(?___ftmul+03h))&0ffh
  3644+ 003A74  0EA5               	movlw	high(float24(20.640000000000001))
  3645+ 003A76  0102               	movlb	2	; () banked
  3646+ 003A78  0102               	movlb	2	; () banked
  3647+ 003A7A  6F32               	movwf	(1+(?___ftmul+03h))&0ffh
  3648+ 003A7C  0E41               	movlw	low highword(float24(20.640000000000001))
  3649+ 003A7E  0102               	movlb	2	; () banked
  3650+ 003A80  0102               	movlb	2	; () banked
  3651+ 003A82  6F33               	movwf	(2+(?___ftmul+03h))&0ffh
  3652+                          
  3653+ 003A84  C023 F22E          	movff	(c:35),(?___ftmul)
  3654+ 003A88  C024 F22F          	movff	(c:35+1),(?___ftmul+1)
  3655+ 003A8C  C025 F230          	movff	(c:35+2),(?___ftmul+2)
  3656+ 003A90  ECCE  F013         	call	___ftmul	;wreg free
  3657+ 003A94  C22E  F22E         	movff	0+?___ftmul,(?___ftdiv)
  3658+ 003A98  C22F  F22F         	movff	1+?___ftmul,(?___ftdiv+1)
  3659+ 003A9C  C230  F230         	movff	2+?___ftmul,(?___ftdiv+2)
  3660+ 003AA0  0E80               	movlw	low(float24(526.00000000000000))
  3661+ 003AA2  0102               	movlb	2	; () banked
  3662+ 003AA4  0102               	movlb	2	; () banked
  3663+ 003AA6  6F31               	movwf	(0+(?___ftdiv+03h))&0ffh
  3664+ 003AA8  0E03               	movlw	high(float24(526.00000000000000))
  3665+ 003AAA  0102               	movlb	2	; () banked
  3666+ 003AAC  0102               	movlb	2	; () banked
  3667+ 003AAE  6F32               	movwf	(1+(?___ftdiv+03h))&0ffh
  3668+ 003AB0  0E44               	movlw	low highword(float24(526.00000000000000))
  3669+ 003AB2  0102               	movlb	2	; () banked
  3670+ 003AB4  0102               	movlb	2	; () banked
  3671+ 003AB6  6F33               	movwf	(2+(?___ftdiv+03h))&0ffh
  3672+                          
  3673+ 003AB8  ECBD  F014         	call	___ftdiv	;wreg free
  3674+ 003ABC  C22E  F023         	movff	0+?___ftdiv,(c:35)
  3675+ 003AC0  C22F  F024         	movff	1+?___ftdiv,(c:35+1)
  3676+ 003AC4  C230  F025         	movff	2+?___ftdiv,(c:35+2)
  3677+                          	line	790
  3678+                          ;main.c: 790: if(thermocouple_type==0)
  3679+ 003AC8  501F               	movf	((c:30+1)),c,w
  3680+ 003ACA  101E               	iorwf ((c:30)),c,w
  3681+                          
  3682+ 003ACC  A4D8               	btfss	status,2
  3683+ 003ACE  EF6B  F01D         	goto	u3561
  3684+ 003AD2  EF6D  F01D         	goto	u3560
  3685+ 003AD6                     u3561:
  3686+ 003AD6  EF84  F01D         	goto	l234
  3687+ 003ADA                     u3560:
  3688+                          	line	791
  3689+                          ;main.c: 791: temp =actual(a,j);
  3690+ 003ADA  0E57               	movlw	low(87)
  3691+ 003ADC  0102               	movlb	2	; () banked
  3692+ 003ADE  0102               	movlb	2	; () banked
  3693+ 003AE0  6F13               	movwf	(0+(?_actual+03h))&0ffh
  3694+ 003AE2  0E00               	movlw	high(87)
  3695+ 003AE4  0102               	movlb	2	; () banked
  3696+ 003AE6  6F14               	movwf	(1+(?_actual+03h))&0ffh
  3697+ 003AE8  C023 F210          	movff	(c:35),(?_actual)
  3698+ 003AEC  C024 F211          	movff	(c:35+1),(?_actual+1)
  3699+ 003AF0  C025 F212          	movff	(c:35+2),(?_actual+2)
  3700+ 003AF4  EC56  F00B         	call	_actual	;wreg free
  3701+ 003AF8  C210  F20D         	movff	0+?_actual,(currenttemp@temp)
  3702+ 003AFC  C211  F20E         	movff	1+?_actual,(currenttemp@temp+1)
  3703+ 003B00  C212  F20F         	movff	2+?_actual,(currenttemp@temp+2)
  3704+ 003B04  EFA4  F01D         	goto	l235
  3705+                          	line	792
  3706+                          	
  3707+ 003B08                     l234:		; BSR set to: ?
  3708+                          
  3709+                          ;main.c: 792: else if(thermocouple_type==1)
  3710+ 003B08  041E               	decf	((c:30)),c,w
  3711+ 003B0A  101F               	iorwf ((c:30+1)),c,w
  3712+                          
  3713+ 003B0C  A4D8               	btfss	status,2
  3714+ 003B0E  EF8B  F01D         	goto	u3571
  3715+ 003B12  EF8D  F01D         	goto	u3570
  3716+ 003B16                     u3571:
  3717+ 003B16  EFA4  F01D         	goto	l235
  3718+ 003B1A                     u3570:
  3719+                          	line	793
  3720+                          ;main.c: 793: temp =actual(a,k);
  3721+ 003B1A  0101               	movlb	1	; () banked
  3722+ 003B1C  0E11               	movlw	low(273)
  3723+ 003B1E  0102               	movlb	2	; () banked
  3724+ 003B20  0102               	movlb	2	; () banked
  3725+ 003B22  6F13               	movwf	(0+(?_actual+03h))&0ffh
  3726+ 003B24  0101               	movlb	1	; () banked
  3727+ 003B26  0E01               	movlw	high(273)
  3728+ 003B28  0102               	movlb	2	; () banked
  3729+ 003B2A  6F14               	movwf	(1+(?_actual+03h))&0ffh
  3730+ 003B2C  C023 F210          	movff	(c:35),(?_actual)
  3731+ 003B30  C024 F211          	movff	(c:35+1),(?_actual+1)
  3732+ 003B34  C025 F212          	movff	(c:35+2),(?_actual+2)
  3733+ 003B38  EC56  F00B         	call	_actual	;wreg free
  3734+ 003B3C  C210  F20D         	movff	0+?_actual,(currenttemp@temp)
  3735+ 003B40  C211  F20E         	movff	1+?_actual,(currenttemp@temp+1)
  3736+ 003B44  C212  F20F         	movff	2+?_actual,(currenttemp@temp+2)
  3737+                          	
  3738+ 003B48                     l236:		; BSR set to: ?
  3739+                          
  3740+                          	line	796
  3741+                          	
  3742+ 003B48                     l235:		; BSR set to: ?
  3743+                          
  3744+ 003B48  C20D  F20A         	movff	(currenttemp@temp),(?_currenttemp)
  3745+ 003B4C  C20E  F20B         	movff	(currenttemp@temp+1),(?_currenttemp+1)
  3746+ 003B50  C20F  F20C         	movff	(currenttemp@temp+2),(?_currenttemp+2)
  3747+ 003B54  EFAC  F01D         	goto	l233
  3748+                          	line	805
  3749+                          ;main.c: 805: }
  3750+ 003B58                     l233:
  3751+                          			; BSR set to: ?
  3752+                          
  3753+ 003B58  0012               	return
  3754+                          	opt stack 0
  3755+                          GLOBAL __end_of_currenttemp
  3756+ 003B5A                     	__end_of_currenttemp:
  3757+                          	FNSIZE	_currenttemp,3,3
  3758+                          ; =============== function _currenttemp ends ===
      +                          =========
  3759+                          
  3760+                          	signat	_currenttemp,91
  3761+                          	global	_cal_pid_parameters
  3762+                          	global	??_cal_pid_parameters
  3763+                          	global	?_cal_pid_parameters
  3764+                          
  3765+                          ; *************** function _cal_pid_parameters *
      +                          ****************
  3766+                          ; Defined at:
  3767+                          ;		line 823 in file "main.c"
  3768+                          ; Parameters:
  3769+                          ;		None
  3770+                          ; Auto variables:
  3771+                          ;		None
  3772+                          ; Return value:
  3773+                          ;		type: void 
  3774+                          ;		size: 0
  3775+                          ; Registers used:
  3776+                          ;		wreg, status,2
  3777+                          ; Tracked objects:
  3778+                          ;		On entry : 0/0
  3779+                          ;		On exit  : 0/0
  3780+                          ;		Unchanged: 0/0
  3781+                          ; Data sizes:
  3782+                          ;		Autos:    0
  3783+                          ;		Params:   0
  3784+                          ;		Temp:     0
  3785+                          ;		Total:    0
  3786+                          ; This function calls:
  3787+                          ;		Nothing
  3788+                          ; This function is called by:
  3789+                          ;		_main
  3790+                          ; This function uses a non-reentrant model
  3791+                          ; 
  3792+                                  psect   text12,class=CODE,space=0,reloc=
      +                          2
  3793+                          
  3794+                          	opt lm
  3795+                          	file	"main.c"
  3796+                          	line	823
  3797+ 000000                     	__size_of_cal_pid_parameters	equ	__end_of_cal_p
      +                          id_parameters-_cal_pid_parameters
  3798+                          ;main.c: 822: void cal_pid_parameters(void)
  3799+                          ;main.c: 823: {
  3800+                          	
  3801+ 0043CA                     _cal_pid_parameters:		; BSR set to: ?
  3802+                          
  3803+                          	opt stack 26
  3804+                          	line	825
  3805+                          ;main.c: 825: k1 = 50 + 50/25 + 50*0 ;
  3806+ 0043CA  0E00               	movlw	low(float24(52.000000000000000))
  3807+ 0043CC  6E3F               	movwf	((c:63)),c
  3808+ 0043CE  0E50               	movlw	high(float24(52.000000000000000))
  3809+ 0043D0  6E40               	movwf	((c:63+1)),c
  3810+ 0043D2  0E42               	movlw	low highword(float24(52.000000000000000))
  3811+ 0043D4  6E41               	movwf	((c:63+2)),c
  3812+                          
  3813+                          	line	826
  3814+                          ;main.c: 826: k2 = -(50 +(2.0*50*0 )) ;
  3815+ 0043D6  0E00               	movlw	low(float24(-50.000000000000000))
  3816+ 0043D8  6E36               	movwf	((c:54)),c
  3817+ 0043DA  0E48               	movlw	high(float24(-50.000000000000000))
  3818+ 0043DC  6E37               	movwf	((c:54+1)),c
  3819+ 0043DE  0EC2               	movlw	low highword(float24(-50.000000000000000)
      +                          )
  3820+ 0043E0  6E38               	movwf	((c:54+2)),c
  3821+                          
  3822+                          	line	827
  3823+                          ;main.c: 827: k3 = 50*0 ;
  3824+ 0043E2  0E00               	movlw	low(float24(0.00000000000000000))
  3825+ 0043E4  6E39               	movwf	((c:57)),c
  3826+ 0043E6  0E00               	movlw	high(float24(0.00000000000000000))
  3827+ 0043E8  6E3A               	movwf	((c:57+1)),c
  3828+ 0043EA  0E00               	movlw	low highword(float24(0.00000000000000000)
      +                          )
  3829+ 0043EC  6E3B               	movwf	((c:57+2)),c
  3830+                          
  3831+                          	line	828
  3832+                          ;main.c: 828: u1 = 500.0;
  3833+ 0043EE  0E00               	movlw	low(float24(500.00000000000000))
  3834+ 0043F0  6E33               	movwf	((c:51)),c
  3835+ 0043F2  0EFA               	movlw	high(float24(500.00000000000000))
  3836+ 0043F4  6E34               	movwf	((c:51+1)),c
  3837+ 0043F6  0E43               	movlw	low highword(float24(500.00000000000000))
  3838+ 0043F8  6E35               	movwf	((c:51+2)),c
  3839+                          
  3840+                          	line	829
  3841+                          ;main.c: 829: }
  3842+ 0043FA                     l238:
  3843+                          			; BSR set to: ?
  3844+                          
  3845+ 0043FA  0012               	return
  3846+                          	opt stack 0
  3847+                          GLOBAL __end_of_cal_pid_parameters
  3848+ 0043FC                     	__end_of_cal_pid_parameters:
  3849+                          	FNSIZE	_cal_pid_parameters,0,0
  3850+                          ; =============== function _cal_pid_parameters e
      +                          nds ============
  3851+                          
  3852+                          	signat	_cal_pid_parameters,88
  3853+                          	global	_timer0_init
  3854+                          	global	??_timer0_init
  3855+                          	global	?_timer0_init
  3856+                          
  3857+                          ; *************** function _timer0_init ********
      +                          *********
  3858+                          ; Defined at:
  3859+                          ;		line 626 in file "main.c"
  3860+                          ; Parameters:
  3861+                          ;		None
  3862+                          ; Auto variables:
  3863+                          ;		None
  3864+                          ; Return value:
  3865+                          ;		type: void 
  3866+                          ;		size: 0
  3867+                          ; Registers used:
  3868+                          ;		wreg, status,2, status,0
  3869+                          ; Tracked objects:
  3870+                          ;		On entry : 0/0
  3871+                          ;		On exit  : 0/0
  3872+                          ;		Unchanged: 0/0
  3873+                          ; Data sizes:
  3874+                          ;		Autos:    0
  3875+                          ;		Params:   0
  3876+                          ;		Temp:     1
  3877+                          ;		Total:    1
  3878+                          ; This function calls:
  3879+                          ;		Nothing
  3880+                          ; This function is called by:
  3881+                          ;		_main
  3882+                          ; This function uses a non-reentrant model
  3883+                          ; 
  3884+                                  psect   text13,class=CODE,space=0,reloc=
      +                          2
  3885+                          
  3886+                          	opt lm
  3887+                          	file	"main.c"
  3888+                          	line	626
  3889+ 000000                     	__size_of_timer0_init	equ	__end_of_timer0_init-
      +                          _timer0_init
  3890+                          ;main.c: 625: void timer0_init(void)
  3891+                          ;main.c: 626: {
  3892+                          	
  3893+ 0043FC                     _timer0_init:		; BSR set to: ?
  3894+                          
  3895+                          	opt stack 26
  3896+                          	line	627
  3897+                          ;main.c: 627: T0CON=0b00001000;
  3898+ 0043FC  0102               	movlb	2	; () banked
  3899+ 0043FE  6F0A               	movwf	(??_timer0_init+0+0)&0ffh
  3900+ 004400  0E08               	movlw	low(08h)
  3901+ 004402  6ED5               	movwf	((c:4053)),c
  3902+ 004404  0102               	movlb	2	; () banked
  3903+ 004406  510A               	movf	(??_timer0_init+0+0)&0ffh,w
  3904+                          	line	628
  3905+                          ;main.c: 628: TMR0H=0XF8;
  3906+ 004408  0EF8               	movlw	low(0F8h)
  3907+ 00440A  6ED7               	movwf	((c:4055)),c	;volatile
  3908+                          	line	629
  3909+                          ;main.c: 629: TMR0L=0X30;
  3910+ 00440C  0E30               	movlw	low(030h)
  3911+ 00440E  6ED6               	movwf	((c:4054)),c	;volatile
  3912+                          	line	630
  3913+                          ;main.c: 630: INTCONbits.GIE=1;
  3914+ 004410  8EF2               	bsf	((c:4082)),c,7
  3915+                          	line	631
  3916+                          ;main.c: 631: INTCONbits.PEIE=1;
  3917+ 004412  8CF2               	bsf	((c:4082)),c,6
  3918+                          	line	632
  3919+                          ;main.c: 632: INTCONbits.TMR0IE=1;
  3920+ 004414  8AF2               	bsf	((c:4082)),c,5
  3921+                          	line	633
  3922+                          ;main.c: 633: T0CON|=0b10000000;
  3923+ 004416  8ED5               	bsf	(0+(7/8)+(c:4053)),c,(7)&7
  3924+                          	line	634
  3925+                          ;main.c: 634: }
  3926+ 004418                     l216:
  3927+                          			; BSR set to: ?
  3928+                          
  3929+ 004418  0012               	return
  3930+                          	opt stack 0
  3931+                          GLOBAL __end_of_timer0_init
  3932+ 00441A                     	__end_of_timer0_init:
  3933+                          	FNSIZE	_timer0_init,1,0
  3934+                          ; =============== function _timer0_init ends ===
      +                          =========
  3935+                          
  3936+                          	signat	_timer0_init,88
  3937+                          	global	_actual
  3938+                          	global	??_actual
  3939+                          	global	?_actual
  3940+                          
  3941+                          ; *************** function _actual *************
      +                          ****
  3942+                          ; Defined at:
  3943+                          ;		line 744 in file "main.c"
  3944+                          ; Parameters:
  3945+                          ;		actualvtg      size:   3offs:   0	type: float
      +                           
  3946+                          ;		t              size:   2offs:   3	type: PTR s
      +                          truct lookuptable; Largest target is 186
  3947+                          ;		 -> k(186), j(186), 
  3948+                          ; Auto variables:
  3949+                          ;		i           	       	type: int 
  3950+                          ;		slope       	       	type: float 
  3951+                          ;		tmp2        	       	type: float 
  3952+                          ;		vtg2        	       	type: float 
  3953+                          ;		tmp1        	       	type: float 
  3954+                          ;		vtg1        	       	type: float 
  3955+                          ;		actualtmp   	       	type: float 
  3956+                          ; Return value:
  3957+                          ;		type: float 
  3958+                          ;		size: 3
  3959+                          ; Registers used:
  3960+                          ;		wreg, fsr0l, fsr0h, status,2, status,0, cstac
      +                          k
  3961+                          ; Tracked objects:
  3962+                          ;		On entry : 0/0
  3963+                          ;		On exit  : 0/0
  3964+                          ;		Unchanged: 0/0
  3965+                          ; Data sizes:
  3966+                          ;		Autos:   23
  3967+                          ;		Params:   5
  3968+                          ;		Temp:     2
  3969+                          ;		Total:   30
  3970+                          ; This function calls:
  3971+                          ;		___wmul
  3972+                          ;		___ftge
  3973+                          ;		___ftsub
  3974+                          ;		___ftdiv
  3975+                          ;		___ftmul
  3976+                          ;		___ftadd
  3977+                          ; This function is called by:
  3978+                          ;		_currenttemp
  3979+                          ; This function uses a non-reentrant model
  3980+                          ; 
  3981+                                  psect   text14,class=CODE,space=0,reloc=
      +                          2
  3982+                          
  3983+                          	opt lm
  3984+                          	file	"main.c"
  3985+                          	line	744
  3986+ 000000                     	__size_of_actual	equ	__end_of_actual-_actual
  3987+                          ;main.c: 743: float actual(float actualvtg,tcoup
      +                          le*t)
  3988+                          ;main.c: 744: { float actualtmp;
  3989+                          	
  3990+ 0016AC                     _actual:		; BSR set to: ?
  3991+                          
  3992+                          	opt stack 25
  3993+                          	line	747
  3994+ 0016AC  0E00               	movlw	low(0)
  3995+ 0016AE  0102               	movlb	2	; () banked
  3996+ 0016B0  0102               	movlb	2	; () banked
  3997+ 0016B2  6F18               	movwf	((actual@i))&0ffh
  3998+ 0016B4  0E00               	movlw	high(0)
  3999+ 0016B6  0102               	movlb	2	; () banked
  4000+ 0016B8  6F19               	movwf	((actual@i+1))&0ffh
  4001+ 0016BA  0102               	movlb	2	; () banked
  4002+ 0016BC  0102               	movlb	2	; () banked
  4003+ 0016BE  5119               	movf	((actual@i+1))&0ffh,w
  4004+ 0016C0  0A80               	xorlw	80h
  4005+ 0016C2  0F80               	addlw	-((0)^80h)
  4006+ 0016C4  0E1F               	movlw	01Fh
  4007+ 0016C6  B4D8               	btfsc	status,2
  4008+ 0016C8  5D18               	subwf	((actual@i))&0ffh,w
  4009+ 0016CA  A0D8               	btfss	status,0
  4010+ 0016CC  EF6A  F00B         	goto	u3581
  4011+ 0016D0  EF6C  F00B         	goto	u3580
  4012+ 0016D4                     u3581:
  4013+ 0016D4  EF6E  F00B         	goto	l228
  4014+ 0016D8                     u3580:
  4015+ 0016D8  EF8C  F00D         	goto	l229
  4016+                          	line	748
  4017+                          	
  4018+ 0016DC                     l228:		; BSR set to: ?
  4019+                          
  4020+                          	line	749
  4021+                          ;main.c: 748: {
  4022+                          ;main.c: 749: if(t[i].vtg==actualvtg)
  4023+ 0016DC  0E06               	movlw	low(06h)
  4024+ 0016DE  0102               	movlb	2	; () banked
  4025+ 0016E0  0102               	movlb	2	; () banked
  4026+ 0016E2  6F30               	movwf	(0+(?___wmul+02h))&0ffh
  4027+ 0016E4  0E00               	movlw	high(06h)
  4028+ 0016E6  0102               	movlb	2	; () banked
  4029+ 0016E8  6F31               	movwf	(1+(?___wmul+02h))&0ffh
  4030+ 0016EA  C218  F22E         	movff	(actual@i),(?___wmul)
  4031+ 0016EE  C219  F22F         	movff	(actual@i+1),(?___wmul+1)
  4032+ 0016F2  ECBC  F020         	call	___wmul	;wreg free
  4033+ 0016F6  0102               	movlb	2	; () banked
  4034+ 0016F8  0102               	movlb	2	; () banked
  4035+ 0016FA  512E               	movf	(0+?___wmul)&0ffh,w
  4036+ 0016FC  0102               	movlb	2	; () banked
  4037+ 0016FE  0102               	movlb	2	; () banked
  4038+ 001700  2513               	addwf	((actual@t))&0ffh,w
  4039+ 001702  0102               	movlb	2	; () banked
  4040+ 001704  6F2C               	movwf	(??_actual+23+0)&0ffh
  4041+ 001706  0102               	movlb	2	; () banked
  4042+ 001708  0102               	movlb	2	; () banked
  4043+ 00170A  512F               	movf	(1+?___wmul)&0ffh,w
  4044+ 00170C  0102               	movlb	2	; () banked
  4045+ 00170E  0102               	movlb	2	; () banked
  4046+ 001710  2114               	addwfc	((actual@t+1))&0ffh,w
  4047+ 001712  0102               	movlb	2	; () banked
  4048+ 001714  6F2D               	movwf	1+(??_actual+23+0)&0ffh
  4049+ 001716  0E03               	movlw	low(03h)
  4050+ 001718  0102               	movlb	2	; () banked
  4051+ 00171A  252C               	addwf	(??_actual+23+0)&0ffh,w
  4052+ 00171C  6EE9               	movwf	c:fsr0l
  4053+ 00171E  0E00               	movlw	high(03h)
  4054+ 001720  0102               	movlb	2	; () banked
  4055+ 001722  212D               	addwfc	(??_actual+23+1)&0ffh,w
  4056+ 001724  6EEA               	movwf	1+c:fsr0l
  4057+ 001726  0102               	movlb	2	; () banked
  4058+ 001728  0102               	movlb	2	; () banked
  4059+ 00172A  5110               	movf	((actual@actualvtg))&0ffh,w
  4060+ 00172C  18EE               	xorwf	postinc0,w
  4061+ 00172E  E107               	bnz	u3595
  4062+ 001730  0102               	movlb	2	; () banked
  4063+ 001732  5111               	movf	((actual@actualvtg+1))&0ffh,w
  4064+ 001734  18EE               	xorwf	postinc0,w
  4065+ 001736  E103               	bnz	u3595
  4066+ 001738  0102               	movlb	2	; () banked
  4067+ 00173A  5112               	movf	((actual@actualvtg+2))&0ffh,w
  4068+ 00173C  18EE               	xorwf	postinc0,w
  4069+ 00173E                     u3595:
  4070+ 00173E  A4D8               	btfss	status,2
  4071+ 001740  EFA4  F00B         	goto	u3591
  4072+ 001744  EFA6  F00B         	goto	u3590
  4073+ 001748                     u3591:
  4074+ 001748  EFD2  F00B         	goto	l231
  4075+ 00174C                     u3590:
  4076+                          	line	751
  4077+                          ;main.c: 750: {
  4078+                          ;main.c: 751: actualtmp=(t[i].tmp);
  4079+ 00174C  0E06               	movlw	low(06h)
  4080+ 00174E  0102               	movlb	2	; () banked
  4081+ 001750  0102               	movlb	2	; () banked
  4082+ 001752  6F30               	movwf	(0+(?___wmul+02h))&0ffh
  4083+ 001754  0E00               	movlw	high(06h)
  4084+ 001756  0102               	movlb	2	; () banked
  4085+ 001758  6F31               	movwf	(1+(?___wmul+02h))&0ffh
  4086+ 00175A  C218  F22E         	movff	(actual@i),(?___wmul)
  4087+ 00175E  C219  F22F         	movff	(actual@i+1),(?___wmul+1)
  4088+ 001762  ECBC  F020         	call	___wmul	;wreg free
  4089+ 001766  0102               	movlb	2	; () banked
  4090+ 001768  0102               	movlb	2	; () banked
  4091+ 00176A  512E               	movf	(0+?___wmul)&0ffh,w
  4092+ 00176C  0102               	movlb	2	; () banked
  4093+ 00176E  0102               	movlb	2	; () banked
  4094+ 001770  2513               	addwf	((actual@t))&0ffh,w
  4095+ 001772  6EE9               	movwf	c:fsr0l
  4096+ 001774  0102               	movlb	2	; () banked
  4097+ 001776  0102               	movlb	2	; () banked
  4098+ 001778  512F               	movf	(1+?___wmul)&0ffh,w
  4099+ 00177A  0102               	movlb	2	; () banked
  4100+ 00177C  0102               	movlb	2	; () banked
  4101+ 00177E  2114               	addwfc	((actual@t+1))&0ffh,w
  4102+ 001780  6EEA               	movwf	1+c:fsr0l
  4103+ 001782  0102               	movlb	2	; () banked
  4104+ 001784  CFEE F229          	movff	postinc0,(actual@actualtmp)
  4105+ 001788  0102               	movlb	2	; () banked
  4106+ 00178A  CFEE F22A          	movff	postinc0,(actual@actualtmp+1)
  4107+ 00178E  0102               	movlb	2	; () banked
  4108+ 001790  CFED F22B          	movff	postdec0,(actual@actualtmp+2)
  4109+                          	line	752
  4110+ 001794  C229  F210         	movff	(actual@actualtmp),(?_actual)
  4111+ 001798  C22A  F211         	movff	(actual@actualtmp+1),(?_actual+1)
  4112+ 00179C  C22B  F212         	movff	(actual@actualtmp+2),(?_actual+2)
  4113+ 0017A0  EF8C  F00D         	goto	l227
  4114+                          	line	753
  4115+                          	
  4116+ 0017A4                     l231:		; BSR set to: ?
  4117+                          
  4118+                          	line	755
  4119+                          ;main.c: 753: }
  4120+                          ;main.c: 755: if(t[i].vtg<actualvtg && t[i+1].vt
      +                          g>actualvtg)
  4121+ 0017A4  0E06               	movlw	low(06h)
  4122+ 0017A6  0102               	movlb	2	; () banked
  4123+ 0017A8  0102               	movlb	2	; () banked
  4124+ 0017AA  6F30               	movwf	(0+(?___wmul+02h))&0ffh
  4125+ 0017AC  0E00               	movlw	high(06h)
  4126+ 0017AE  0102               	movlb	2	; () banked
  4127+ 0017B0  6F31               	movwf	(1+(?___wmul+02h))&0ffh
  4128+ 0017B2  C218  F22E         	movff	(actual@i),(?___wmul)
  4129+ 0017B6  C219  F22F         	movff	(actual@i+1),(?___wmul+1)
  4130+ 0017BA  ECBC  F020         	call	___wmul	;wreg free
  4131+ 0017BE  0102               	movlb	2	; () banked
  4132+ 0017C0  0102               	movlb	2	; () banked
  4133+ 0017C2  512E               	movf	(0+?___wmul)&0ffh,w
  4134+ 0017C4  0102               	movlb	2	; () banked
  4135+ 0017C6  0102               	movlb	2	; () banked
  4136+ 0017C8  2513               	addwf	((actual@t))&0ffh,w
  4137+ 0017CA  0102               	movlb	2	; () banked
  4138+ 0017CC  6F2C               	movwf	(??_actual+23+0)&0ffh
  4139+ 0017CE  0102               	movlb	2	; () banked
  4140+ 0017D0  0102               	movlb	2	; () banked
  4141+ 0017D2  512F               	movf	(1+?___wmul)&0ffh,w
  4142+ 0017D4  0102               	movlb	2	; () banked
  4143+ 0017D6  0102               	movlb	2	; () banked
  4144+ 0017D8  2114               	addwfc	((actual@t+1))&0ffh,w
  4145+ 0017DA  0102               	movlb	2	; () banked
  4146+ 0017DC  6F2D               	movwf	1+(??_actual+23+0)&0ffh
  4147+ 0017DE  0E03               	movlw	low(03h)
  4148+ 0017E0  0102               	movlb	2	; () banked
  4149+ 0017E2  252C               	addwf	(??_actual+23+0)&0ffh,w
  4150+ 0017E4  6EE9               	movwf	c:fsr0l
  4151+ 0017E6  0E00               	movlw	high(03h)
  4152+ 0017E8  0102               	movlb	2	; () banked
  4153+ 0017EA  212D               	addwfc	(??_actual+23+1)&0ffh,w
  4154+ 0017EC  6EEA               	movwf	1+c:fsr0l
  4155+ 0017EE  0102               	movlb	2	; () banked
  4156+ 0017F0  CFEE F22E          	movff	postinc0,(?___ftge)
  4157+ 0017F4  0102               	movlb	2	; () banked
  4158+ 0017F6  CFEE F22F          	movff	postinc0,(?___ftge+1)
  4159+ 0017FA  0102               	movlb	2	; () banked
  4160+ 0017FC  CFED F230          	movff	postdec0,(?___ftge+2)
  4161+ 001800  C210  F231         	movff	(actual@actualvtg),0+(?___ftge+03h)
  4162+ 001804  C211  F232         	movff	(actual@actualvtg+1),1+(?___ftge+03h)
  4163+ 001808  C212  F233         	movff	(actual@actualvtg+2),2+(?___ftge+03h)
  4164+ 00180C  ECAD  F01D         	call	___ftge	;wreg free
  4165+ 001810  B0D8               	btfsc	status,0
  4166+ 001812  EF0D  F00C         	goto	u3601
  4167+ 001816  EF0F  F00C         	goto	u3600
  4168+ 00181A                     u3601:
  4169+ 00181A  EF79  F00D         	goto	l232
  4170+ 00181E                     u3600:
  4171+ 00181E  0E06               	movlw	low(06h)
  4172+ 001820  0102               	movlb	2	; () banked
  4173+ 001822  0102               	movlb	2	; () banked
  4174+ 001824  6F30               	movwf	(0+(?___wmul+02h))&0ffh
  4175+ 001826  0E00               	movlw	high(06h)
  4176+ 001828  0102               	movlb	2	; () banked
  4177+ 00182A  6F31               	movwf	(1+(?___wmul+02h))&0ffh
  4178+ 00182C  0E01               	movlw	low(01h)
  4179+ 00182E  0102               	movlb	2	; () banked
  4180+ 001830  0102               	movlb	2	; () banked
  4181+ 001832  2518               	addwf	((actual@i))&0ffh,w
  4182+ 001834  0102               	movlb	2	; () banked
  4183+                          	
  4184+ 001836  0102               	movlb	2	; () banked
  4185+ 001838  6F2E               	movwf	((?___wmul))&0ffh
  4186+ 00183A  0E00               	movlw	high(01h)
  4187+ 00183C  0102               	movlb	2	; () banked
  4188+ 00183E  0102               	movlb	2	; () banked
  4189+ 001840  2119               	addwfc	((actual@i+1))&0ffh,w
  4190+ 001842  0102               	movlb	2	; () banked
  4191+ 001844  6F2F               	movwf	1+((?___wmul))&0ffh
  4192+ 001846  ECBC  F020         	call	___wmul	;wreg free
  4193+ 00184A  0102               	movlb	2	; () banked
  4194+ 00184C  0102               	movlb	2	; () banked
  4195+ 00184E  512E               	movf	(0+?___wmul)&0ffh,w
  4196+ 001850  0102               	movlb	2	; () banked
  4197+ 001852  0102               	movlb	2	; () banked
  4198+ 001854  2513               	addwf	((actual@t))&0ffh,w
  4199+ 001856  0102               	movlb	2	; () banked
  4200+ 001858  6F2C               	movwf	(??_actual+23+0)&0ffh
  4201+ 00185A  0102               	movlb	2	; () banked
  4202+ 00185C  0102               	movlb	2	; () banked
  4203+ 00185E  512F               	movf	(1+?___wmul)&0ffh,w
  4204+ 001860  0102               	movlb	2	; () banked
  4205+ 001862  0102               	movlb	2	; () banked
  4206+ 001864  2114               	addwfc	((actual@t+1))&0ffh,w
  4207+ 001866  0102               	movlb	2	; () banked
  4208+ 001868  6F2D               	movwf	1+(??_actual+23+0)&0ffh
  4209+ 00186A  0E03               	movlw	low(03h)
  4210+ 00186C  0102               	movlb	2	; () banked
  4211+ 00186E  252C               	addwf	(??_actual+23+0)&0ffh,w
  4212+ 001870  6EE9               	movwf	c:fsr0l
  4213+ 001872  0E00               	movlw	high(03h)
  4214+ 001874  0102               	movlb	2	; () banked
  4215+ 001876  212D               	addwfc	(??_actual+23+1)&0ffh,w
  4216+ 001878  6EEA               	movwf	1+c:fsr0l
  4217+ 00187A  0102               	movlb	2	; () banked
  4218+ 00187C  CFEE F231          	movff	postinc0,0+(?___ftge+03h)
  4219+ 001880  0102               	movlb	2	; () banked
  4220+ 001882  CFEE F232          	movff	postinc0,1+(?___ftge+03h)
  4221+ 001886  0102               	movlb	2	; () banked
  4222+ 001888  CFED F233          	movff	postdec0,2+(?___ftge+03h)
  4223+ 00188C  C210  F22E         	movff	(actual@actualvtg),(?___ftge)
  4224+ 001890  C211  F22F         	movff	(actual@actualvtg+1),(?___ftge+1)
  4225+ 001894  C212  F230         	movff	(actual@actualvtg+2),(?___ftge+2)
  4226+ 001898  ECAD  F01D         	call	___ftge	;wreg free
  4227+ 00189C  B0D8               	btfsc	status,0
  4228+ 00189E  EF53  F00C         	goto	u3611
  4229+ 0018A2  EF55  F00C         	goto	u3610
  4230+ 0018A6                     u3611:
  4231+ 0018A6  EF79  F00D         	goto	l232
  4232+ 0018AA                     u3610:
  4233+                          	line	757
  4234+                          ;main.c: 756: {
  4235+                          ;main.c: 757: vtg1 = t[i].vtg;
  4236+ 0018AA  0E06               	movlw	low(06h)
  4237+ 0018AC  0102               	movlb	2	; () banked
  4238+ 0018AE  0102               	movlb	2	; () banked
  4239+ 0018B0  6F30               	movwf	(0+(?___wmul+02h))&0ffh
  4240+ 0018B2  0E00               	movlw	high(06h)
  4241+ 0018B4  0102               	movlb	2	; () banked
  4242+ 0018B6  6F31               	movwf	(1+(?___wmul+02h))&0ffh
  4243+ 0018B8  C218  F22E         	movff	(actual@i),(?___wmul)
  4244+ 0018BC  C219  F22F         	movff	(actual@i+1),(?___wmul+1)
  4245+ 0018C0  ECBC  F020         	call	___wmul	;wreg free
  4246+ 0018C4  0102               	movlb	2	; () banked
  4247+ 0018C6  0102               	movlb	2	; () banked
  4248+ 0018C8  512E               	movf	(0+?___wmul)&0ffh,w
  4249+ 0018CA  0102               	movlb	2	; () banked
  4250+ 0018CC  0102               	movlb	2	; () banked
  4251+ 0018CE  2513               	addwf	((actual@t))&0ffh,w
  4252+ 0018D0  0102               	movlb	2	; () banked
  4253+ 0018D2  6F2C               	movwf	(??_actual+23+0)&0ffh
  4254+ 0018D4  0102               	movlb	2	; () banked
  4255+ 0018D6  0102               	movlb	2	; () banked
  4256+ 0018D8  512F               	movf	(1+?___wmul)&0ffh,w
  4257+ 0018DA  0102               	movlb	2	; () banked
  4258+ 0018DC  0102               	movlb	2	; () banked
  4259+ 0018DE  2114               	addwfc	((actual@t+1))&0ffh,w
  4260+ 0018E0  0102               	movlb	2	; () banked
  4261+ 0018E2  6F2D               	movwf	1+(??_actual+23+0)&0ffh
  4262+ 0018E4  0E03               	movlw	low(03h)
  4263+ 0018E6  0102               	movlb	2	; () banked
  4264+ 0018E8  252C               	addwf	(??_actual+23+0)&0ffh,w
  4265+ 0018EA  6EE9               	movwf	c:fsr0l
  4266+ 0018EC  0E00               	movlw	high(03h)
  4267+ 0018EE  0102               	movlb	2	; () banked
  4268+ 0018F0  212D               	addwfc	(??_actual+23+1)&0ffh,w
  4269+ 0018F2  6EEA               	movwf	1+c:fsr0l
  4270+ 0018F4  0102               	movlb	2	; () banked
  4271+ 0018F6  CFEE F226          	movff	postinc0,(actual@vtg1)
  4272+ 0018FA  0102               	movlb	2	; () banked
  4273+ 0018FC  CFEE F227          	movff	postinc0,(actual@vtg1+1)
  4274+ 001900  0102               	movlb	2	; () banked
  4275+ 001902  CFED F228          	movff	postdec0,(actual@vtg1+2)
  4276+                          	line	758
  4277+                          ;main.c: 758: vtg2 = t[i+1].vtg;
  4278+ 001906  0E06               	movlw	low(06h)
  4279+ 001908  0102               	movlb	2	; () banked
  4280+ 00190A  0102               	movlb	2	; () banked
  4281+ 00190C  6F30               	movwf	(0+(?___wmul+02h))&0ffh
  4282+ 00190E  0E00               	movlw	high(06h)
  4283+ 001910  0102               	movlb	2	; () banked
  4284+ 001912  6F31               	movwf	(1+(?___wmul+02h))&0ffh
  4285+ 001914  0E01               	movlw	low(01h)
  4286+ 001916  0102               	movlb	2	; () banked
  4287+ 001918  0102               	movlb	2	; () banked
  4288+ 00191A  2518               	addwf	((actual@i))&0ffh,w
  4289+ 00191C  0102               	movlb	2	; () banked
  4290+                          	
  4291+ 00191E  0102               	movlb	2	; () banked
  4292+ 001920  6F2E               	movwf	((?___wmul))&0ffh
  4293+ 001922  0E00               	movlw	high(01h)
  4294+ 001924  0102               	movlb	2	; () banked
  4295+ 001926  0102               	movlb	2	; () banked
  4296+ 001928  2119               	addwfc	((actual@i+1))&0ffh,w
  4297+ 00192A  0102               	movlb	2	; () banked
  4298+ 00192C  6F2F               	movwf	1+((?___wmul))&0ffh
  4299+ 00192E  ECBC  F020         	call	___wmul	;wreg free
  4300+ 001932  0102               	movlb	2	; () banked
  4301+ 001934  0102               	movlb	2	; () banked
  4302+ 001936  512E               	movf	(0+?___wmul)&0ffh,w
  4303+ 001938  0102               	movlb	2	; () banked
  4304+ 00193A  0102               	movlb	2	; () banked
  4305+ 00193C  2513               	addwf	((actual@t))&0ffh,w
  4306+ 00193E  0102               	movlb	2	; () banked
  4307+ 001940  6F2C               	movwf	(??_actual+23+0)&0ffh
  4308+ 001942  0102               	movlb	2	; () banked
  4309+ 001944  0102               	movlb	2	; () banked
  4310+ 001946  512F               	movf	(1+?___wmul)&0ffh,w
  4311+ 001948  0102               	movlb	2	; () banked
  4312+ 00194A  0102               	movlb	2	; () banked
  4313+ 00194C  2114               	addwfc	((actual@t+1))&0ffh,w
  4314+ 00194E  0102               	movlb	2	; () banked
  4315+ 001950  6F2D               	movwf	1+(??_actual+23+0)&0ffh
  4316+ 001952  0E03               	movlw	low(03h)
  4317+ 001954  0102               	movlb	2	; () banked
  4318+ 001956  252C               	addwf	(??_actual+23+0)&0ffh,w
  4319+ 001958  6EE9               	movwf	c:fsr0l
  4320+ 00195A  0E00               	movlw	high(03h)
  4321+ 00195C  0102               	movlb	2	; () banked
  4322+ 00195E  212D               	addwfc	(??_actual+23+1)&0ffh,w
  4323+ 001960  6EEA               	movwf	1+c:fsr0l
  4324+ 001962  0102               	movlb	2	; () banked
  4325+ 001964  CFEE F220          	movff	postinc0,(actual@vtg2)
  4326+ 001968  0102               	movlb	2	; () banked
  4327+ 00196A  CFEE F221          	movff	postinc0,(actual@vtg2+1)
  4328+ 00196E  0102               	movlb	2	; () banked
  4329+ 001970  CFED F222          	movff	postdec0,(actual@vtg2+2)
  4330+                          	line	760
  4331+                          ;main.c: 760: tmp1 = t[i].tmp;
  4332+ 001974  0E06               	movlw	low(06h)
  4333+ 001976  0102               	movlb	2	; () banked
  4334+ 001978  0102               	movlb	2	; () banked
  4335+ 00197A  6F30               	movwf	(0+(?___wmul+02h))&0ffh
  4336+ 00197C  0E00               	movlw	high(06h)
  4337+ 00197E  0102               	movlb	2	; () banked
  4338+ 001980  6F31               	movwf	(1+(?___wmul+02h))&0ffh
  4339+ 001982  C218  F22E         	movff	(actual@i),(?___wmul)
  4340+ 001986  C219  F22F         	movff	(actual@i+1),(?___wmul+1)
  4341+ 00198A  ECBC  F020         	call	___wmul	;wreg free
  4342+ 00198E  0102               	movlb	2	; () banked
  4343+ 001990  0102               	movlb	2	; () banked
  4344+ 001992  512E               	movf	(0+?___wmul)&0ffh,w
  4345+ 001994  0102               	movlb	2	; () banked
  4346+ 001996  0102               	movlb	2	; () banked
  4347+ 001998  2513               	addwf	((actual@t))&0ffh,w
  4348+ 00199A  6EE9               	movwf	c:fsr0l
  4349+ 00199C  0102               	movlb	2	; () banked
  4350+ 00199E  0102               	movlb	2	; () banked
  4351+ 0019A0  512F               	movf	(1+?___wmul)&0ffh,w
  4352+ 0019A2  0102               	movlb	2	; () banked
  4353+ 0019A4  0102               	movlb	2	; () banked
  4354+ 0019A6  2114               	addwfc	((actual@t+1))&0ffh,w
  4355+ 0019A8  6EEA               	movwf	1+c:fsr0l
  4356+ 0019AA  0102               	movlb	2	; () banked
  4357+ 0019AC  CFEE F223          	movff	postinc0,(actual@tmp1)
  4358+ 0019B0  0102               	movlb	2	; () banked
  4359+ 0019B2  CFEE F224          	movff	postinc0,(actual@tmp1+1)
  4360+ 0019B6  0102               	movlb	2	; () banked
  4361+ 0019B8  CFED F225          	movff	postdec0,(actual@tmp1+2)
  4362+                          	line	761
  4363+                          ;main.c: 761: tmp2 = t[i+1].tmp;
  4364+ 0019BC  0E06               	movlw	low(06h)
  4365+ 0019BE  0102               	movlb	2	; () banked
  4366+ 0019C0  0102               	movlb	2	; () banked
  4367+ 0019C2  6F30               	movwf	(0+(?___wmul+02h))&0ffh
  4368+ 0019C4  0E00               	movlw	high(06h)
  4369+ 0019C6  0102               	movlb	2	; () banked
  4370+ 0019C8  6F31               	movwf	(1+(?___wmul+02h))&0ffh
  4371+ 0019CA  0E01               	movlw	low(01h)
  4372+ 0019CC  0102               	movlb	2	; () banked
  4373+ 0019CE  0102               	movlb	2	; () banked
  4374+ 0019D0  2518               	addwf	((actual@i))&0ffh,w
  4375+ 0019D2  0102               	movlb	2	; () banked
  4376+                          	
  4377+ 0019D4  0102               	movlb	2	; () banked
  4378+ 0019D6  6F2E               	movwf	((?___wmul))&0ffh
  4379+ 0019D8  0E00               	movlw	high(01h)
  4380+ 0019DA  0102               	movlb	2	; () banked
  4381+ 0019DC  0102               	movlb	2	; () banked
  4382+ 0019DE  2119               	addwfc	((actual@i+1))&0ffh,w
  4383+ 0019E0  0102               	movlb	2	; () banked
  4384+ 0019E2  6F2F               	movwf	1+((?___wmul))&0ffh
  4385+ 0019E4  ECBC  F020         	call	___wmul	;wreg free
  4386+ 0019E8  0102               	movlb	2	; () banked
  4387+ 0019EA  0102               	movlb	2	; () banked
  4388+ 0019EC  512E               	movf	(0+?___wmul)&0ffh,w
  4389+ 0019EE  0102               	movlb	2	; () banked
  4390+ 0019F0  0102               	movlb	2	; () banked
  4391+ 0019F2  2513               	addwf	((actual@t))&0ffh,w
  4392+ 0019F4  6EE9               	movwf	c:fsr0l
  4393+ 0019F6  0102               	movlb	2	; () banked
  4394+ 0019F8  0102               	movlb	2	; () banked
  4395+ 0019FA  512F               	movf	(1+?___wmul)&0ffh,w
  4396+ 0019FC  0102               	movlb	2	; () banked
  4397+ 0019FE  0102               	movlb	2	; () banked
  4398+ 001A00  2114               	addwfc	((actual@t+1))&0ffh,w
  4399+ 001A02  6EEA               	movwf	1+c:fsr0l
  4400+ 001A04  0102               	movlb	2	; () banked
  4401+ 001A06  CFEE F21D          	movff	postinc0,(actual@tmp2)
  4402+ 001A0A  0102               	movlb	2	; () banked
  4403+ 001A0C  CFEE F21E          	movff	postinc0,(actual@tmp2+1)
  4404+ 001A10  0102               	movlb	2	; () banked
  4405+ 001A12  CFED F21F          	movff	postdec0,(actual@tmp2+2)
  4406+                          	line	764
  4407+                          ;main.c: 764: slope=(tmp2-tmp1)/(vtg2-vtg1);
  4408+ 001A16  C223  F231         	movff	(actual@tmp1),0+(?___ftsub+03h)
  4409+ 001A1A  C224  F232         	movff	(actual@tmp1+1),1+(?___ftsub+03h)
  4410  001A1E  C225  F233         	movff	(actual@tmp1+2),2+(?___ftsub+03h)
  4411  001A22  C21D  F22E         	movff	(actual@tmp2),(?___ftsub)
  4412  001A26  C21E  F22F         	movff	(actual@tmp2+1),(?___ftsub+1)
  4413  001A2A  C21F  F230         	movff	(actual@tmp2+2),(?___ftsub+2)
  4414  001A2E  EC6B  F021         	call	___ftsub	;wreg free
  4415  001A32  C22E  F215         	movff	0+?___ftsub,(_actual$972)
  4416  001A36  C22F  F216         	movff	1+?___ftsub,(_actual$972+1)
  4417  001A3A  C230  F217         	movff	2+?___ftsub,(_actual$972+2)
  4418  001A3E  C226  F231         	movff	(actual@vtg1),0+(?___ftsub+03h)
  4419  001A42  C227  F232         	movff	(actual@vtg1+1),1+(?___ftsub+03h)
  4420  001A46  C228  F233         	movff	(actual@vtg1+2),2+(?___ftsub+03h)
  4421  001A4A  C220  F22E         	movff	(actual@vtg2),(?___ftsub)
  4422  001A4E  C221  F22F         	movff	(actual@vtg2+1),(?___ftsub+1)
  4423  001A52  C222  F230         	movff	(actual@vtg2+2),(?___ftsub+2)
  4424  001A56  EC6B  F021         	call	___ftsub	;wreg free
  4425  001A5A  C22E  F231         	movff	0+?___ftsub,0+(?___ftdiv+03h)
  4426  001A5E  C22F  F232         	movff	1+?___ftsub,1+(?___ftdiv+03h)
  4427  001A62  C230  F233         	movff	2+?___ftsub,2+(?___ftdiv+03h)
  4428  001A66  C215  F22E         	movff	(_actual$972),(?___ftdiv)
  4429  001A6A  C216  F22F         	movff	(_actual$972+1),(?___ftdiv+1)
  4430  001A6E  C217  F230         	movff	(_actual$972+2),(?___ftdiv+2)
  4431  001A72  ECBD  F014         	call	___ftdiv	;wreg free
  4432  001A76  C22E  F21A         	movff	0+?___ftdiv,(actual@slope)
  4433  001A7A  C22F  F21B         	movff	1+?___ftdiv,(actual@slope+1)
  4434  001A7E  C230  F21C         	movff	2+?___ftdiv,(actual@slope+2)
  4435                           	line	766
  4436                           ;main.c: 766: actualtmp=tmp1+((actualvtg-vtg1)*s
                                 lope);
  4437  001A82  C226  F231         	movff	(actual@vtg1),0+(?___ftsub+03h)
  4438  001A86  C227  F232         	movff	(actual@vtg1+1),1+(?___ftsub+03h)
  4439  001A8A  C228  F233         	movff	(actual@vtg1+2),2+(?___ftsub+03h)
  4440  001A8E  C210  F22E         	movff	(actual@actualvtg),(?___ftsub)
  4441  001A92  C211  F22F         	movff	(actual@actualvtg+1),(?___ftsub+1)
  4442  001A96  C212  F230         	movff	(actual@actualvtg+2),(?___ftsub+2)
  4443  001A9A  EC6B  F021         	call	___ftsub	;wreg free
  4444  001A9E  C22E  F22E         	movff	0+?___ftsub,(?___ftmul)
  4445  001AA2  C22F  F22F         	movff	1+?___ftsub,(?___ftmul+1)
  4446  001AA6  C230  F230         	movff	2+?___ftsub,(?___ftmul+2)
  4447  001AAA  C21A  F231         	movff	(actual@slope),0+(?___ftmul+03h)
  4448  001AAE  C21B  F232         	movff	(actual@slope+1),1+(?___ftmul+03h)
  4449  001AB2  C21C  F233         	movff	(actual@slope+2),2+(?___ftmul+03h)
  4450  001AB6  ECCE  F013         	call	___ftmul	;wreg free
  4451  001ABA  C22E  F234         	movff	0+?___ftmul,(?___ftadd)
  4452  001ABE  C22F  F235         	movff	1+?___ftmul,(?___ftadd+1)
  4453  001AC2  C230  F236         	movff	2+?___ftmul,(?___ftadd+2)
  4454  001AC6  C223  F237         	movff	(actual@tmp1),0+(?___ftadd+03h)
  4455  001ACA  C224  F238         	movff	(actual@tmp1+1),1+(?___ftadd+03h)
  4456  001ACE  C225  F239         	movff	(actual@tmp1+2),2+(?___ftadd+03h)
  4457  001AD2  EC5E  F00F         	call	___ftadd	;wreg free
  4458  001AD6  C234  F229         	movff	0+?___ftadd,(actual@actualtmp)
  4459  001ADA  C235  F22A         	movff	1+?___ftadd,(actual@actualtmp+1)
  4460  001ADE  C236  F22B         	movff	2+?___ftadd,(actual@actualtmp+2)
  4461                           	line	767
  4462  001AE2  C229  F210         	movff	(actual@actualtmp),(?_actual)
  4463  001AE6  C22A  F211         	movff	(actual@actualtmp+1),(?_actual+1)
  4464  001AEA  C22B  F212         	movff	(actual@actualtmp+2),(?_actual+2)
  4465  001AEE  EF8C  F00D         	goto	l227
  4466                           	line	768
  4467                           	
  4468  001AF2                     l232:		; BSR set to: ?
  4469                           
  4470                           	line	747
  4471  001AF2  0102               	movlb	2	; () banked
  4472  001AF4  0102               	movlb	2	; () banked
  4473  001AF6  4B18               	infsnz	((actual@i))&0ffh
  4474  001AF8  2B19               	incf	((actual@i+1))&0ffh
  4475  001AFA  0102               	movlb	2	; () banked
  4476  001AFC  0102               	movlb	2	; () banked
  4477  001AFE  5119               	movf	((actual@i+1))&0ffh,w
  4478  001B00  0A80               	xorlw	80h
  4479  001B02  0F80               	addlw	-((0)^80h)
  4480  001B04  0E1F               	movlw	01Fh
  4481  001B06  B4D8               	btfsc	status,2
  4482  001B08  5D18               	subwf	((actual@i))&0ffh,w
  4483  001B0A  A0D8               	btfss	status,0
  4484  001B0C  EF8A  F00D         	goto	u3621
  4485  001B10  EF8C  F00D         	goto	u3620
  4486  001B14                     u3621:
  4487  001B14  EF6E  F00B         	goto	l228
  4488  001B18                     u3620:
  4489                           	
  4490  001B18                     l229:		; BSR set to: ?
  4491                           
  4492                           	line	770
  4493                           ;main.c: 768: }
  4494                           ;main.c: 769: }
  4495                           ;main.c: 770: }
  4496  001B18                     l227:
  4497                           			; BSR set to: ?
  4498                           
  4499  001B18  0012               	return
  4500                           	opt stack 0
  4501                           GLOBAL __end_of_actual
  4502  001B1A                     	__end_of_actual:
  4503                           	FNSIZE	_actual,25,5
  4504                           ; =============== function _actual ends ========
                                 ====
  4505                           
  4506                           	signat	_actual,8315
  4507                           	global	___ftneg
  4508                           	global	??___ftneg
  4509                           	global	?___ftneg
  4510                           
  4511                           ; *************** function ___ftneg ************
                                 *****
  4512                           ; Defined at:
  4513                           ;		line 16 in file "C:\Program Files\HI-TECH Sof
                                 tware\PICC-18\PRO\9.65\sources\ftneg.c"
  4514                           ; Parameters:
  4515                           ;		f1             size:   3offs:   0	type: float
                                  
  4516                           ; Auto variables:
  4517                           ;		None
  4518                           ; Return value:
  4519                           ;		type: float 
  4520                           ;		size: 3
  4521                           ; Registers used:
  4522                           ;		wreg, status,2, status,0
  4523                           ; Tracked objects:
  4524                           ;		On entry : 0/0
  4525                           ;		On exit  : 0/0
  4526                           ;		Unchanged: 0/0
  4527                           ; Data sizes:
  4528                           ;		Autos:    0
  4529                           ;		Params:   3
  4530                           ;		Temp:     0
  4531                           ;		Total:    3
  4532                           ; This function calls:
  4533                           ;		Nothing
  4534                           ; This function is called by:
  4535                           ;		___awtoft
  4536                           ; This function uses a non-reentrant model
  4537                           ; 
  4538                                   psect   text15,class=CODE,space=0,reloc=
                                 2
  4539                           
  4540                           	opt lm
  4541                           	file	"C:\Program Files\HI-TECH Software\PICC-18
                                 \PRO\9.65\sources\ftneg.c"
  4542                           	line	16
  4543  000000                     	__size_of___ftneg	equ	__end_of___ftneg-___ftneg
  4544                           	
  4545  00424A                     ___ftneg:		; BSR set to: ?
  4546                           
  4547                           	opt stack 25
  4548                           	line	17
  4549  00424A  0102               	movlb	2	; () banked
  4550  00424C  0102               	movlb	2	; () banked
  4551  00424E  5111               	movf	((___ftneg@f1))&0ffh,w
  4552  004250  0102               	movlb	2	; () banked
  4553  004252  1112               	iorwf	((___ftneg@f1+1))&0ffh,w
  4554  004254  0102               	movlb	2	; () banked
  4555  004256  1113               	iorwf	((___ftneg@f1+2))&0ffh,w
  4556  004258  B4D8               	btfsc	status,2
  4557  00425A  EF31  F021         	goto	u3631
  4558  00425E  EF33  F021         	goto	u3630
  4559  004262                     u3631:
  4560  004262  EF3F  F021         	goto	l593
  4561  004266                     u3630:
  4562                           	line	18
  4563  004266  0E00               	movlw	low(0800000h)
  4564  004268  0102               	movlb	2	; () banked
  4565  00426A  0102               	movlb	2	; () banked
  4566  00426C  1B11               	xorwf	((___ftneg@f1))&0ffh
  4567  00426E  0E00               	movlw	high(0800000h)
  4568  004270  0102               	movlb	2	; () banked
  4569  004272  0102               	movlb	2	; () banked
  4570  004274  1B12               	xorwf	((___ftneg@f1+1))&0ffh
  4571  004276  0E80               	movlw	low highword(0800000h)
  4572  004278  0102               	movlb	2	; () banked
  4573  00427A  0102               	movlb	2	; () banked
  4574  00427C  1B13               	xorwf	((___ftneg@f1+2))&0ffh
  4575                           
  4576                           	
  4577  00427E                     l593:		; BSR set to: ?
  4578                           
  4579                           	line	19
  4580  00427E  C211  F211         	movff	(___ftneg@f1),(?___ftneg)
  4581  004282  C212  F212         	movff	(___ftneg@f1+1),(?___ftneg+1)
  4582  004286  C213  F213         	movff	(___ftneg@f1+2),(?___ftneg+2)
  4583  00428A  EF47  F021         	goto	l592
  4584                           	line	20
  4585  00428E                     l592:
  4586                           			; BSR set to: ?
  4587                           
  4588  00428E  0012               	return
  4589                           	opt stack 0
  4590                           GLOBAL __end_of___ftneg
  4591  004290                     	__end_of___ftneg:
  4592                           	FNSIZE	___ftneg,0,3
  4593                           ; =============== function ___ftneg ends =======
                                 =====
  4594                           
  4595                           	signat	___ftneg,4219
  4596                           	global	_pid_error
  4597                           	global	??_pid_error
  4598                           	global	?_pid_error
  4599                           
  4600                           ; *************** function _pid_error **********
                                 *******
  4601                           ; Defined at:
  4602                           ;		line 860 in file "main.c"
  4603                           ; Parameters:
  4604                           ;		None
  4605                           ; Auto variables:
  4606                           ;		None
  4607                           ; Return value:
  4608                           ;		type: void 
  4609                           ;		size: 0
  4610                           ; Registers used:
  4611                           ;		wreg, fsr0l, fsr0h, status,2, status,0, cstac
                                 k
  4612                           ; Tracked objects:
  4613                           ;		On entry : 0/0
  4614                           ;		On exit  : 0/0
  4615                           ;		Unchanged: 0/0
  4616                           ; Data sizes:
  4617                           ;		Autos:    0
  4618                           ;		Params:   0
  4619                           ;		Temp:     0
  4620                           ;		Total:    0
  4621                           ; This function calls:
  4622                           ;		_calc_err
  4623                           ; This function is called by:
  4624                           ;		_pid
  4625                           ; This function uses a non-reentrant model
  4626                           ; 
  4627                                   psect   text16,class=CODE,space=0,reloc=
                                 2
  4628                           
  4629                           	opt lm
  4630                           	file	"main.c"
  4631                           	line	860
  4632  000000                     	__size_of_pid_error	equ	__end_of_pid_error-_pid
                                 _error
  4633                           ;main.c: 859: void pid_error(void)
  4634                           ;main.c: 860: {
  4635                           	
  4636  0040EE                     _pid_error:		; BSR set to: ?
  4637                           
  4638                           	opt stack 25
  4639                           	line	861
  4640                           ;main.c: 861: switch(pid_cycle_no)
  4641  0040EE  EFB0  F020         	goto	l247
  4642                           	line	863
  4643                           ;main.c: 862: {
  4644                           ;main.c: 863: case 0: e2=calc_err();
  4645                           	
  4646  0040F2                     l248:		; BSR set to: ?
  4647                           
  4648  0040F2  ECAD  F021         	call	_calc_err	;wreg free
  4649  0040F6  C213  F03C         	movff	0+?_calc_err,(c:60)
  4650  0040FA  C214  F03D         	movff	1+?_calc_err,(c:60+1)
  4651  0040FE  C215  F03E         	movff	2+?_calc_err,(c:60+2)
  4652                           	line	864
  4653                           ;main.c: 864: pid_cycle_no++;
  4654  004102  2A43               	incf	((c:67)),c
  4655                           	line	865
  4656                           ;main.c: 865: break;
  4657  004104  EFBB  F020         	goto	l246
  4658                           	line	867
  4659                           ;main.c: 867: case 1: e1=calc_err();
  4660                           	
  4661  004108                     l249:		; BSR set to: ?
  4662                           
  4663  004108  ECAD  F021         	call	_calc_err	;wreg free
  4664  00410C  C213  F028         	movff	0+?_calc_err,(c:40)
  4665  004110  C214  F029         	movff	1+?_calc_err,(c:40+1)
  4666  004114  C215  F02A         	movff	2+?_calc_err,(c:40+2)
  4667                           	line	868
  4668                           ;main.c: 868: pid_cycle_no++;
  4669  004118  2A43               	incf	((c:67)),c
  4670                           	line	869
  4671                           ;main.c: 869: break;
  4672  00411A  EFBB  F020         	goto	l246
  4673                           	line	871
  4674                           ;main.c: 871: case 2: e0=calc_err();
  4675                           	
  4676  00411E                     l250:		; BSR set to: ?
  4677                           
  4678  00411E  ECAD  F021         	call	_calc_err	;wreg free
  4679  004122  C213  F02B         	movff	0+?_calc_err,(c:43)
  4680  004126  C214  F02C         	movff	1+?_calc_err,(c:43+1)
  4681  00412A  C215  F02D         	movff	2+?_calc_err,(c:43+2)
  4682                           	line	872
  4683                           ;main.c: 872: pid_cycle_no++;
  4684  00412E  2A43               	incf	((c:67)),c
  4685                           	line	873
  4686                           ;main.c: 873: break;
  4687  004130  EFBB  F020         	goto	l246
  4688                           	line	875
  4689                           ;main.c: 875: case 3: e0=calc_err();
  4690                           	
  4691  004134                     l251:		; BSR set to: ?
  4692                           
  4693  004134  ECAD  F021         	call	_calc_err	;wreg free
  4694  004138  C213  F02B         	movff	0+?_calc_err,(c:43)
  4695  00413C  C214  F02C         	movff	1+?_calc_err,(c:43+1)
  4696  004140  C215  F02D         	movff	2+?_calc_err,(c:43+2)
  4697                           	line	876
  4698                           ;main.c: 876: e2 = e1 ;
  4699  004144  C028 F03C          	movff	(c:40),(c:60)
  4700  004148  C029 F03D          	movff	(c:40+1),(c:60+1)
  4701  00414C  C02A F03E          	movff	(c:40+2),(c:60+2)
  4702                           	line	877
  4703                           ;main.c: 877: e1 = e0 ;
  4704  004150  C02B F028          	movff	(c:43),(c:40)
  4705  004154  C02C F029          	movff	(c:43+1),(c:40+1)
  4706  004158  C02D F02A          	movff	(c:43+2),(c:40+2)
  4707                           	line	878
  4708                           ;main.c: 878: break;
  4709  00415C  EFBB  F020         	goto	l246
  4710                           	line	861
  4711                           	
  4712  004160                     l247:		; BSR set to: ?
  4713                           
  4714  004160  5043               	movf	((c:67)),c,w
  4715  004162  0A00               	xorlw	0 ^ 0
  4716  004164  E0C6               	bz	l248
  4717  004166  0A01               	xorlw	1 ^ 0
  4718  004168  E0CF               	bz	l249
  4719  00416A  0A03               	xorlw	2 ^ 1
  4720  00416C  E0D8               	bz	l250
  4721  00416E  0A01               	xorlw	3 ^ 2
  4722  004170  E0E1               	bz	l251
  4723  004172  EFBB  F020         	goto	l246
  4724                           
  4725                           	line	879
  4726                           	
  4727  004176                     l246:		; BSR set to: ?
  4728                           
  4729                           	line	880
  4730                           ;main.c: 880: }
  4731  004176                     l245:
  4732                           			; BSR set to: ?
  4733                           
  4734  004176  0012               	return
  4735                           	opt stack 0
  4736                           GLOBAL __end_of_pid_error
  4737  004178                     	__end_of_pid_error:
  4738                           	FNSIZE	_pid_error,0,0
  4739                           ; =============== function _pid_error ends =====
                                 =======
  4740                           
  4741                           	signat	_pid_error,88
  4742                           	global	___awmod
  4743                           	global	??___awmod
  4744                           	global	?___awmod
  4745                           
  4746                           ; *************** function ___awmod ************
                                 *****
  4747                           ; Defined at:
  4748                           ;		line 5 in file "C:\Program Files\HI-TECH Soft
                                 ware\PICC-18\PRO\9.65\sources\awmod.c"
  4749                           ; Parameters:
  4750                           ;		dividend       size:   2offs:   0	type: int 
  4751                           ;		divisor        size:   2offs:   2	type: int 
  4752                           ; Auto variables:
  4753                           ;		sign        	       	type: unsigned char 
  4754                           ;		counter     	       	type: unsigned char 
  4755                           ; Return value:
  4756                           ;		type: int 
  4757                           ;		size: 2
  4758                           ; Registers used:
  4759                           ;		wreg, status,2, status,0
  4760                           ; Tracked objects:
  4761                           ;		On entry : 0/0
  4762                           ;		On exit  : 0/0
  4763                           ;		Unchanged: 0/0
  4764                           ; Data sizes:
  4765                           ;		Autos:    2
  4766                           ;		Params:   4
  4767                           ;		Temp:     1
  4768                           ;		Total:    7
  4769                           ; This function calls:
  4770                           ; This function is called by:
  4771                           ;		_Navigate
  4772                           ;		_dispnum
  4773                           ; This function uses a non-reentrant model
  4774                           ; 
  4775                                   psect   text17,class=CODE,space=0,reloc=
                                 2
  4776                           
  4777                           	opt lm
  4778                           	file	"C:\Program Files\HI-TECH Software\PICC-18
                                 \PRO\9.65\sources\awmod.c"
  4779                           	line	5
  4780  000000                     	__size_of___awmod	equ	__end_of___awmod-___awmod
  4781                           	
  4782  003814                     ___awmod:		; BSR set to: ?
  4783                           
  4784                           	opt stack 25
  4785                           	line	8
  4786  003814  0102               	movlb	2	; () banked
  4787  003816  6F20               	movwf	(??___awmod+2+0)&0ffh
  4788  003818  0E00               	movlw	low(0)
  4789  00381A  0102               	movlb	2	; () banked
  4790  00381C  0102               	movlb	2	; () banked
  4791  00381E  6F1E               	movwf	((___awmod@sign))&0ffh
  4792  003820  0102               	movlb	2	; () banked
  4793  003822  5120               	movf	(??___awmod+2+0)&0ffh,w
  4794                           	line	9
  4795  003824  0102               	movlb	2	; () banked
  4796  003826  0102               	movlb	2	; () banked
  4797  003828  AF1B               	btfss	((___awmod@dividend+1))&0ffh,7
  4798  00382A  EF19  F01C         	goto	u3641
  4799  00382E  EF1B  F01C         	goto	u3640
  4800  003832                     u3641:
  4801  003832  EF2A  F01C         	goto	l327
  4802  003836                     u3640:
  4803                           	line	10
  4804  003836  0102               	movlb	2	; () banked
  4805  003838  0102               	movlb	2	; () banked
  4806  00383A  6D1A               	negf	((___awmod@dividend))&0ffh
  4807  00383C  0102               	movlb	2	; () banked
  4808  00383E  1F1B               	comf	((___awmod@dividend+1))&0ffh
  4809  003840  B0D8               	btfsc	status,0
  4810  003842  2B1B               	incf	((___awmod@dividend+1))&0ffh
  4811                           	line	11
  4812  003844  0102               	movlb	2	; () banked
  4813  003846  6F20               	movwf	(??___awmod+2+0)&0ffh
  4814  003848  0E01               	movlw	low(01h)
  4815  00384A  0102               	movlb	2	; () banked
  4816  00384C  0102               	movlb	2	; () banked
  4817  00384E  6F1E               	movwf	((___awmod@sign))&0ffh
  4818  003850  0102               	movlb	2	; () banked
  4819  003852  5120               	movf	(??___awmod+2+0)&0ffh,w
  4820                           	line	12
  4821                           	
  4822  003854                     l327:		; BSR set to: ?
  4823                           
  4824                           	line	13
  4825  003854  0102               	movlb	2	; () banked
  4826  003856  0102               	movlb	2	; () banked
  4827  003858  AF1D               	btfss	((___awmod@divisor+1))&0ffh,7
  4828  00385A  EF31  F01C         	goto	u3651
  4829  00385E  EF33  F01C         	goto	u3650
  4830  003862                     u3651:
  4831  003862  EF3A  F01C         	goto	l328
  4832  003866                     u3650:
  4833                           	line	14
  4834  003866  0102               	movlb	2	; () banked
  4835  003868  0102               	movlb	2	; () banked
  4836  00386A  6D1C               	negf	((___awmod@divisor))&0ffh
  4837  00386C  0102               	movlb	2	; () banked
  4838  00386E  1F1D               	comf	((___awmod@divisor+1))&0ffh
  4839  003870  B0D8               	btfsc	status,0
  4840  003872  2B1D               	incf	((___awmod@divisor+1))&0ffh
  4841                           	
  4842  003874                     l328:		; BSR set to: ?
  4843                           
  4844                           	line	15
  4845  003874  0102               	movlb	2	; () banked
  4846  003876  0102               	movlb	2	; () banked
  4847  003878  511D               	movf	((___awmod@divisor+1))&0ffh,w
  4848  00387A  111C               	iorwf ((___awmod@divisor))&0ffh,w
  4849                           
  4850  00387C  B4D8               	btfsc	status,2
  4851  00387E  EF43  F01C         	goto	u3661
  4852  003882  EF45  F01C         	goto	u3660
  4853  003886                     u3661:
  4854  003886  EF8B  F01C         	goto	l329
  4855  00388A                     u3660:
  4856                           	line	16
  4857  00388A  0102               	movlb	2	; () banked
  4858  00388C  6F20               	movwf	(??___awmod+2+0)&0ffh
  4859  00388E  0E01               	movlw	low(01h)
  4860  003890  0102               	movlb	2	; () banked
  4861  003892  0102               	movlb	2	; () banked
  4862  003894  6F1F               	movwf	((___awmod@counter))&0ffh
  4863  003896  0102               	movlb	2	; () banked
  4864  003898  5120               	movf	(??___awmod+2+0)&0ffh,w
  4865                           	line	17
  4866  00389A  EF58  F01C         	goto	l330
  4867                           	
  4868  00389E                     l331:		; BSR set to: ?
  4869                           
  4870                           	line	18
  4871  00389E  0102               	movlb	2	; () banked
  4872  0038A0  90D8               	bcf	status,0
  4873  0038A2  0102               	movlb	2	; () banked
  4874  0038A4  371C               	rlcf	((___awmod@divisor))&0ffh
  4875  0038A6  0102               	movlb	2	; () banked
  4876  0038A8  371D               	rlcf	((___awmod@divisor+1))&0ffh
  4877                           	line	19
  4878  0038AA  0102               	movlb	2	; () banked
  4879  0038AC  0102               	movlb	2	; () banked
  4880  0038AE  2B1F               	incf	((___awmod@counter))&0ffh
  4881                           	line	20
  4882                           	
  4883  0038B0                     l330:		; BSR set to: ?
  4884                           
  4885                           	line	17
  4886  0038B0  0102               	movlb	2	; () banked
  4887                           	
  4888  0038B2  0102               	movlb	2	; () banked
  4889  0038B4  AF1D               	btfss	((___awmod@divisor+1))&0ffh,(15)&7
  4890  0038B6  EF5F  F01C         	goto	u3671
  4891  0038BA  EF61  F01C         	goto	u3670
  4892  0038BE                     u3671:
  4893  0038BE  EF4F  F01C         	goto	l331
  4894  0038C2                     u3670:
  4895                           	
  4896  0038C2                     l332:		; BSR set to: ?
  4897                           
  4898                           	line	21
  4899                           	
  4900  0038C2                     l335:		; BSR set to: ?
  4901                           
  4902                           	line	22
  4903  0038C2  0102               	movlb	2	; () banked
  4904  0038C4  0102               	movlb	2	; () banked
  4905  0038C6  511C               	movf	((___awmod@divisor))&0ffh,w
  4906  0038C8  0102               	movlb	2	; () banked
  4907  0038CA  0102               	movlb	2	; () banked
  4908  0038CC  5D1A               	subwf	((___awmod@dividend))&0ffh,w
  4909  0038CE  0102               	movlb	2	; () banked
  4910  0038D0  0102               	movlb	2	; () banked
  4911  0038D2  511D               	movf	((___awmod@divisor+1))&0ffh,w
  4912  0038D4  0102               	movlb	2	; () banked
  4913  0038D6  0102               	movlb	2	; () banked
  4914  0038D8  591B               	subwfb	((___awmod@dividend+1))&0ffh,w
  4915  0038DA  A0D8               	btfss	status,0
  4916  0038DC  EF72  F01C         	goto	u3681
  4917  0038E0  EF74  F01C         	goto	u3680
  4918  0038E4                     u3681:
  4919  0038E4  EF80  F01C         	goto	l336
  4920  0038E8                     u3680:
  4921                           	line	23
  4922  0038E8  0102               	movlb	2	; () banked
  4923  0038EA  0102               	movlb	2	; () banked
  4924  0038EC  511C               	movf	((___awmod@divisor))&0ffh,w
  4925  0038EE  0102               	movlb	2	; () banked
  4926  0038F0  0102               	movlb	2	; () banked
  4927  0038F2  5F1A               	subwf	((___awmod@dividend))&0ffh
  4928  0038F4  0102               	movlb	2	; () banked
  4929  0038F6  0102               	movlb	2	; () banked
  4930  0038F8  511D               	movf	((___awmod@divisor+1))&0ffh,w
  4931  0038FA  0102               	movlb	2	; () banked
  4932  0038FC  0102               	movlb	2	; () banked
  4933  0038FE  5B1B               	subwfb	((___awmod@dividend+1))&0ffh
  4934                           
  4935                           	
  4936  003900                     l336:		; BSR set to: ?
  4937                           
  4938                           	line	24
  4939  003900  0102               	movlb	2	; () banked
  4940  003902  90D8               	bcf	status,0
  4941  003904  0102               	movlb	2	; () banked
  4942  003906  331D               	rrcf	((___awmod@divisor+1))&0ffh
  4943  003908  0102               	movlb	2	; () banked
  4944  00390A  331C               	rrcf	((___awmod@divisor))&0ffh
  4945                           	line	25
  4946  00390C  0102               	movlb	2	; () banked
  4947  00390E  0102               	movlb	2	; () banked
  4948  003910  2F1F               	decfsz	((___awmod@counter))&0ffh
  4949                           	
  4950  003912  EF61  F01C         	goto	l335
  4951                           	
  4952  003916                     l334:		; BSR set to: ?
  4953                           
  4954                           	line	26
  4955                           	
  4956  003916                     l329:		; BSR set to: ?
  4957                           
  4958                           	line	27
  4959  003916  0102               	movlb	2	; () banked
  4960  003918  0102               	movlb	2	; () banked
  4961  00391A  511E               	movf	((___awmod@sign))&0ffh,w
  4962  00391C  B4D8               	btfsc	status,2
  4963  00391E  EF93  F01C         	goto	u3691
  4964  003922  EF95  F01C         	goto	u3690
  4965  003926                     u3691:
  4966  003926  EF9C  F01C         	goto	l337
  4967  00392A                     u3690:
  4968                           	line	28
  4969  00392A  0102               	movlb	2	; () banked
  4970  00392C  0102               	movlb	2	; () banked
  4971  00392E  6D1A               	negf	((___awmod@dividend))&0ffh
  4972  003930  0102               	movlb	2	; () banked
  4973  003932  1F1B               	comf	((___awmod@dividend+1))&0ffh
  4974  003934  B0D8               	btfsc	status,0
  4975  003936  2B1B               	incf	((___awmod@dividend+1))&0ffh
  4976                           	
  4977  003938                     l337:		; BSR set to: ?
  4978                           
  4979                           	line	29
  4980  003938  C21A  F21A         	movff	(___awmod@dividend),(?___awmod)
  4981  00393C  C21B  F21B         	movff	(___awmod@dividend+1),(?___awmod+1)
  4982  003940  EFA2  F01C         	goto	l326
  4983                           	line	30
  4984  003944                     l326:
  4985                           			; BSR set to: ?
  4986                           
  4987  003944  0012               	return
  4988                           	opt stack 0
  4989                           GLOBAL __end_of___awmod
  4990  003946                     	__end_of___awmod:
  4991                           	FNSIZE	___awmod,3,4
  4992                           ; =============== function ___awmod ends =======
                                 =====
  4993                           
  4994                           	signat	___awmod,8314
  4995                           	global	_Display
  4996                           	global	??_Display
  4997                           	global	?_Display
  4998                           
  4999                           ; *************** function _Display ************
                                 *****
  5000                           ; Defined at:
  5001                           ;		line 562 in file "main.c"
  5002                           ; Parameters:
  5003                           ;		str            size:   2offs:   0	type: PTR c
                                 onst unsigned char ; Largest target is 17
  5004                           ;		 -> numstr(16), string6(17), string5(17), str
                                 ing4(17), 
  5005                           ;		 -> string3(17), string2(17), string1(17), 
  5006                           ;		pos            size:   1offs:   2	type: unsig
                                 ned char 
  5007                           ; Auto variables:
  5008                           ;		i           	       	type: int 
  5009                           ; Return value:
  5010                           ;		type: int 
  5011                           ;		size: 2
  5012                           ; Registers used:
  5013                           ;		wreg, fsr0l, fsr0h, status,2, status,0, tblpt
                                 rl, tblptrh, tblptru, tablat, cstack
  5014                           ; Tracked objects:
  5015                           ;		On entry : 0/0
  5016                           ;		On exit  : 0/0
  5017                           ;		Unchanged: 0/0
  5018                           ; Data sizes:
  5019                           ;		Autos:    2
  5020                           ;		Params:   3
  5021                           ;		Temp:     2
  5022                           ;		Total:    7
  5023                           ; This function calls:
  5024                           ;		_DelayMs
  5025                           ;		_lcd_command
  5026                           ;		_lcd_data
  5027                           ; This function is called by:
  5028                           ;		_main
  5029                           ;		_dispnum
  5030                           ; This function uses a non-reentrant model
  5031                           ; 
  5032                                   psect   text18,class=CODE,space=0,reloc=
                                 2
  5033                           
  5034                           	opt lm
  5035                           	file	"main.c"
  5036                           	line	562
  5037  000000                     	__size_of_Display	equ	__end_of_Display-_Display
  5038                           ;main.c: 561: int Display(const char *str,char p
                                 os)
  5039                           ;main.c: 562: {
  5040                           	
  5041  003D26                     _Display:		; BSR set to: ?
  5042                           
  5043                           	opt stack 25
  5044                           	line	565
  5045  003D26  0E05               	movlw	low(05h)
  5046  003D28  0102               	movlb	2	; () banked
  5047  003D2A  0102               	movlb	2	; () banked
  5048  003D2C  6F1B               	movwf	((?_DelayMs))&0ffh
  5049  003D2E  0E00               	movlw	high(05h)
  5050  003D30  0102               	movlb	2	; () banked
  5051  003D32  6F1C               	movwf	((?_DelayMs+1))&0ffh
  5052  003D34  EC26  F020         	call	_DelayMs	;wreg free
  5053                           	line	566
  5054                           ;main.c: 566: lcd_command(pos) ;
  5055  003D38  C214  F219         	movff	(Display@pos),(?_lcd_command)
  5056  003D3C  EC60  F01B         	call	_lcd_command	;wreg free
  5057                           	line	567
  5058                           ;main.c: 567: DelayMs(5) ;
  5059  003D40  0E05               	movlw	low(05h)
  5060  003D42  0102               	movlb	2	; () banked
  5061  003D44  0102               	movlb	2	; () banked
  5062  003D46  6F1B               	movwf	((?_DelayMs))&0ffh
  5063  003D48  0E00               	movlw	high(05h)
  5064  003D4A  0102               	movlb	2	; () banked
  5065  003D4C  6F1C               	movwf	((?_DelayMs+1))&0ffh
  5066  003D4E  EC26  F020         	call	_DelayMs	;wreg free
  5067                           	line	568
  5068                           ;main.c: 568: for(i=0;i!=16;i++)
  5069  003D52  0E00               	movlw	low(0)
  5070  003D54  0102               	movlb	2	; () banked
  5071  003D56  0102               	movlb	2	; () banked
  5072  003D58  6F15               	movwf	((Display@i))&0ffh
  5073  003D5A  0E00               	movlw	high(0)
  5074  003D5C  0102               	movlb	2	; () banked
  5075  003D5E  6F16               	movwf	((Display@i+1))&0ffh
  5076  003D60  0102               	movlb	2	; () banked
  5077  003D62  0102               	movlb	2	; () banked
  5078  003D64  5115               	movf	((Display@i))&0ffh,w
  5079  003D66  0A10               	xorlw	16
  5080  003D68  1116               	iorwf ((Display@i+1))&0ffh,w
  5081                           
  5082  003D6A  A4D8               	btfss	status,2
  5083  003D6C  EFBA  F01E         	goto	u3701
  5084  003D70  EFBC  F01E         	goto	u3700
  5085  003D74                     u3701:
  5086  003D74  EFBE  F01E         	goto	l199
  5087  003D78                     u3700:
  5088  003D78  EFFF  F01E         	goto	l200
  5089                           	line	569
  5090                           	
  5091  003D7C                     l199:		; BSR set to: ?
  5092                           
  5093                           	line	570
  5094                           ;main.c: 569: {
  5095                           ;main.c: 570: lcd_data(str[i]);
  5096  003D7C  0102               	movlb	2	; () banked
  5097  003D7E  0102               	movlb	2	; () banked
  5098  003D80  5115               	movf	((Display@i))&0ffh,w
  5099  003D82  0102               	movlb	2	; () banked
  5100  003D84  0102               	movlb	2	; () banked
  5101  003D86  2512               	addwf	((Display@str))&0ffh,w
  5102  003D88  0102               	movlb	2	; () banked
  5103  003D8A  6F17               	movwf	(??_Display+2+0)&0ffh
  5104  003D8C  6AE8               	clrf	wreg
  5105  003D8E  0102               	movlb	2	; () banked
  5106  003D90  0102               	movlb	2	; () banked
  5107  003D92  BF15               	btfsc	((Display@i))&0ffh,7
  5108  003D94  68E8               	setf	wreg
  5109  003D96  0102               	movlb	2	; () banked
  5110  003D98  0102               	movlb	2	; () banked
  5111  003D9A  2113               	addwfc	((Display@str+1))&0ffh,w
  5112  003D9C  0102               	movlb	2	; () banked
  5113  003D9E  6F18               	movwf	(??_Display+2+0+1)&0ffh
  5114  003DA0  C217  FFF6         	movff	??_Display+2+0,tblptrl
  5115  003DA4  C218  FFF7         	movff	??_Display+2+1,tblptrh
  5116  003DA8  0E00               	movlw	low highword(__smallconst)
  5117  003DAA  6EF8               	movwf	tblptru
  5118  003DAC  0E0F               	movlw	high __ramtop-1
  5119  003DAE  64F7               	cpfsgt	tblptrh
  5120  003DB0  D003               	bra	u3717
  5121  003DB2  0008               	tblrd	*
  5122                           	
  5123  003DB4  50F5               	movf	tablat,w
  5124  003DB6  D005               	bra	u3710
  5125  003DB8                     u3717:
  5126  003DB8  CFF6 FFE9          	movff	tblptrl,fsr0l
  5127  003DBC  CFF7 FFEA          	movff	tblptrh,fsr0h
  5128  003DC0  50EF               	movf	indf0,w
  5129  003DC2                     u3710:
  5130  003DC2  0102               	movlb	2	; () banked
  5131  003DC4  0102               	movlb	2	; () banked
  5132  003DC6  6F19               	movwf	((?_lcd_data))&0ffh
  5133  003DC8  ECB6  F01A         	call	_lcd_data	;wreg free
  5134                           	line	571
  5135                           ;main.c: 571: DelayMs(2);
  5136  003DCC  0E02               	movlw	low(02h)
  5137  003DCE  0102               	movlb	2	; () banked
  5138  003DD0  0102               	movlb	2	; () banked
  5139  003DD2  6F1B               	movwf	((?_DelayMs))&0ffh
  5140  003DD4  0E00               	movlw	high(02h)
  5141  003DD6  0102               	movlb	2	; () banked
  5142  003DD8  6F1C               	movwf	((?_DelayMs+1))&0ffh
  5143  003DDA  EC26  F020         	call	_DelayMs	;wreg free
  5144                           	line	568
  5145  003DDE  0102               	movlb	2	; () banked
  5146  003DE0  0102               	movlb	2	; () banked
  5147  003DE2  4B15               	infsnz	((Display@i))&0ffh
  5148  003DE4  2B16               	incf	((Display@i+1))&0ffh
  5149  003DE6  0102               	movlb	2	; () banked
  5150  003DE8  0102               	movlb	2	; () banked
  5151  003DEA  5115               	movf	((Display@i))&0ffh,w
  5152  003DEC  0A10               	xorlw	16
  5153  003DEE  1116               	iorwf ((Display@i+1))&0ffh,w
  5154                           
  5155  003DF0  A4D8               	btfss	status,2
  5156  003DF2  EFFD  F01E         	goto	u3721
  5157  003DF6  EFFF  F01E         	goto	u3720
  5158  003DFA                     u3721:
  5159  003DFA  EFBE  F01E         	goto	l199
  5160  003DFE                     u3720:
  5161                           	
  5162  003DFE                     l200:		; BSR set to: ?
  5163                           
  5164                           	line	573
  5165  003DFE  EF01  F01F         	goto	l198
  5166                           	line	575
  5167                           ;main.c: 575: }
  5168  003E02                     l198:
  5169                           			; BSR set to: ?
  5170                           
  5171  003E02  0012               	return
  5172                           	opt stack 0
  5173                           GLOBAL __end_of_Display
  5174  003E04                     	__end_of_Display:
  5175                           	FNSIZE	_Display,4,3
  5176                           ; =============== function _Display ends =======
                                 =====
  5177                           
  5178                           	signat	_Display,8314
  5179                           	global	___awdiv
  5180                           	global	??___awdiv
  5181                           	global	?___awdiv
  5182                           
  5183                           ; *************** function ___awdiv ************
                                 *****
  5184                           ; Defined at:
  5185                           ;		line 5 in file "C:\Program Files\HI-TECH Soft
                                 ware\PICC-18\PRO\9.65\sources\awdiv.c"
  5186                           ; Parameters:
  5187                           ;		dividend       size:   2offs:   0	type: int 
  5188                           ;		divisor        size:   2offs:   2	type: int 
  5189                           ; Auto variables:
  5190                           ;		counter     	       	type: unsigned char 
  5191                           ;		sign        	       	type: unsigned char 
  5192                           ;		quotient    	       	type: int 
  5193                           ; Return value:
  5194                           ;		type: int 
  5195                           ;		size: 2
  5196                           ; Registers used:
  5197                           ;		wreg, status,2, status,0
  5198                           ; Tracked objects:
  5199                           ;		On entry : 0/0
  5200                           ;		On exit  : 0/0
  5201                           ;		Unchanged: 0/0
  5202                           ; Data sizes:
  5203                           ;		Autos:    4
  5204                           ;		Params:   4
  5205                           ;		Temp:     1
  5206                           ;		Total:    9
  5207                           ; This function calls:
  5208                           ; This function is called by:
  5209                           ;		_Navigate
  5210                           ;		_dispnum
  5211                           ; This function uses a non-reentrant model
  5212                           ; 
  5213                                   psect   text19,class=CODE,space=0,reloc=
                                 2
  5214                           
  5215                           	opt lm
  5216                           	file	"C:\Program Files\HI-TECH Software\PICC-18
                                 \PRO\9.65\sources\awdiv.c"
  5217                           	line	5
  5218  000000                     	__size_of___awdiv	equ	__end_of___awdiv-___awdiv
  5219                           	
  5220  003412                     ___awdiv:		; BSR set to: ?
  5221                           
  5222                           	opt stack 25
  5223                           	line	9
  5224  003412  0102               	movlb	2	; () banked
  5225  003414  6F22               	movwf	(??___awdiv+4+0)&0ffh
  5226  003416  0E00               	movlw	low(0)
  5227  003418  0102               	movlb	2	; () banked
  5228  00341A  0102               	movlb	2	; () banked
  5229  00341C  6F1F               	movwf	((___awdiv@sign))&0ffh
  5230  00341E  0102               	movlb	2	; () banked
  5231  003420  5122               	movf	(??___awdiv+4+0)&0ffh,w
  5232                           	line	10
  5233  003422  0102               	movlb	2	; () banked
  5234  003424  0102               	movlb	2	; () banked
  5235  003426  AF1D               	btfss	((___awdiv@divisor+1))&0ffh,7
  5236  003428  EF18  F01A         	goto	u3731
  5237  00342C  EF1A  F01A         	goto	u3730
  5238  003430                     u3731:
  5239  003430  EF29  F01A         	goto	l315
  5240  003434                     u3730:
  5241                           	line	11
  5242  003434  0102               	movlb	2	; () banked
  5243  003436  0102               	movlb	2	; () banked
  5244  003438  6D1C               	negf	((___awdiv@divisor))&0ffh
  5245  00343A  0102               	movlb	2	; () banked
  5246  00343C  1F1D               	comf	((___awdiv@divisor+1))&0ffh
  5247  00343E  B0D8               	btfsc	status,0
  5248  003440  2B1D               	incf	((___awdiv@divisor+1))&0ffh
  5249                           	line	12
  5250  003442  0102               	movlb	2	; () banked
  5251  003444  6F22               	movwf	(??___awdiv+4+0)&0ffh
  5252  003446  0E01               	movlw	low(01h)
  5253  003448  0102               	movlb	2	; () banked
  5254  00344A  0102               	movlb	2	; () banked
  5255  00344C  6F1F               	movwf	((___awdiv@sign))&0ffh
  5256  00344E  0102               	movlb	2	; () banked
  5257  003450  5122               	movf	(??___awdiv+4+0)&0ffh,w
  5258                           	line	13
  5259                           	
  5260  003452                     l315:		; BSR set to: ?
  5261                           
  5262                           	line	14
  5263  003452  0102               	movlb	2	; () banked
  5264  003454  0102               	movlb	2	; () banked
  5265  003456  AF1B               	btfss	((___awdiv@dividend+1))&0ffh,7
  5266  003458  EF30  F01A         	goto	u3741
  5267  00345C  EF32  F01A         	goto	u3740
  5268  003460                     u3741:
  5269  003460  EF3D  F01A         	goto	l316
  5270  003464                     u3740:
  5271                           	line	15
  5272  003464  0102               	movlb	2	; () banked
  5273  003466  0102               	movlb	2	; () banked
  5274  003468  6D1A               	negf	((___awdiv@dividend))&0ffh
  5275  00346A  0102               	movlb	2	; () banked
  5276  00346C  1F1B               	comf	((___awdiv@dividend+1))&0ffh
  5277  00346E  B0D8               	btfsc	status,0
  5278  003470  2B1B               	incf	((___awdiv@dividend+1))&0ffh
  5279                           	line	16
  5280  003472  0E01               	movlw	(01h)&0ffh
  5281  003474  0102               	movlb	2	; () banked
  5282  003476  0102               	movlb	2	; () banked
  5283  003478  1B1F               	xorwf	((___awdiv@sign))&0ffh
  5284                           	line	17
  5285                           	
  5286  00347A                     l316:		; BSR set to: ?
  5287                           
  5288                           	line	18
  5289  00347A  0E00               	movlw	low(0)
  5290  00347C  0102               	movlb	2	; () banked
  5291  00347E  0102               	movlb	2	; () banked
  5292  003480  6F20               	movwf	((___awdiv@quotient))&0ffh
  5293  003482  0E00               	movlw	high(0)
  5294  003484  0102               	movlb	2	; () banked
  5295  003486  6F21               	movwf	((___awdiv@quotient+1))&0ffh
  5296                           	line	19
  5297  003488  0102               	movlb	2	; () banked
  5298  00348A  0102               	movlb	2	; () banked
  5299  00348C  511D               	movf	((___awdiv@divisor+1))&0ffh,w
  5300  00348E  111C               	iorwf ((___awdiv@divisor))&0ffh,w
  5301                           
  5302  003490  B4D8               	btfsc	status,2
  5303  003492  EF4D  F01A         	goto	u3751
  5304  003496  EF4F  F01A         	goto	u3750
  5305  00349A                     u3751:
  5306  00349A  EF9E  F01A         	goto	l317
  5307  00349E                     u3750:
  5308                           	line	20
  5309  00349E  0102               	movlb	2	; () banked
  5310  0034A0  6F22               	movwf	(??___awdiv+4+0)&0ffh
  5311  0034A2  0E01               	movlw	low(01h)
  5312  0034A4  0102               	movlb	2	; () banked
  5313  0034A6  0102               	movlb	2	; () banked
  5314  0034A8  6F1E               	movwf	((___awdiv@counter))&0ffh
  5315  0034AA  0102               	movlb	2	; () banked
  5316  0034AC  5122               	movf	(??___awdiv+4+0)&0ffh,w
  5317                           	line	21
  5318  0034AE  EF62  F01A         	goto	l318
  5319                           	
  5320  0034B2                     l319:		; BSR set to: ?
  5321                           
  5322                           	line	22
  5323  0034B2  0102               	movlb	2	; () banked
  5324  0034B4  90D8               	bcf	status,0
  5325  0034B6  0102               	movlb	2	; () banked
  5326  0034B8  371C               	rlcf	((___awdiv@divisor))&0ffh
  5327  0034BA  0102               	movlb	2	; () banked
  5328  0034BC  371D               	rlcf	((___awdiv@divisor+1))&0ffh
  5329                           	line	23
  5330  0034BE  0102               	movlb	2	; () banked
  5331  0034C0  0102               	movlb	2	; () banked
  5332  0034C2  2B1E               	incf	((___awdiv@counter))&0ffh
  5333                           	line	24
  5334                           	
  5335  0034C4                     l318:		; BSR set to: ?
  5336                           
  5337                           	line	21
  5338  0034C4  0102               	movlb	2	; () banked
  5339                           	
  5340  0034C6  0102               	movlb	2	; () banked
  5341  0034C8  AF1D               	btfss	((___awdiv@divisor+1))&0ffh,(15)&7
  5342  0034CA  EF69  F01A         	goto	u3761
  5343  0034CE  EF6B  F01A         	goto	u3760
  5344  0034D2                     u3761:
  5345  0034D2  EF59  F01A         	goto	l319
  5346  0034D6                     u3760:
  5347                           	
  5348  0034D6                     l320:		; BSR set to: ?
  5349                           
  5350                           	line	25
  5351                           	
  5352  0034D6                     l323:		; BSR set to: ?
  5353                           
  5354                           	line	26
  5355  0034D6  0102               	movlb	2	; () banked
  5356  0034D8  90D8               	bcf	status,0
  5357  0034DA  0102               	movlb	2	; () banked
  5358  0034DC  3720               	rlcf	((___awdiv@quotient))&0ffh
  5359  0034DE  0102               	movlb	2	; () banked
  5360  0034E0  3721               	rlcf	((___awdiv@quotient+1))&0ffh
  5361                           	line	27
  5362  0034E2  0102               	movlb	2	; () banked
  5363  0034E4  0102               	movlb	2	; () banked
  5364  0034E6  511C               	movf	((___awdiv@divisor))&0ffh,w
  5365  0034E8  0102               	movlb	2	; () banked
  5366  0034EA  0102               	movlb	2	; () banked
  5367  0034EC  5D1A               	subwf	((___awdiv@dividend))&0ffh,w
  5368  0034EE  0102               	movlb	2	; () banked
  5369  0034F0  0102               	movlb	2	; () banked
  5370  0034F2  511D               	movf	((___awdiv@divisor+1))&0ffh,w
  5371  0034F4  0102               	movlb	2	; () banked
  5372  0034F6  0102               	movlb	2	; () banked
  5373  0034F8  591B               	subwfb	((___awdiv@dividend+1))&0ffh,w
  5374  0034FA  A0D8               	btfss	status,0
  5375  0034FC  EF82  F01A         	goto	u3771
  5376  003500  EF84  F01A         	goto	u3770
  5377  003504                     u3771:
  5378  003504  EF93  F01A         	goto	l324
  5379  003508                     u3770:
  5380                           	line	28
  5381  003508  0102               	movlb	2	; () banked
  5382  00350A  0102               	movlb	2	; () banked
  5383  00350C  511C               	movf	((___awdiv@divisor))&0ffh,w
  5384  00350E  0102               	movlb	2	; () banked
  5385  003510  0102               	movlb	2	; () banked
  5386  003512  5F1A               	subwf	((___awdiv@dividend))&0ffh
  5387  003514  0102               	movlb	2	; () banked
  5388  003516  0102               	movlb	2	; () banked
  5389  003518  511D               	movf	((___awdiv@divisor+1))&0ffh,w
  5390  00351A  0102               	movlb	2	; () banked
  5391  00351C  0102               	movlb	2	; () banked
  5392  00351E  5B1B               	subwfb	((___awdiv@dividend+1))&0ffh
  5393                           
  5394                           	line	29
  5395  003520  0102               	movlb	2	; () banked
  5396  003522  0102               	movlb	2	; () banked
  5397  003524  8120               	bsf	(0+(0/8)+(___awdiv@quotient))&0ffh,(0)&7
  5398                           	line	30
  5399                           	
  5400  003526                     l324:		; BSR set to: ?
  5401                           
  5402                           	line	31
  5403  003526  0102               	movlb	2	; () banked
  5404  003528  90D8               	bcf	status,0
  5405  00352A  0102               	movlb	2	; () banked
  5406  00352C  331D               	rrcf	((___awdiv@divisor+1))&0ffh
  5407  00352E  0102               	movlb	2	; () banked
  5408  003530  331C               	rrcf	((___awdiv@divisor))&0ffh
  5409                           	line	32
  5410  003532  0102               	movlb	2	; () banked
  5411  003534  0102               	movlb	2	; () banked
  5412  003536  2F1E               	decfsz	((___awdiv@counter))&0ffh
  5413                           	
  5414  003538  EF6B  F01A         	goto	l323
  5415                           	
  5416  00353C                     l322:		; BSR set to: ?
  5417                           
  5418                           	line	33
  5419                           	
  5420  00353C                     l317:		; BSR set to: ?
  5421                           
  5422                           	line	34
  5423  00353C  0102               	movlb	2	; () banked
  5424  00353E  0102               	movlb	2	; () banked
  5425  003540  511F               	movf	((___awdiv@sign))&0ffh,w
  5426  003542  B4D8               	btfsc	status,2
  5427  003544  EFA6  F01A         	goto	u3781
  5428  003548  EFA8  F01A         	goto	u3780
  5429  00354C                     u3781:
  5430  00354C  EFAF  F01A         	goto	l325
  5431  003550                     u3780:
  5432                           	line	35
  5433  003550  0102               	movlb	2	; () banked
  5434  003552  0102               	movlb	2	; () banked
  5435  003554  6D20               	negf	((___awdiv@quotient))&0ffh
  5436  003556  0102               	movlb	2	; () banked
  5437  003558  1F21               	comf	((___awdiv@quotient+1))&0ffh
  5438  00355A  B0D8               	btfsc	status,0
  5439  00355C  2B21               	incf	((___awdiv@quotient+1))&0ffh
  5440                           	
  5441  00355E                     l325:		; BSR set to: ?
  5442                           
  5443                           	line	36
  5444  00355E  C220  F21A         	movff	(___awdiv@quotient),(?___awdiv)
  5445  003562  C221  F21B         	movff	(___awdiv@quotient+1),(?___awdiv+1)
  5446  003566  EFB5  F01A         	goto	l314
  5447                           	line	37
  5448  00356A                     l314:
  5449                           			; BSR set to: ?
  5450                           
  5451  00356A  0012               	return
  5452                           	opt stack 0
  5453                           GLOBAL __end_of___awdiv
  5454  00356C                     	__end_of___awdiv:
  5455                           	FNSIZE	___awdiv,5,4
  5456                           ; =============== function ___awdiv ends =======
                                 =====
  5457                           
  5458                           	signat	___awdiv,8314
  5459                           	global	___fttol
  5460                           	global	??___fttol
  5461                           	global	?___fttol
  5462                           
  5463                           ; *************** function ___fttol ************
                                 *****
  5464                           ; Defined at:
  5465                           ;		line 16 in file "C:\Program Files\HI-TECH Sof
                                 tware\PICC-18\PRO\9.65\sources\fttol.c"
  5466                           ; Parameters:
  5467                           ;		f1             size:   3offs:   0	type: float
                                  
  5468                           ; Auto variables:
  5469                           ;		sign1       	       	type: unsigned char 
  5470                           ;		exp1        	       	type: unsigned char 
  5471                           ;		lval        	       	type: unsigned long 
  5472                           ; Return value:
  5473                           ;		type: long 
  5474                           ;		size: 4
  5475                           ; Registers used:
  5476                           ;		wreg, fsr0l, fsr0h, status,2, status,0, cstac
                                 k
  5477                           ; Tracked objects:
  5478                           ;		On entry : 0/0
  5479                           ;		On exit  : 0/0
  5480                           ;		Unchanged: 0/0
  5481                           ; Data sizes:
  5482                           ;		Autos:    6
  5483                           ;		Params:   4
  5484                           ;		Temp:     0
  5485                           ;		Total:   10
  5486                           ; This function calls:
  5487                           ;		___ftunpack
  5488                           ; This function is called by:
  5489                           ;		_main
  5490                           ;		_pid
  5491                           ; This function uses a non-reentrant model
  5492                           ; 
  5493                                   psect   text20,class=CODE,space=0,reloc=
                                 2
  5494                           
  5495                           	opt lm
  5496                           	file	"C:\Program Files\HI-TECH Software\PICC-18
                                 \PRO\9.65\sources\fttol.c"
  5497                           	line	16
  5498  000000                     	__size_of___fttol	equ	__end_of___fttol-___fttol
  5499+                          	
  5500+ 002FD0                     ___fttol:		; BSR set to: ?
  5501+                          
  5502+                          	opt stack 25
  5503+                          	line	20
  5504+ 002FD0  0102               	movlb	2	; () banked
  5505+ 002FD2  0E18               	movlw	low(___fttol@exp1)
  5506+ 002FD4  0102               	movlb	2	; () banked
  5507+ 002FD6  0102               	movlb	2	; () banked
  5508+ 002FD8  6F42               	movwf	(0+(?___ftunpack+02h))&0ffh
  5509+ 002FDA  0102               	movlb	2	; () banked
  5510+ 002FDC  0E02               	movlw	high(___fttol@exp1)
  5511+ 002FDE  0102               	movlb	2	; () banked
  5512+ 002FE0  6F43               	movwf	(1+(?___ftunpack+02h))&0ffh
  5513+ 002FE2  0102               	movlb	2	; () banked
  5514+ 002FE4  0E13               	movlw	low(___fttol@f1)
  5515+ 002FE6  0102               	movlb	2	; () banked
  5516+ 002FE8  0102               	movlb	2	; () banked
  5517+ 002FEA  6F40               	movwf	((?___ftunpack))&0ffh
  5518+ 002FEC  0102               	movlb	2	; () banked
  5519+ 002FEE  0E02               	movlw	high(___fttol@f1)
  5520+ 002FF0  0102               	movlb	2	; () banked
  5521+ 002FF2  6F41               	movwf	((?___ftunpack+1))&0ffh
  5522+ 002FF4  EC6C  F01F         	call	___ftunpack	;wreg free
  5523+ 002FF8  0102               	movlb	2	; () banked
  5524+ 002FFA  0102               	movlb	2	; () banked
  5525+ 002FFC  6F17               	movwf	((___fttol@sign1))&0ffh
  5526+                          	line	21
  5527+ 002FFE  0102               	movlb	2	; () banked
  5528+ 003000  0102               	movlb	2	; () banked
  5529+ 003002  5113               	movf	((___fttol@f1))&0ffh,w
  5530+ 003004  0102               	movlb	2	; () banked
  5531+ 003006  0102               	movlb	2	; () banked
  5532+ 003008  6F19               	movwf	((___fttol@lval))&0ffh
  5533+ 00300A  0102               	movlb	2	; () banked
  5534+ 00300C  0102               	movlb	2	; () banked
  5535+ 00300E  5114               	movf	((___fttol@f1+1))&0ffh,w
  5536+ 003010  0102               	movlb	2	; () banked
  5537+ 003012  6F1A               	movwf	1+((___fttol@lval))&0ffh
  5538+                          	
  5539+ 003014  0102               	movlb	2	; () banked
  5540+ 003016  5115               	movf	((___fttol@f1+2))&0ffh,w
  5541+ 003018  0102               	movlb	2	; () banked
  5542+ 00301A  6F1B               	movwf	2+((___fttol@lval))&0ffh
  5543+                          	
  5544+ 00301C  0102               	movlb	2	; () banked
  5545+ 00301E  6B1C               	clrf	3+((___fttol@lval))&0ffh
  5546+                          	line	22
  5547+ 003020  0E8E               	movlw	(08Eh)&0ffh
  5548+ 003022  0102               	movlb	2	; () banked
  5549+ 003024  0102               	movlb	2	; () banked
  5550+ 003026  5F18               	subwf	((___fttol@exp1))&0ffh
  5551+                          	line	23
  5552+ 003028  0102               	movlb	2	; () banked
  5553+ 00302A  0102               	movlb	2	; () banked
  5554+ 00302C  AF18               	btfss	((___fttol@exp1))&0ffh,7
  5555+ 00302E  EF1B  F018         	goto	u3791
  5556+ 003032  EF1D  F018         	goto	u3790
  5557+ 003036                     u3791:
  5558+ 003036  EF49  F018         	goto	l501
  5559+ 00303A                     u3790:
  5560+                          	line	24
  5561+ 00303A  0102               	movlb	2	; () banked
  5562+ 00303C  0102               	movlb	2	; () banked
  5563+ 00303E  5118               	movf	((___fttol@exp1))&0ffh,w
  5564+ 003040  0A80               	xorlw	80h
  5565+ 003042  0F8F               	addlw	-((-15)^80h)
  5566+ 003044  B0D8               	btfsc	status,0
  5567+ 003046  EF27  F018         	goto	u3801
  5568+ 00304A  EF29  F018         	goto	u3800
  5569+ 00304E                     u3801:
  5570+ 00304E  EF38  F018         	goto	l505
  5571+ 003052                     u3800:
  5572+                          	line	25
  5573+ 003052  0E00               	movlw	low(0)
  5574+ 003054  0102               	movlb	2	; () banked
  5575+ 003056  0102               	movlb	2	; () banked
  5576+ 003058  6F13               	movwf	((?___fttol))&0ffh
  5577+ 00305A  0E00               	movlw	high(0)
  5578+ 00305C  0102               	movlb	2	; () banked
  5579+ 00305E  6F14               	movwf	((?___fttol+1))&0ffh
  5580+ 003060  0E00               	movlw	low highword(0)
  5581+ 003062  0102               	movlb	2	; () banked
  5582+ 003064  6F15               	movwf	((?___fttol+2))&0ffh
  5583+ 003066  0E00               	movlw	high highword(0)
  5584+ 003068  0102               	movlb	2	; () banked
  5585+ 00306A  6F16               	movwf	((?___fttol+3))&0ffh
  5586+ 00306C  EF9E  F018         	goto	l500
  5587+                          	line	26
  5588+                          	
  5589+ 003070                     l505:		; BSR set to: ?
  5590+                          
  5591+                          	line	27
  5592+ 003070  0102               	movlb	2	; () banked
  5593+ 003072  90D8               	bcf	status,0
  5594+ 003074  0102               	movlb	2	; () banked
  5595+ 003076  331C               	rrcf	((___fttol@lval+3))&0ffh
  5596+ 003078  0102               	movlb	2	; () banked
  5597+ 00307A  331B               	rrcf	((___fttol@lval+2))&0ffh
  5598+ 00307C  0102               	movlb	2	; () banked
  5599+ 00307E  331A               	rrcf	((___fttol@lval+1))&0ffh
  5600+ 003080  0102               	movlb	2	; () banked
  5601+ 003082  3319               	rrcf	((___fttol@lval))&0ffh
  5602+                          	line	28
  5603+ 003084  0102               	movlb	2	; () banked
  5604+ 003086  0102               	movlb	2	; () banked
  5605+ 003088  3F18               	incfsz	((___fttol@exp1))&0ffh
  5606+                          	
  5607+ 00308A  EF38  F018         	goto	l505
  5608+                          	
  5609+ 00308E                     l504:		; BSR set to: ?
  5610+                          
  5611+                          	line	29
  5612+ 00308E  EF7A  F018         	goto	l506
  5613+                          	
  5614+ 003092                     l501:		; BSR set to: ?
  5615+                          
  5616+                          	line	30
  5617+ 003092  0E1F               	movlw	(020h-1)
  5618+ 003094  0102               	movlb	2	; () banked
  5619+ 003096  0102               	movlb	2	; () banked
  5620+ 003098  6518               	cpfsgt	((___fttol@exp1))&0ffh
  5621+ 00309A  EF51  F018         	goto	u3811
  5622  00309E  EF53  F018         	goto	u3810
  5623  0030A2                     u3811:
  5624  0030A2  EF62  F018         	goto	l507
  5625  0030A6                     u3810:
  5626                           	line	31
  5627  0030A6  0E00               	movlw	low(0)
  5628  0030A8  0102               	movlb	2	; () banked
  5629  0030AA  0102               	movlb	2	; () banked
  5630  0030AC  6F13               	movwf	((?___fttol))&0ffh
  5631  0030AE  0E00               	movlw	high(0)
  5632  0030B0  0102               	movlb	2	; () banked
  5633  0030B2  6F14               	movwf	((?___fttol+1))&0ffh
  5634  0030B4  0E00               	movlw	low highword(0)
  5635  0030B6  0102               	movlb	2	; () banked
  5636  0030B8  6F15               	movwf	((?___fttol+2))&0ffh
  5637  0030BA  0E00               	movlw	high highword(0)
  5638  0030BC  0102               	movlb	2	; () banked
  5639  0030BE  6F16               	movwf	((?___fttol+3))&0ffh
  5640  0030C0  EF9E  F018         	goto	l500
  5641                           	
  5642  0030C4                     l507:		; BSR set to: ?
  5643                           
  5644                           	line	32
  5645  0030C4  EF71  F018         	goto	l508
  5646                           	
  5647  0030C8                     l509:		; BSR set to: ?
  5648                           
  5649                           	line	33
  5650  0030C8  0102               	movlb	2	; () banked
  5651  0030CA  90D8               	bcf	status,0
  5652  0030CC  0102               	movlb	2	; () banked
  5653  0030CE  3719               	rlcf	((___fttol@lval))&0ffh
  5654  0030D0  0102               	movlb	2	; () banked
  5655  0030D2  371A               	rlcf	((___fttol@lval+1))&0ffh
  5656  0030D4  0102               	movlb	2	; () banked
  5657  0030D6  371B               	rlcf	((___fttol@lval+2))&0ffh
  5658  0030D8  0102               	movlb	2	; () banked
  5659  0030DA  371C               	rlcf	((___fttol@lval+3))&0ffh
  5660                           	line	34
  5661  0030DC  0102               	movlb	2	; () banked
  5662  0030DE  0102               	movlb	2	; () banked
  5663  0030E0  0718               	decf	((___fttol@exp1))&0ffh
  5664                           	line	35
  5665                           	
  5666  0030E2                     l508:		; BSR set to: ?
  5667                           
  5668                           	line	32
  5669  0030E2  0102               	movlb	2	; () banked
  5670  0030E4  0102               	movlb	2	; () banked
  5671  0030E6  6718               	tstfsz	((___fttol@exp1))&0ffh
  5672  0030E8  EF78  F018         	goto	u3821
  5673  0030EC  EF7A  F018         	goto	u3820
  5674  0030F0                     u3821:
  5675  0030F0  EF64  F018         	goto	l509
  5676  0030F4                     u3820:
  5677                           	
  5678  0030F4                     l510:		; BSR set to: ?
  5679                           
  5680                           	line	36
  5681                           	
  5682  0030F4                     l506:		; BSR set to: ?
  5683                           
  5684                           	line	37
  5685  0030F4  0102               	movlb	2	; () banked
  5686  0030F6  0102               	movlb	2	; () banked
  5687  0030F8  5117               	movf	((___fttol@sign1))&0ffh,w
  5688  0030FA  B4D8               	btfsc	status,2
  5689  0030FC  EF82  F018         	goto	u3831
  5690  003100  EF84  F018         	goto	u3830
  5691  003104                     u3831:
  5692  003104  EF94  F018         	goto	l511
  5693  003108                     u3830:
  5694                           	line	38
  5695  003108  0102               	movlb	2	; () banked
  5696  00310A  0102               	movlb	2	; () banked
  5697  00310C  1F1C               	comf	((___fttol@lval+3))&0ffh
  5698  00310E  0102               	movlb	2	; () banked
  5699  003110  1F1B               	comf	((___fttol@lval+2))&0ffh
  5700  003112  0102               	movlb	2	; () banked
  5701  003114  1F1A               	comf	((___fttol@lval+1))&0ffh
  5702  003116  0102               	movlb	2	; () banked
  5703  003118  6D19               	negf	((___fttol@lval))&0ffh
  5704  00311A  0E00               	movlw	0
  5705  00311C  0102               	movlb	2	; () banked
  5706  00311E  231A               	addwfc	((___fttol@lval+1))&0ffh
  5707  003120  0102               	movlb	2	; () banked
  5708  003122  231B               	addwfc	((___fttol@lval+2))&0ffh
  5709  003124  0102               	movlb	2	; () banked
  5710  003126  231C               	addwfc	((___fttol@lval+3))&0ffh
  5711                           	
  5712  003128                     l511:		; BSR set to: ?
  5713                           
  5714                           	line	39
  5715  003128  C219  F213         	movff	(___fttol@lval),(?___fttol)
  5716  00312C  C21A  F214         	movff	(___fttol@lval+1),(?___fttol+1)
  5717  003130  C21B  F215         	movff	(___fttol@lval+2),(?___fttol+2)
  5718  003134  C21C  F216         	movff	(___fttol@lval+3),(?___fttol+3)
  5719  003138  EF9E  F018         	goto	l500
  5720                           	line	40
  5721  00313C                     l500:
  5722                           			; BSR set to: ?
  5723                           
  5724  00313C  0012               	return
  5725                           	opt stack 0
  5726                           GLOBAL __end_of___fttol
  5727  00313E                     	__end_of___fttol:
  5728                           	FNSIZE	___fttol,6,4
  5729                           ; =============== function ___fttol ends =======
                                 =====
  5730                           
  5731                           	signat	___fttol,4220
  5732                           	global	___ftdiv
  5733                           	global	??___ftdiv
  5734                           	global	?___ftdiv
  5735                           
  5736                           ; *************** function ___ftdiv ************
                                 *****
  5737                           ; Defined at:
  5738                           ;		line 19 in file "C:\Program Files\HI-TECH Sof
                                 tware\PICC-18\PRO\9.65\sources\ftdiv.c"
  5739                           ; Parameters:
  5740                           ;		f1             size:   3offs:   0	type: float
                                  
  5741                           ;		f2             size:   3offs:   3	type: float
                                  
  5742                           ; Auto variables:
  5743                           ;		exp2        	       	type: unsigned char 
  5744                           ;		sign1       	       	type: unsigned char 
  5745                           ;		exp1        	       	type: unsigned char 
  5746                           ;		sign2       	       	type: unsigned char 
  5747                           ;		f3          	       	type: float 
  5748                           ; Return value:
  5749                           ;		type: float 
  5750                           ;		size: 3
  5751                           ; Registers used:
  5752                           ;		wreg, fsr0l, fsr0h, status,2, status,0, cstac
                                 k
  5753                           ; Tracked objects:
  5754                           ;		On entry : 0/0
  5755                           ;		On exit  : 0/0
  5756                           ;		Unchanged: 0/0
  5757                           ; Data sizes:
  5758                           ;		Autos:    7
  5759                           ;		Params:   6
  5760                           ;		Temp:     1
  5761                           ;		Total:   14
  5762                           ; This function calls:
  5763                           ;		___ftunpack
  5764                           ;		___ftpack
  5765                           ; This function is called by:
  5766                           ;		_actual
  5767                           ;		_currenttemp
  5768                           ; This function uses a non-reentrant model
  5769                           ; 
  5770                                   psect   text21,class=CODE,space=0,reloc=
                                 2
  5771                           
  5772                           	opt lm
  5773                           	file	"C:\Program Files\HI-TECH Software\PICC-18
                                 \PRO\9.65\sources\ftdiv.c"
  5774                           	line	19
  5775  000000                     	__size_of___ftdiv	equ	__end_of___ftdiv-___ftdiv
  5776                           	
  5777  00297A                     ___ftdiv:		; BSR set to: ?
  5778                           
  5779                           	opt stack 24
  5780                           	line	23
  5781  00297A  0E00               	movlw	low(0)
  5782  00297C  0102               	movlb	2	; () banked
  5783  00297E  0102               	movlb	2	; () banked
  5784  002980  6F38               	movwf	((___ftdiv@f3))&0ffh
  5785  002982  0E00               	movlw	high(0)
  5786  002984  0102               	movlb	2	; () banked
  5787  002986  0102               	movlb	2	; () banked
  5788  002988  6F39               	movwf	((___ftdiv@f3+1))&0ffh
  5789  00298A  0E00               	movlw	low highword(0)
  5790  00298C  0102               	movlb	2	; () banked
  5791  00298E  0102               	movlb	2	; () banked
  5792  002990  6F3A               	movwf	((___ftdiv@f3+2))&0ffh
  5793                           
  5794                           	line	24
  5795  002992  0102               	movlb	2	; () banked
  5796  002994  0E36               	movlw	low(___ftdiv@exp1)
  5797  002996  0102               	movlb	2	; () banked
  5798  002998  0102               	movlb	2	; () banked
  5799  00299A  6F42               	movwf	(0+(?___ftunpack+02h))&0ffh
  5800  00299C  0102               	movlb	2	; () banked
  5801  00299E  0E02               	movlw	high(___ftdiv@exp1)
  5802  0029A0  0102               	movlb	2	; () banked
  5803  0029A2  6F43               	movwf	(1+(?___ftunpack+02h))&0ffh
  5804  0029A4  0102               	movlb	2	; () banked
  5805  0029A6  0E2E               	movlw	low(___ftdiv@f1)
  5806  0029A8  0102               	movlb	2	; () banked
  5807  0029AA  0102               	movlb	2	; () banked
  5808  0029AC  6F40               	movwf	((?___ftunpack))&0ffh
  5809  0029AE  0102               	movlb	2	; () banked
  5810  0029B0  0E02               	movlw	high(___ftdiv@f1)
  5811  0029B2  0102               	movlb	2	; () banked
  5812  0029B4  6F41               	movwf	((?___ftunpack+1))&0ffh
  5813  0029B6  EC6C  F01F         	call	___ftunpack	;wreg free
  5814  0029BA  0102               	movlb	2	; () banked
  5815  0029BC  0102               	movlb	2	; () banked
  5816  0029BE  6F35               	movwf	((___ftdiv@sign1))&0ffh
  5817                           	line	25
  5818  0029C0  0102               	movlb	2	; () banked
  5819  0029C2  0102               	movlb	2	; () banked
  5820  0029C4  6736               	tstfsz	((___ftdiv@exp1))&0ffh
  5821  0029C6  EFE7  F014         	goto	u3841
  5822  0029CA  EFE9  F014         	goto	u3840
  5823  0029CE                     u3841:
  5824  0029CE  EFF1  F014         	goto	l478
  5825  0029D2                     u3840:
  5826                           	line	26
  5827  0029D2  C238  F22E         	movff	(___ftdiv@f3),(?___ftdiv)
  5828  0029D6  C239  F22F         	movff	(___ftdiv@f3+1),(?___ftdiv+1)
  5829  0029DA  C23A  F230         	movff	(___ftdiv@f3+2),(?___ftdiv+2)
  5830  0029DE  EF93  F015         	goto	l477
  5831                           	
  5832  0029E2                     l478:		; BSR set to: ?
  5833                           
  5834                           	line	27
  5835  0029E2  0102               	movlb	2	; () banked
  5836  0029E4  0E34               	movlw	low(___ftdiv@exp2)
  5837  0029E6  0102               	movlb	2	; () banked
  5838  0029E8  0102               	movlb	2	; () banked
  5839  0029EA  6F42               	movwf	(0+(?___ftunpack+02h))&0ffh
  5840  0029EC  0102               	movlb	2	; () banked
  5841  0029EE  0E02               	movlw	high(___ftdiv@exp2)
  5842  0029F0  0102               	movlb	2	; () banked
  5843  0029F2  6F43               	movwf	(1+(?___ftunpack+02h))&0ffh
  5844  0029F4  0102               	movlb	2	; () banked
  5845  0029F6  0E31               	movlw	low(___ftdiv@f2)
  5846  0029F8  0102               	movlb	2	; () banked
  5847  0029FA  0102               	movlb	2	; () banked
  5848  0029FC  6F40               	movwf	((?___ftunpack))&0ffh
  5849  0029FE  0102               	movlb	2	; () banked
  5850  002A00  0E02               	movlw	high(___ftdiv@f2)
  5851  002A02  0102               	movlb	2	; () banked
  5852  002A04  6F41               	movwf	((?___ftunpack+1))&0ffh
  5853  002A06  EC6C  F01F         	call	___ftunpack	;wreg free
  5854  002A0A  0102               	movlb	2	; () banked
  5855  002A0C  0102               	movlb	2	; () banked
  5856  002A0E  6F37               	movwf	((___ftdiv@sign2))&0ffh
  5857                           	line	28
  5858  002A10  0102               	movlb	2	; () banked
  5859  002A12  0102               	movlb	2	; () banked
  5860  002A14  6734               	tstfsz	((___ftdiv@exp2))&0ffh
  5861  002A16  EF0F  F015         	goto	u3851
  5862  002A1A  EF11  F015         	goto	u3850
  5863  002A1E                     u3851:
  5864  002A1E  EF19  F015         	goto	l479
  5865  002A22                     u3850:
  5866                           	line	29
  5867  002A22  C238  F22E         	movff	(___ftdiv@f3),(?___ftdiv)
  5868  002A26  C239  F22F         	movff	(___ftdiv@f3+1),(?___ftdiv+1)
  5869  002A2A  C23A  F230         	movff	(___ftdiv@f3+2),(?___ftdiv+2)
  5870  002A2E  EF93  F015         	goto	l477
  5871                           	
  5872  002A32                     l479:		; BSR set to: ?
  5873                           
  5874                           	line	30
  5875  002A32  0102               	movlb	2	; () banked
  5876  002A34  0102               	movlb	2	; () banked
  5877  002A36  5134               	movf	((___ftdiv@exp2))&0ffh,w
  5878  002A38  0F89               	addlw	low(089h)
  5879  002A3A  0102               	movlb	2	; () banked
  5880  002A3C  0102               	movlb	2	; () banked
  5881  002A3E  5F36               	subwf	((___ftdiv@exp1))&0ffh
  5882                           	line	31
  5883  002A40  0102               	movlb	2	; () banked
  5884  002A42  0102               	movlb	2	; () banked
  5885  002A44  5137               	movf	((___ftdiv@sign2))&0ffh,w
  5886  002A46  0102               	movlb	2	; () banked
  5887  002A48  0102               	movlb	2	; () banked
  5888  002A4A  1B35               	xorwf	((___ftdiv@sign1))&0ffh
  5889                           	line	32
  5890  002A4C  0102               	movlb	2	; () banked
  5891  002A4E  6F3B               	movwf	(??___ftdiv+7+0)&0ffh
  5892  002A50  0E18               	movlw	low(018h)
  5893  002A52  0102               	movlb	2	; () banked
  5894  002A54  0102               	movlb	2	; () banked
  5895  002A56  6F37               	movwf	((___ftdiv@sign2))&0ffh
  5896  002A58  0102               	movlb	2	; () banked
  5897  002A5A  513B               	movf	(??___ftdiv+7+0)&0ffh,w
  5898                           	line	33
  5899                           	
  5900  002A5C                     l482:		; BSR set to: ?
  5901                           
  5902                           	line	34
  5903  002A5C  0102               	movlb	2	; () banked
  5904  002A5E  90D8               	bcf	status,0
  5905  002A60  0102               	movlb	2	; () banked
  5906  002A62  3738               	rlcf	((___ftdiv@f3))&0ffh
  5907  002A64  0102               	movlb	2	; () banked
  5908  002A66  3739               	rlcf	((___ftdiv@f3+1))&0ffh
  5909  002A68  0102               	movlb	2	; () banked
  5910  002A6A  373A               	rlcf	((___ftdiv@f3+2))&0ffh
  5911                           	line	35
  5912  002A6C  0102               	movlb	2	; () banked
  5913  002A6E  0102               	movlb	2	; () banked
  5914  002A70  5131               	movf	((___ftdiv@f2))&0ffh,w
  5915  002A72  0102               	movlb	2	; () banked
  5916  002A74  0102               	movlb	2	; () banked
  5917  002A76  5D2E               	subwf	((___ftdiv@f1))&0ffh,w
  5918  002A78  0102               	movlb	2	; () banked
  5919  002A7A  0102               	movlb	2	; () banked
  5920  002A7C  5132               	movf	((___ftdiv@f2+1))&0ffh,w
  5921  002A7E  0102               	movlb	2	; () banked
  5922  002A80  0102               	movlb	2	; () banked
  5923  002A82  592F               	subwfb	((___ftdiv@f1+1))&0ffh,w
  5924  002A84  0102               	movlb	2	; () banked
  5925  002A86  0102               	movlb	2	; () banked
  5926  002A88  5133               	movf	((___ftdiv@f2+2))&0ffh,w
  5927  002A8A  0102               	movlb	2	; () banked
  5928  002A8C  0102               	movlb	2	; () banked
  5929  002A8E  5930               	subwfb	((___ftdiv@f1+2))&0ffh,w
  5930  002A90  A0D8               	btfss	status,0
  5931  002A92  EF4D  F015         	goto	u3861
  5932  002A96  EF4F  F015         	goto	u3860
  5933  002A9A                     u3861:
  5934  002A9A  EF64  F015         	goto	l483
  5935  002A9E                     u3860:
  5936                           	line	36
  5937  002A9E  0102               	movlb	2	; () banked
  5938  002AA0  0102               	movlb	2	; () banked
  5939  002AA2  5131               	movf	((___ftdiv@f2))&0ffh,w
  5940  002AA4  0102               	movlb	2	; () banked
  5941  002AA6  0102               	movlb	2	; () banked
  5942  002AA8  5F2E               	subwf	((___ftdiv@f1))&0ffh
  5943  002AAA  0102               	movlb	2	; () banked
  5944  002AAC  0102               	movlb	2	; () banked
  5945  002AAE  5132               	movf	((___ftdiv@f2+1))&0ffh,w
  5946  002AB0  0102               	movlb	2	; () banked
  5947  002AB2  0102               	movlb	2	; () banked
  5948  002AB4  5B2F               	subwfb	((___ftdiv@f1+1))&0ffh
  5949  002AB6  0102               	movlb	2	; () banked
  5950  002AB8  0102               	movlb	2	; () banked
  5951  002ABA  5133               	movf	((___ftdiv@f2+2))&0ffh,w
  5952  002ABC  0102               	movlb	2	; () banked
  5953  002ABE  0102               	movlb	2	; () banked
  5954  002AC0  5B30               	subwfb	((___ftdiv@f1+2))&0ffh
  5955                           
  5956                           	line	37
  5957  002AC2  0102               	movlb	2	; () banked
  5958  002AC4  0102               	movlb	2	; () banked
  5959  002AC6  8138               	bsf	(0+(0/8)+(___ftdiv@f3))&0ffh,(0)&7
  5960                           	line	38
  5961                           	
  5962  002AC8                     l483:		; BSR set to: ?
  5963                           
  5964                           	line	39
  5965  002AC8  0102               	movlb	2	; () banked
  5966  002ACA  90D8               	bcf	status,0
  5967  002ACC  0102               	movlb	2	; () banked
  5968  002ACE  372E               	rlcf	((___ftdiv@f1))&0ffh
  5969  002AD0  0102               	movlb	2	; () banked
  5970  002AD2  372F               	rlcf	((___ftdiv@f1+1))&0ffh
  5971  002AD4  0102               	movlb	2	; () banked
  5972  002AD6  3730               	rlcf	((___ftdiv@f1+2))&0ffh
  5973                           	line	40
  5974  002AD8  0102               	movlb	2	; () banked
  5975  002ADA  0102               	movlb	2	; () banked
  5976  002ADC  2F37               	decfsz	((___ftdiv@sign2))&0ffh
  5977                           	
  5978  002ADE  EF2E  F015         	goto	l482
  5979                           	
  5980  002AE2                     l481:		; BSR set to: ?
  5981                           
  5982                           	line	41
  5983  002AE2  C236  F242         	movff	(___ftdiv@exp1),0+(?___ftpack+02h)
  5984  002AE6  0102               	movlb	2	; () banked
  5985  002AE8  0E38               	movlw	low(___ftdiv@f3)
  5986  002AEA  0102               	movlb	2	; () banked
  5987  002AEC  0102               	movlb	2	; () banked
  5988  002AEE  6F40               	movwf	((?___ftpack))&0ffh
  5989  002AF0  0102               	movlb	2	; () banked
  5990  002AF2  0E02               	movlw	high(___ftdiv@f3)
  5991  002AF4  0102               	movlb	2	; () banked
  5992  002AF6  6F41               	movwf	((?___ftpack+1))&0ffh
  5993  002AF8  EC9F  F018         	call	___ftpack	;wreg free
  5994                           	line	42
  5995  002AFC  0102               	movlb	2	; () banked
  5996  002AFE  0102               	movlb	2	; () banked
  5997  002B00  5135               	movf	((___ftdiv@sign1))&0ffh,w
  5998  002B02  B4D8               	btfsc	status,2
  5999  002B04  EF86  F015         	goto	u3871
  6000  002B08  EF88  F015         	goto	u3870
  6001  002B0C                     u3871:
  6002  002B0C  EF8B  F015         	goto	l484
  6003  002B10                     u3870:
  6004                           	line	43
  6005  002B10  0102               	movlb	2	; () banked
  6006  002B12  0102               	movlb	2	; () banked
  6007  002B14  8F3A               	bsf	(0+(23/8)+(___ftdiv@f3))&0ffh,(23)&7
  6008                           	
  6009  002B16                     l484:		; BSR set to: ?
  6010                           
  6011                           	line	44
  6012  002B16  C238  F22E         	movff	(___ftdiv@f3),(?___ftdiv)
  6013  002B1A  C239  F22F         	movff	(___ftdiv@f3+1),(?___ftdiv+1)
  6014  002B1E  C23A  F230         	movff	(___ftdiv@f3+2),(?___ftdiv+2)
  6015  002B22  EF93  F015         	goto	l477
  6016                           	line	45
  6017  002B26                     l477:
  6018                           			; BSR set to: ?
  6019                           
  6020  002B26  0012               	return
  6021                           	opt stack 0
  6022                           GLOBAL __end_of___ftdiv
  6023  002B28                     	__end_of___ftdiv:
  6024                           	FNSIZE	___ftdiv,8,6
  6025                           ; =============== function ___ftdiv ends =======
                                 =====
  6026                           
  6027                           	signat	___ftdiv,8315
  6028                           	global	_lcd_command
  6029                           	global	??_lcd_command
  6030                           	global	?_lcd_command
  6031                           
  6032                           ; *************** function _lcd_command ********
                                 *********
  6033                           ; Defined at:
  6034                           ;		line 517 in file "main.c"
  6035                           ; Parameters:
  6036                           ;		cmd            size:   1offs:   0	type: unsig
                                 ned char 
  6037                           ; Auto variables:
  6038                           ;		None
  6039                           ; Return value:
  6040                           ;		type: void 
  6041                           ;		size: 0
  6042                           ; Registers used:
  6043                           ;		wreg, status,2, status,0, cstack
  6044                           ; Tracked objects:
  6045                           ;		On entry : 0/0
  6046                           ;		On exit  : 0/0
  6047                           ;		Unchanged: 0/0
  6048                           ; Data sizes:
  6049                           ;		Autos:    0
  6050                           ;		Params:   1
  6051                           ;		Temp:     1
  6052                           ;		Total:    2
  6053                           ; This function calls:
  6054                           ;		_DelayMs
  6055                           ; This function is called by:
  6056                           ;		_Display
  6057                           ;		_lcd_init
  6058                           ; This function uses a non-reentrant model
  6059                           ; 
  6060                                   psect   text22,class=CODE,space=0,reloc=
                                 2
  6061                           
  6062                           	opt lm
  6063                           	file	"main.c"
  6064                           	line	517
  6065  000000                     	__size_of_lcd_command	equ	__end_of_lcd_command-
                                 _lcd_command
  6066                           ;main.c: 516: void lcd_command(unsigned char cmd
                                 )
  6067                           ;main.c: 517: {
  6068                           	
  6069  0036C0                     _lcd_command:		; BSR set to: ?
  6070                           
  6071                           	opt stack 24
  6072                           	line	518
  6073  0036C0  928C               	bcf	c:(31841/8),(31841)&7	;volatile
  6074                           	line	519
  6075                           ;main.c: 519: DATA=((cmd>>4) & 0x0f);
  6076  0036C2  0102               	movlb	2	; () banked
  6077  0036C4  0102               	movlb	2	; () banked
  6078  0036C6  3919               	swapf	((lcd_command@cmd))&0ffh,w
  6079  0036C8  0B0F               	andlw	(0ffh shr 4) & 0ffh
  6080  0036CA  0B0F               	andlw	low(0Fh)
  6081  0036CC  6E1B               	movwf	((c:27)),c
  6082                           	line	520
  6083                           ;main.c: 520: LATA1 = DATA & 0x01;
  6084  0036CE  A01B               	btfss	((c:27)),c,0
  6085  0036D0  D001               	bra	u3885
  6086  0036D2  8289               	bsf	c:(31817/8),(31817)&7	;volatile
  6087  0036D4                     	u3885:
  6088  0036D4  B01B               	btfsc	((c:27)),c,0
  6089  0036D6  D001               	bra	u3886
  6090  0036D8  9289               	bcf	c:(31817/8),(31817)&7	;volatile
  6091  0036DA                     	u3886:
  6092                           	line	521
  6093                           ;main.c: 521: LATA2 = (DATA & 0x02) >> 1;
  6094  0036DA  C01B F21A          	movff	(c:27),??_lcd_command+0+0
  6095  0036DE  0E02               	movlw	02h
  6096  0036E0  0102               	movlb	2	; () banked
  6097  0036E2  171A               	andwf	(??_lcd_command+0+0)&0ffh
  6098  0036E4  90D8               	bcf	status,0
  6099  0036E6  0102               	movlb	2	; () banked
  6100  0036E8  331A               	rrcf	(??_lcd_command+0+0)&0ffh
  6101                           
  6102  0036EA  0102               	movlb	2	; () banked
  6103  0036EC  311A               	rrcf	(??_lcd_command+0+0)&0ffh,w
  6104  0036EE  A0D8               	btfss	status,0
  6105  0036F0  D001               	bra	u3895
  6106  0036F2  8489               	bsf	c:(31818/8),(31818)&7	;volatile
  6107  0036F4                     	u3895:
  6108  0036F4  B0D8               	btfsc	status,0
  6109  0036F6  D001               	bra	u3896
  6110  0036F8  9489               	bcf	c:(31818/8),(31818)&7	;volatile
  6111  0036FA                     	u3896:
  6112                           	line	522
  6113                           ;main.c: 522: LATA3 = (DATA & 0x04) >> 2;
  6114  0036FA  C01B F21A          	movff	(c:27),??_lcd_command+0+0
  6115  0036FE  0E04               	movlw	04h
  6116  003700  0102               	movlb	2	; () banked
  6117  003702  171A               	andwf	(??_lcd_command+0+0)&0ffh
  6118  003704  90D8               	bcf	status,0
  6119  003706  0102               	movlb	2	; () banked
  6120  003708  331A               	rrcf	(??_lcd_command+0+0)&0ffh
  6121  00370A  90D8               	bcf	status,0
  6122  00370C  0102               	movlb	2	; () banked
  6123  00370E  331A               	rrcf	(??_lcd_command+0+0)&0ffh
  6124                           
  6125  003710  0102               	movlb	2	; () banked
  6126  003712  311A               	rrcf	(??_lcd_command+0+0)&0ffh,w
  6127  003714  A0D8               	btfss	status,0
  6128  003716  D001               	bra	u3905
  6129  003718  8689               	bsf	c:(31819/8),(31819)&7	;volatile
  6130  00371A                     	u3905:
  6131  00371A  B0D8               	btfsc	status,0
  6132  00371C  D001               	bra	u3906
  6133  00371E  9689               	bcf	c:(31819/8),(31819)&7	;volatile
  6134  003720                     	u3906:
  6135                           	line	523
  6136                           ;main.c: 523: LATA4 = (DATA & 0x08) >> 3;
  6137  003720  C01B F21A          	movff	(c:27),??_lcd_command+0+0
  6138  003724  0E08               	movlw	08h
  6139  003726  0102               	movlb	2	; () banked
  6140  003728  171A               	andwf	(??_lcd_command+0+0)&0ffh
  6141  00372A  90D8               	bcf	status,0
  6142  00372C  0102               	movlb	2	; () banked
  6143  00372E  331A               	rrcf	(??_lcd_command+0+0)&0ffh
  6144  003730  90D8               	bcf	status,0
  6145  003732  0102               	movlb	2	; () banked
  6146  003734  331A               	rrcf	(??_lcd_command+0+0)&0ffh
  6147  003736  90D8               	bcf	status,0
  6148  003738  0102               	movlb	2	; () banked
  6149  00373A  331A               	rrcf	(??_lcd_command+0+0)&0ffh
  6150                           
  6151  00373C  0102               	movlb	2	; () banked
  6152  00373E  311A               	rrcf	(??_lcd_command+0+0)&0ffh,w
  6153  003740  A0D8               	btfss	status,0
  6154  003742  D001               	bra	u3915
  6155  003744  8889               	bsf	c:(31820/8),(31820)&7	;volatile
  6156  003746                     	u3915:
  6157  003746  B0D8               	btfsc	status,0
  6158  003748  D001               	bra	u3916
  6159  00374A  9889               	bcf	c:(31820/8),(31820)&7	;volatile
  6160  00374C                     	u3916:
  6161                           	line	524
  6162                           ;main.c: 524: LATA5=1;
  6163  00374C  8A89               	bsf	c:(31821/8),(31821)&7	;volatile
  6164                           	line	525
  6165                           ;main.c: 525: DelayMs(10);
  6166  00374E  0E0A               	movlw	low(0Ah)
  6167  003750  0102               	movlb	2	; () banked
  6168  003752  0102               	movlb	2	; () banked
  6169  003754  6F1B               	movwf	((?_DelayMs))&0ffh
  6170  003756  0E00               	movlw	high(0Ah)
  6171  003758  0102               	movlb	2	; () banked
  6172  00375A  6F1C               	movwf	((?_DelayMs+1))&0ffh
  6173  00375C  EC26  F020         	call	_DelayMs	;wreg free
  6174                           	line	526
  6175                           ;main.c: 526: LATA5=0;
  6176  003760  9A89               	bcf	c:(31821/8),(31821)&7	;volatile
  6177                           	line	527
  6178                           ;main.c: 527: DATA=(cmd & 0x0f);
  6179  003762  0102               	movlb	2	; () banked
  6180  003764  0102               	movlb	2	; () banked
  6181  003766  5119               	movf	((lcd_command@cmd))&0ffh,w
  6182  003768  0B0F               	andlw	low(0Fh)
  6183  00376A  6E1B               	movwf	((c:27)),c
  6184                           	line	528
  6185                           ;main.c: 528: LATA1 = DATA & 0x01;
  6186  00376C  A01B               	btfss	((c:27)),c,0
  6187  00376E  D001               	bra	u3925
  6188  003770  8289               	bsf	c:(31817/8),(31817)&7	;volatile
  6189  003772                     	u3925:
  6190  003772  B01B               	btfsc	((c:27)),c,0
  6191  003774  D001               	bra	u3926
  6192  003776  9289               	bcf	c:(31817/8),(31817)&7	;volatile
  6193  003778                     	u3926:
  6194                           	line	529
  6195                           ;main.c: 529: LATA2 = (DATA & 0x02) >> 1;
  6196  003778  C01B F21A          	movff	(c:27),??_lcd_command+0+0
  6197  00377C  0E02               	movlw	02h
  6198  00377E  0102               	movlb	2	; () banked
  6199  003780  171A               	andwf	(??_lcd_command+0+0)&0ffh
  6200  003782  90D8               	bcf	status,0
  6201  003784  0102               	movlb	2	; () banked
  6202  003786  331A               	rrcf	(??_lcd_command+0+0)&0ffh
  6203                           
  6204  003788  0102               	movlb	2	; () banked
  6205  00378A  311A               	rrcf	(??_lcd_command+0+0)&0ffh,w
  6206  00378C  A0D8               	btfss	status,0
  6207  00378E  D001               	bra	u3935
  6208  003790  8489               	bsf	c:(31818/8),(31818)&7	;volatile
  6209  003792                     	u3935:
  6210  003792  B0D8               	btfsc	status,0
  6211  003794  D001               	bra	u3936
  6212  003796  9489               	bcf	c:(31818/8),(31818)&7	;volatile
  6213  003798                     	u3936:
  6214                           	line	530
  6215                           ;main.c: 530: LATA3 = (DATA & 0x04) >> 2;
  6216  003798  C01B F21A          	movff	(c:27),??_lcd_command+0+0
  6217  00379C  0E04               	movlw	04h
  6218  00379E  0102               	movlb	2	; () banked
  6219  0037A0  171A               	andwf	(??_lcd_command+0+0)&0ffh
  6220  0037A2  90D8               	bcf	status,0
  6221  0037A4  0102               	movlb	2	; () banked
  6222  0037A6  331A               	rrcf	(??_lcd_command+0+0)&0ffh
  6223  0037A8  90D8               	bcf	status,0
  6224  0037AA  0102               	movlb	2	; () banked
  6225  0037AC  331A               	rrcf	(??_lcd_command+0+0)&0ffh
  6226                           
  6227  0037AE  0102               	movlb	2	; () banked
  6228  0037B0  311A               	rrcf	(??_lcd_command+0+0)&0ffh,w
  6229  0037B2  A0D8               	btfss	status,0
  6230  0037B4  D001               	bra	u3945
  6231  0037B6  8689               	bsf	c:(31819/8),(31819)&7	;volatile
  6232  0037B8                     	u3945:
  6233  0037B8  B0D8               	btfsc	status,0
  6234  0037BA  D001               	bra	u3946
  6235  0037BC  9689               	bcf	c:(31819/8),(31819)&7	;volatile
  6236  0037BE                     	u3946:
  6237                           	line	531
  6238                           ;main.c: 531: LATA4 = (DATA & 0x08) >> 3;
  6239  0037BE  C01B F21A          	movff	(c:27),??_lcd_command+0+0
  6240  0037C2  0E08               	movlw	08h
  6241  0037C4  0102               	movlb	2	; () banked
  6242  0037C6  171A               	andwf	(??_lcd_command+0+0)&0ffh
  6243  0037C8  90D8               	bcf	status,0
  6244  0037CA  0102               	movlb	2	; () banked
  6245  0037CC  331A               	rrcf	(??_lcd_command+0+0)&0ffh
  6246  0037CE  90D8               	bcf	status,0
  6247  0037D0  0102               	movlb	2	; () banked
  6248  0037D2  331A               	rrcf	(??_lcd_command+0+0)&0ffh
  6249  0037D4  90D8               	bcf	status,0
  6250  0037D6  0102               	movlb	2	; () banked
  6251  0037D8  331A               	rrcf	(??_lcd_command+0+0)&0ffh
  6252                           
  6253  0037DA  0102               	movlb	2	; () banked
  6254  0037DC  311A               	rrcf	(??_lcd_command+0+0)&0ffh,w
  6255  0037DE  A0D8               	btfss	status,0
  6256  0037E0  D001               	bra	u3955
  6257  0037E2  8889               	bsf	c:(31820/8),(31820)&7	;volatile
  6258  0037E4                     	u3955:
  6259  0037E4  B0D8               	btfsc	status,0
  6260  0037E6  D001               	bra	u3956
  6261  0037E8  9889               	bcf	c:(31820/8),(31820)&7	;volatile
  6262  0037EA                     	u3956:
  6263                           	line	532
  6264                           ;main.c: 532: LATA5=1;
  6265  0037EA  8A89               	bsf	c:(31821/8),(31821)&7	;volatile
  6266                           	line	533
  6267                           ;main.c: 533: DelayMs(10);
  6268  0037EC  0E0A               	movlw	low(0Ah)
  6269  0037EE  0102               	movlb	2	; () banked
  6270  0037F0  0102               	movlb	2	; () banked
  6271  0037F2  6F1B               	movwf	((?_DelayMs))&0ffh
  6272  0037F4  0E00               	movlw	high(0Ah)
  6273  0037F6  0102               	movlb	2	; () banked
  6274  0037F8  6F1C               	movwf	((?_DelayMs+1))&0ffh
  6275  0037FA  EC26  F020         	call	_DelayMs	;wreg free
  6276                           	line	534
  6277                           ;main.c: 534: LATA5=0;
  6278  0037FE  9A89               	bcf	c:(31821/8),(31821)&7	;volatile
  6279                           	line	535
  6280                           ;main.c: 535: DelayMs(5);
  6281  003800  0E05               	movlw	low(05h)
  6282  003802  0102               	movlb	2	; () banked
  6283  003804  0102               	movlb	2	; () banked
  6284  003806  6F1B               	movwf	((?_DelayMs))&0ffh
  6285  003808  0E00               	movlw	high(05h)
  6286  00380A  0102               	movlb	2	; () banked
  6287  00380C  6F1C               	movwf	((?_DelayMs+1))&0ffh
  6288  00380E  EC26  F020         	call	_DelayMs	;wreg free
  6289                           	line	536
  6290                           ;main.c: 536: }
  6291  003812                     l196:
  6292                           			; BSR set to: ?
  6293                           
  6294  003812  0012               	return
  6295                           	opt stack 0
  6296                           GLOBAL __end_of_lcd_command
  6297  003814                     	__end_of_lcd_command:
  6298                           	FNSIZE	_lcd_command,1,1
  6299                           ; =============== function _lcd_command ends ===
                                 =========
  6300                           
  6301                           	signat	_lcd_command,4216
  6302                           	global	___ftge
  6303                           	global	??___ftge
  6304                           	global	?___ftge
  6305                           
  6306                           ; *************** function ___ftge *************
                                 ****
  6307                           ; Defined at:
  6308                           ;		line 5 in file "C:\Program Files\HI-TECH Soft
                                 ware\PICC-18\PRO\9.65\sources\ftge.c"
  6309                           ; Parameters:
  6310                           ;		ff1            size:   3offs:   0	type: float
                                  
  6311                           ;		ff2            size:   3offs:   3	type: float
                                  
  6312                           ; Auto variables:
  6313                           ;		None
  6314                           ; Return value:
  6315                           ;		type: bit 
  6316                           ;		size: 0
  6317                           ; Registers used:
  6318                           ;		wreg, status,2, status,0
  6319                           ; Tracked objects:
  6320                           ;		On entry : 0/0
  6321                           ;		On exit  : 0/0
  6322                           ;		Unchanged: 0/0
  6323                           ; Data sizes:
  6324                           ;		Autos:    0
  6325                           ;		Params:   6
  6326                           ;		Temp:     3
  6327                           ;		Total:    9
  6328                           ; This function calls:
  6329                           ; This function is called by:
  6330                           ;		_actual
  6331                           ;		_pid
  6332                           ; This function uses a non-reentrant model
  6333                           ; 
  6334                                   psect   text23,class=CODE,space=0,reloc=
                                 2
  6335                           
  6336                           	opt lm
  6337                           	file	"C:\Program Files\HI-TECH Software\PICC-18
                                 \PRO\9.65\sources\ftge.c"
  6338                           	line	5
  6339  000000                     	__size_of___ftge	equ	__end_of___ftge-___ftge
  6340                           	
  6341  003B5A                     ___ftge:		; BSR set to: ?
  6342                           
  6343                           	opt stack 24
  6344                           	line	6
  6345  003B5A  0102               	movlb	2	; () banked
  6346                           	
  6347  003B5C  0102               	movlb	2	; () banked
  6348  003B5E  AF30               	btfss	((___ftge@ff1+2))&0ffh,(23)&7
  6349  003B60  EFB4  F01D         	goto	u3961
  6350  003B64  EFB6  F01D         	goto	u3960
  6351  003B68                     u3961:
  6352  003B68  EFD2  F01D         	goto	l597
  6353  003B6C                     u3960:
  6354                           	line	7
  6355  003B6C  0E00               	movlw	0
  6356  003B6E  6F34               	movwf	(??___ftge+0+0)&0ffh
  6357  003B70  0E00               	movlw	0
  6358  003B72  6F35               	movwf	(??___ftge+0+0+1)&0ffh
  6359  003B74  0E80               	movlw	080h
  6360  003B76  6F36               	movwf	(??___ftge+0+0+2)&0ffh
  6361  003B78  0102               	movlb	2	; () banked
  6362  003B7A  0102               	movlb	2	; () banked
  6363  003B7C  512E               	movf	((___ftge@ff1))&0ffh,w
  6364  003B7E  0102               	movlb	2	; () banked
  6365  003B80  5D34               	subwf	(??___ftge+0+0)&0ffh,w
  6366  003B82  0102               	movlb	2	; () banked
  6367  003B84  0102               	movlb	2	; () banked
  6368  003B86  6F2E               	movwf	((___ftge@ff1))&0ffh
  6369  003B88  0102               	movlb	2	; () banked
  6370  003B8A  0102               	movlb	2	; () banked
  6371  003B8C  512F               	movf	((___ftge@ff1+1))&0ffh,w
  6372  003B8E  0102               	movlb	2	; () banked
  6373  003B90  5935               	subwfb	(??___ftge+0+1)&0ffh,w
  6374  003B92  0102               	movlb	2	; () banked
  6375  003B94  6F2F               	movwf	1+((___ftge@ff1))&0ffh
  6376  003B96  0102               	movlb	2	; () banked
  6377  003B98  0102               	movlb	2	; () banked
  6378  003B9A  5130               	movf	((___ftge@ff1+2))&0ffh,w
  6379  003B9C  0102               	movlb	2	; () banked
  6380  003B9E  5936               	subwfb	(??___ftge+0+2)&0ffh,w
  6381  003BA0  0102               	movlb	2	; () banked
  6382  003BA2  6F30               	movwf	2+((___ftge@ff1))&0ffh
  6383                           	
  6384  003BA4                     l597:		; BSR set to: ?
  6385                           
  6386                           	line	8
  6387  003BA4  0102               	movlb	2	; () banked
  6388                           	
  6389  003BA6  0102               	movlb	2	; () banked
  6390  003BA8  AF33               	btfss	((___ftge@ff2+2))&0ffh,(23)&7
  6391  003BAA  EFD9  F01D         	goto	u3971
  6392  003BAE  EFDB  F01D         	goto	u3970
  6393  003BB2                     u3971:
  6394  003BB2  EFF7  F01D         	goto	l598
  6395  003BB6                     u3970:
  6396                           	line	9
  6397  003BB6  0E00               	movlw	0
  6398  003BB8  6F34               	movwf	(??___ftge+0+0)&0ffh
  6399  003BBA  0E00               	movlw	0
  6400  003BBC  6F35               	movwf	(??___ftge+0+0+1)&0ffh
  6401  003BBE  0E80               	movlw	080h
  6402  003BC0  6F36               	movwf	(??___ftge+0+0+2)&0ffh
  6403  003BC2  0102               	movlb	2	; () banked
  6404  003BC4  0102               	movlb	2	; () banked
  6405  003BC6  5131               	movf	((___ftge@ff2))&0ffh,w
  6406  003BC8  0102               	movlb	2	; () banked
  6407  003BCA  5D34               	subwf	(??___ftge+0+0)&0ffh,w
  6408  003BCC  0102               	movlb	2	; () banked
  6409  003BCE  0102               	movlb	2	; () banked
  6410  003BD0  6F31               	movwf	((___ftge@ff2))&0ffh
  6411  003BD2  0102               	movlb	2	; () banked
  6412  003BD4  0102               	movlb	2	; () banked
  6413  003BD6  5132               	movf	((___ftge@ff2+1))&0ffh,w
  6414  003BD8  0102               	movlb	2	; () banked
  6415  003BDA  5935               	subwfb	(??___ftge+0+1)&0ffh,w
  6416  003BDC  0102               	movlb	2	; () banked
  6417  003BDE  6F32               	movwf	1+((___ftge@ff2))&0ffh
  6418  003BE0  0102               	movlb	2	; () banked
  6419  003BE2  0102               	movlb	2	; () banked
  6420  003BE4  5133               	movf	((___ftge@ff2+2))&0ffh,w
  6421  003BE6  0102               	movlb	2	; () banked
  6422  003BE8  5936               	subwfb	(??___ftge+0+2)&0ffh,w
  6423  003BEA  0102               	movlb	2	; () banked
  6424  003BEC  6F33               	movwf	2+((___ftge@ff2))&0ffh
  6425                           	
  6426  003BEE                     l598:		; BSR set to: ?
  6427                           
  6428                           	line	10
  6429  003BEE  0E00               	movlw	low(0800000h)
  6430  003BF0  0102               	movlb	2	; () banked
  6431  003BF2  0102               	movlb	2	; () banked
  6432  003BF4  1B2E               	xorwf	((___ftge@ff1))&0ffh
  6433  003BF6  0E00               	movlw	high(0800000h)
  6434  003BF8  0102               	movlb	2	; () banked
  6435  003BFA  0102               	movlb	2	; () banked
  6436  003BFC  1B2F               	xorwf	((___ftge@ff1+1))&0ffh
  6437  003BFE  0E80               	movlw	low highword(0800000h)
  6438  003C00  0102               	movlb	2	; () banked
  6439  003C02  0102               	movlb	2	; () banked
  6440  003C04  1B30               	xorwf	((___ftge@ff1+2))&0ffh
  6441                           
  6442                           	line	11
  6443  003C06  0E00               	movlw	low(0800000h)
  6444  003C08  0102               	movlb	2	; () banked
  6445  003C0A  0102               	movlb	2	; () banked
  6446  003C0C  1B31               	xorwf	((___ftge@ff2))&0ffh
  6447  003C0E  0E00               	movlw	high(0800000h)
  6448  003C10  0102               	movlb	2	; () banked
  6449  003C12  0102               	movlb	2	; () banked
  6450  003C14  1B32               	xorwf	((___ftge@ff2+1))&0ffh
  6451  003C16  0E80               	movlw	low highword(0800000h)
  6452  003C18  0102               	movlb	2	; () banked
  6453  003C1A  0102               	movlb	2	; () banked
  6454  003C1C  1B33               	xorwf	((___ftge@ff2+2))&0ffh
  6455                           
  6456                           	line	12
  6457  003C1E  0102               	movlb	2	; () banked
  6458  003C20  0102               	movlb	2	; () banked
  6459  003C22  5131               	movf	((___ftge@ff2))&0ffh,w
  6460  003C24  0102               	movlb	2	; () banked
  6461  003C26  0102               	movlb	2	; () banked
  6462  003C28  5D2E               	subwf	((___ftge@ff1))&0ffh,w
  6463  003C2A  0102               	movlb	2	; () banked
  6464  003C2C  0102               	movlb	2	; () banked
  6465  003C2E  5132               	movf	((___ftge@ff2+1))&0ffh,w
  6466  003C30  0102               	movlb	2	; () banked
  6467  003C32  0102               	movlb	2	; () banked
  6468  003C34  592F               	subwfb	((___ftge@ff1+1))&0ffh,w
  6469  003C36  0102               	movlb	2	; () banked
  6470  003C38  0102               	movlb	2	; () banked
  6471  003C3A  5133               	movf	((___ftge@ff2+2))&0ffh,w
  6472  003C3C  0102               	movlb	2	; () banked
  6473  003C3E  0102               	movlb	2	; () banked
  6474  003C40  5930               	subwfb	((___ftge@ff1+2))&0ffh,w
  6475  003C42  EF23  F01E         	goto	l596
  6476                           	line	13
  6477  003C46                     l596:
  6478                           			; BSR set to: ?
  6479                           
  6480  003C46  0012               	return
  6481                           	opt stack 0
  6482                           GLOBAL __end_of___ftge
  6483  003C48                     	__end_of___ftge:
  6484                           	FNSIZE	___ftge,3,6
  6485                           ; =============== function ___ftge ends ========
                                 ====
  6486                           
  6487                           	signat	___ftge,8312
  6488                           	global	___ftmul
  6489                           	global	??___ftmul
  6490                           	global	?___ftmul
  6491                           
  6492                           ; *************** function ___ftmul ************
                                 *****
  6493                           ; Defined at:
  6494                           ;		line 18 in file "C:\Program Files\HI-TECH Sof
                                 tware\PICC-18\PRO\9.65\sources\ftmul.c"
  6495                           ; Parameters:
  6496                           ;		f1             size:   3offs:   0	type: float
                                  
  6497                           ;		f2             size:   3offs:   3	type: float
                                  
  6498                           ; Auto variables:
  6499                           ;		sign1       	       	type: unsigned char 
  6500                           ;		exp1        	       	type: unsigned char 
  6501                           ;		cntr        	       	type: unsigned char 
  6502                           ;		f3          	       	type: float 
  6503                           ; Return value:
  6504                           ;		type: float 
  6505                           ;		size: 3
  6506                           ; Registers used:
  6507                           ;		wreg, fsr0l, fsr0h, status,2, status,0, cstac
                                 k
  6508                           ; Tracked objects:
  6509                           ;		On entry : 0/0
  6510                           ;		On exit  : 0/0
  6511                           ;		Unchanged: 0/0
  6512                           ; Data sizes:
  6513                           ;		Autos:    6
  6514                           ;		Params:   6
  6515                           ;		Temp:     1
  6516                           ;		Total:   13
  6517                           ; This function calls:
  6518                           ;		___ftunpack
  6519                           ;		___ftpack
  6520                           ; This function is called by:
  6521                           ;		_actual
  6522                           ;		_currenttemp
  6523                           ;		_pid
  6524                           ; This function uses a non-reentrant model
  6525                           ; 
  6526                                   psect   text24,class=CODE,space=0,reloc=
                                 2
  6527                           
  6528                           	opt lm
  6529                           	file	"C:\Program Files\HI-TECH Software\PICC-18
                                 \PRO\9.65\sources\ftmul.c"
  6530                           	line	18
  6531  000000                     	__size_of___ftmul	equ	__end_of___ftmul-___ftmul
  6532                           	
  6533  00279C                     ___ftmul:		; BSR set to: ?
  6534                           
  6535                           	opt stack 24
  6536                           	line	22
  6537  00279C  0E00               	movlw	low(0)
  6538  00279E  0102               	movlb	2	; () banked
  6539  0027A0  0102               	movlb	2	; () banked
  6540  0027A2  6F37               	movwf	((___ftmul@f3))&0ffh
  6541  0027A4  0E00               	movlw	high(0)
  6542  0027A6  0102               	movlb	2	; () banked
  6543  0027A8  0102               	movlb	2	; () banked
  6544  0027AA  6F38               	movwf	((___ftmul@f3+1))&0ffh
  6545  0027AC  0E00               	movlw	low highword(0)
  6546  0027AE  0102               	movlb	2	; () banked
  6547  0027B0  0102               	movlb	2	; () banked
  6548  0027B2  6F39               	movwf	((___ftmul@f3+2))&0ffh
  6549+                          
  6550+                          	line	23
  6551+ 0027B4  0102               	movlb	2	; () banked
  6552+ 0027B6  0E35               	movlw	low(___ftmul@exp1)
  6553+ 0027B8  0102               	movlb	2	; () banked
  6554+ 0027BA  0102               	movlb	2	; () banked
  6555+ 0027BC  6F42               	movwf	(0+(?___ftunpack+02h))&0ffh
  6556+ 0027BE  0102               	movlb	2	; () banked
  6557+ 0027C0  0E02               	movlw	high(___ftmul@exp1)
  6558+ 0027C2  0102               	movlb	2	; () banked
  6559+ 0027C4  6F43               	movwf	(1+(?___ftunpack+02h))&0ffh
  6560+ 0027C6  0102               	movlb	2	; () banked
  6561+ 0027C8  0E2E               	movlw	low(___ftmul@f1)
  6562+ 0027CA  0102               	movlb	2	; () banked
  6563+ 0027CC  0102               	movlb	2	; () banked
  6564+ 0027CE  6F40               	movwf	((?___ftunpack))&0ffh
  6565+ 0027D0  0102               	movlb	2	; () banked
  6566+ 0027D2  0E02               	movlw	high(___ftmul@f1)
  6567+ 0027D4  0102               	movlb	2	; () banked
  6568+ 0027D6  6F41               	movwf	((?___ftunpack+1))&0ffh
  6569+ 0027D8  EC6C  F01F         	call	___ftunpack	;wreg free
  6570+ 0027DC  0102               	movlb	2	; () banked
  6571+ 0027DE  0102               	movlb	2	; () banked
  6572+ 0027E0  6F34               	movwf	((___ftmul@sign1))&0ffh
  6573+                          	line	24
  6574+ 0027E2  0102               	movlb	2	; () banked
  6575+ 0027E4  0E36               	movlw	low(___ftmul@cntr)
  6576+ 0027E6  0102               	movlb	2	; () banked
  6577+ 0027E8  0102               	movlb	2	; () banked
  6578+ 0027EA  6F42               	movwf	(0+(?___ftunpack+02h))&0ffh
  6579+ 0027EC  0102               	movlb	2	; () banked
  6580+ 0027EE  0E02               	movlw	high(___ftmul@cntr)
  6581+ 0027F0  0102               	movlb	2	; () banked
  6582+ 0027F2  6F43               	movwf	(1+(?___ftunpack+02h))&0ffh
  6583+ 0027F4  0102               	movlb	2	; () banked
  6584+ 0027F6  0E31               	movlw	low(___ftmul@f2)
  6585+ 0027F8  0102               	movlb	2	; () banked
  6586+ 0027FA  0102               	movlb	2	; () banked
  6587+ 0027FC  6F40               	movwf	((?___ftunpack))&0ffh
  6588+ 0027FE  0102               	movlb	2	; () banked
  6589+ 002800  0E02               	movlw	high(___ftmul@f2)
  6590+ 002802  0102               	movlb	2	; () banked
  6591+ 002804  6F41               	movwf	((?___ftunpack+1))&0ffh
  6592+ 002806  EC6C  F01F         	call	___ftunpack	;wreg free
  6593+ 00280A  0102               	movlb	2	; () banked
  6594+ 00280C  0102               	movlb	2	; () banked
  6595+ 00280E  1B34               	xorwf	((___ftmul@sign1))&0ffh
  6596+                          	line	25
  6597+ 002810  0102               	movlb	2	; () banked
  6598+ 002812  0102               	movlb	2	; () banked
  6599+ 002814  5136               	movf	((___ftmul@cntr))&0ffh,w
  6600+ 002816  B4D8               	btfsc	status,2
  6601+ 002818  EF10  F014         	goto	u3981
  6602+ 00281C  EF12  F014         	goto	u3980
  6603+ 002820                     u3981:
  6604+ 002820  EF1B  F014         	goto	l600000479
  6605+ 002824                     u3980:
  6606+ 002824  0102               	movlb	2	; () banked
  6607+ 002826  0102               	movlb	2	; () banked
  6608+ 002828  6735               	tstfsz	((___ftmul@exp1))&0ffh
  6609+ 00282A  EF19  F014         	goto	u3991
  6610+ 00282E  EF1B  F014         	goto	u3990
  6611+ 002832                     u3991:
  6612+ 002832  EF23  F014         	goto	l487
  6613+ 002836                     u3990:
  6614+                          	
  6615+ 002836                     l600000479:		; BSR set to: ?
  6616+                          
  6617+                          	line	26
  6618+ 002836  C237  F22E         	movff	(___ftmul@f3),(?___ftmul)
  6619+ 00283A  C238  F22F         	movff	(___ftmul@f3+1),(?___ftmul+1)
  6620+ 00283E  C239  F230         	movff	(___ftmul@f3+2),(?___ftmul+2)
  6621+ 002842  EFBC  F014         	goto	l486
  6622+                          	
  6623+ 002846                     l487:		; BSR set to: ?
  6624+                          
  6625+                          	line	27
  6626+ 002846  0102               	movlb	2	; () banked
  6627+ 002848  0102               	movlb	2	; () banked
  6628+ 00284A  5136               	movf	((___ftmul@cntr))&0ffh,w
  6629+ 00284C  0F7B               	addlw	low(07Bh)
  6630+ 00284E  0102               	movlb	2	; () banked
  6631+ 002850  0102               	movlb	2	; () banked
  6632+ 002852  2735               	addwf	((___ftmul@exp1))&0ffh
  6633+                          	line	28
  6634+ 002854  0102               	movlb	2	; () banked
  6635+ 002856  6F3A               	movwf	(??___ftmul+6+0)&0ffh
  6636+ 002858  0E07               	movlw	low(07h)
  6637+ 00285A  0102               	movlb	2	; () banked
  6638+ 00285C  0102               	movlb	2	; () banked
  6639+ 00285E  6F36               	movwf	((___ftmul@cntr))&0ffh
  6640+ 002860  0102               	movlb	2	; () banked
  6641+ 002862  513A               	movf	(??___ftmul+6+0)&0ffh,w
  6642+                          	line	29
  6643+                          	
  6644+ 002864                     l490:		; BSR set to: ?
  6645+                          
  6646+                          	line	30
  6647+ 002864  0102               	movlb	2	; () banked
  6648+                          	
  6649+ 002866  0102               	movlb	2	; () banked
  6650+ 002868  A12E               	btfss	((___ftmul@f1))&0ffh,(0)&7
  6651+ 00286A  EF39  F014         	goto	u4001
  6652+ 00286E  EF3B  F014         	goto	u4000
  6653+ 002872                     u4001:
  6654+ 002872  EF4D  F014         	goto	l491
  6655+ 002876                     u4000:
  6656+                          	line	31
  6657+ 002876  0102               	movlb	2	; () banked
  6658+ 002878  0102               	movlb	2	; () banked
  6659+ 00287A  5131               	movf	((___ftmul@f2))&0ffh,w
  6660+ 00287C  0102               	movlb	2	; () banked
  6661+ 00287E  0102               	movlb	2	; () banked
  6662+ 002880  2737               	addwf	((___ftmul@f3))&0ffh
  6663+ 002882  0102               	movlb	2	; () banked
  6664+ 002884  0102               	movlb	2	; () banked
  6665+ 002886  5132               	movf	((___ftmul@f2+1))&0ffh,w
  6666+ 002888  0102               	movlb	2	; () banked
  6667+ 00288A  0102               	movlb	2	; () banked
  6668+ 00288C  2338               	addwfc	((___ftmul@f3+1))&0ffh
  6669+ 00288E  0102               	movlb	2	; () banked
  6670+ 002890  0102               	movlb	2	; () banked
  6671+ 002892  5133               	movf	((___ftmul@f2+2))&0ffh,w
  6672+ 002894  0102               	movlb	2	; () banked
  6673+ 002896  0102               	movlb	2	; () banked
  6674+ 002898  2339               	addwfc	((___ftmul@f3+2))&0ffh
  6675+                          
  6676+                          	
  6677+ 00289A                     l491:		; BSR set to: ?
  6678+                          
  6679+                          	line	32
  6680+ 00289A  0102               	movlb	2	; () banked
  6681+ 00289C  90D8               	bcf	status,0
  6682+ 00289E  0102               	movlb	2	; () banked
  6683+ 0028A0  3330               	rrcf	((___ftmul@f1+2))&0ffh
  6684+ 0028A2  0102               	movlb	2	; () banked
  6685+ 0028A4  332F               	rrcf	((___ftmul@f1+1))&0ffh
  6686+ 0028A6  0102               	movlb	2	; () banked
  6687+ 0028A8  332E               	rrcf	((___ftmul@f1))&0ffh
  6688+                          	line	33
  6689+ 0028AA  0102               	movlb	2	; () banked
  6690+ 0028AC  90D8               	bcf	status,0
  6691+ 0028AE  0102               	movlb	2	; () banked
  6692+ 0028B0  3731               	rlcf	((___ftmul@f2))&0ffh
  6693+ 0028B2  0102               	movlb	2	; () banked
  6694+ 0028B4  3732               	rlcf	((___ftmul@f2+1))&0ffh
  6695+ 0028B6  0102               	movlb	2	; () banked
  6696+ 0028B8  3733               	rlcf	((___ftmul@f2+2))&0ffh
  6697+                          	line	34
  6698+ 0028BA  0102               	movlb	2	; () banked
  6699+ 0028BC  0102               	movlb	2	; () banked
  6700+ 0028BE  2F36               	decfsz	((___ftmul@cntr))&0ffh
  6701+                          	
  6702+ 0028C0  EF32  F014         	goto	l490
  6703+                          	
  6704+ 0028C4                     l489:		; BSR set to: ?
  6705+                          
  6706+                          	line	35
  6707+ 0028C4  0102               	movlb	2	; () banked
  6708+ 0028C6  6F3A               	movwf	(??___ftmul+6+0)&0ffh
  6709+ 0028C8  0E09               	movlw	low(09h)
  6710+ 0028CA  0102               	movlb	2	; () banked
  6711+ 0028CC  0102               	movlb	2	; () banked
  6712+ 0028CE  6F36               	movwf	((___ftmul@cntr))&0ffh
  6713+ 0028D0  0102               	movlb	2	; () banked
  6714+ 0028D2  513A               	movf	(??___ftmul+6+0)&0ffh,w
  6715+                          	line	36
  6716+                          	
  6717+ 0028D4                     l494:		; BSR set to: ?
  6718+                          
  6719+                          	line	37
  6720+ 0028D4  0102               	movlb	2	; () banked
  6721+                          	
  6722+ 0028D6  0102               	movlb	2	; () banked
  6723+ 0028D8  A12E               	btfss	((___ftmul@f1))&0ffh,(0)&7
  6724+ 0028DA  EF71  F014         	goto	u4011
  6725+ 0028DE  EF73  F014         	goto	u4010
  6726+ 0028E2                     u4011:
  6727+ 0028E2  EF85  F014         	goto	l495
  6728+ 0028E6                     u4010:
  6729+                          	line	38
  6730+ 0028E6  0102               	movlb	2	; () banked
  6731+ 0028E8  0102               	movlb	2	; () banked
  6732+ 0028EA  5131               	movf	((___ftmul@f2))&0ffh,w
  6733+ 0028EC  0102               	movlb	2	; () banked
  6734+ 0028EE  0102               	movlb	2	; () banked
  6735+ 0028F0  2737               	addwf	((___ftmul@f3))&0ffh
  6736+ 0028F2  0102               	movlb	2	; () banked
  6737+ 0028F4  0102               	movlb	2	; () banked
  6738+ 0028F6  5132               	movf	((___ftmul@f2+1))&0ffh,w
  6739+ 0028F8  0102               	movlb	2	; () banked
  6740+ 0028FA  0102               	movlb	2	; () banked
  6741+ 0028FC  2338               	addwfc	((___ftmul@f3+1))&0ffh
  6742+ 0028FE  0102               	movlb	2	; () banked
  6743+ 002900  0102               	movlb	2	; () banked
  6744+ 002902  5133               	movf	((___ftmul@f2+2))&0ffh,w
  6745+ 002904  0102               	movlb	2	; () banked
  6746+ 002906  0102               	movlb	2	; () banked
  6747+ 002908  2339               	addwfc	((___ftmul@f3+2))&0ffh
  6748+                          
  6749+                          	
  6750+ 00290A                     l495:		; BSR set to: ?
  6751+                          
  6752+                          	line	39
  6753+ 00290A  0102               	movlb	2	; () banked
  6754+ 00290C  90D8               	bcf	status,0
  6755+ 00290E  0102               	movlb	2	; () banked
  6756+ 002910  3330               	rrcf	((___ftmul@f1+2))&0ffh
  6757+ 002912  0102               	movlb	2	; () banked
  6758+ 002914  332F               	rrcf	((___ftmul@f1+1))&0ffh
  6759+ 002916  0102               	movlb	2	; () banked
  6760+ 002918  332E               	rrcf	((___ftmul@f1))&0ffh
  6761+                          	line	40
  6762+ 00291A  0102               	movlb	2	; () banked
  6763+ 00291C  90D8               	bcf	status,0
  6764+ 00291E  0102               	movlb	2	; () banked
  6765+ 002920  3339               	rrcf	((___ftmul@f3+2))&0ffh
  6766+ 002922  0102               	movlb	2	; () banked
  6767+ 002924  3338               	rrcf	((___ftmul@f3+1))&0ffh
  6768+ 002926  0102               	movlb	2	; () banked
  6769+ 002928  3337               	rrcf	((___ftmul@f3))&0ffh
  6770+                          	line	41
  6771+ 00292A  0102               	movlb	2	; () banked
  6772+ 00292C  0102               	movlb	2	; () banked
  6773+ 00292E  2F36               	decfsz	((___ftmul@cntr))&0ffh
  6774+                          	
  6775+ 002930  EF6A  F014         	goto	l494
  6776+                          	
  6777+ 002934                     l493:		; BSR set to: ?
  6778+                          
  6779+                          	line	42
  6780+ 002934  C235  F242         	movff	(___ftmul@exp1),0+(?___ftpack+02h)
  6781+ 002938  0102               	movlb	2	; () banked
  6782+ 00293A  0E37               	movlw	low(___ftmul@f3)
  6783+ 00293C  0102               	movlb	2	; () banked
  6784+ 00293E  0102               	movlb	2	; () banked
  6785+ 002940  6F40               	movwf	((?___ftpack))&0ffh
  6786+ 002942  0102               	movlb	2	; () banked
  6787+ 002944  0E02               	movlw	high(___ftmul@f3)
  6788+ 002946  0102               	movlb	2	; () banked
  6789+ 002948  6F41               	movwf	((?___ftpack+1))&0ffh
  6790+ 00294A  EC9F  F018         	call	___ftpack	;wreg free
  6791+                          	line	43
  6792+ 00294E  0102               	movlb	2	; () banked
  6793+ 002950  0102               	movlb	2	; () banked
  6794+ 002952  5134               	movf	((___ftmul@sign1))&0ffh,w
  6795+ 002954  B4D8               	btfsc	status,2
  6796+ 002956  EFAF  F014         	goto	u4021
  6797+ 00295A  EFB1  F014         	goto	u4020
  6798+ 00295E                     u4021:
  6799+ 00295E  EFB4  F014         	goto	l496
  6800+ 002962                     u4020:
  6801+                          	line	44
  6802+ 002962  0102               	movlb	2	; () banked
  6803+ 002964  0102               	movlb	2	; () banked
  6804+ 002966  8F39               	bsf	(0+(23/8)+(___ftmul@f3))&0ffh,(23)&7
  6805+                          	
  6806+ 002968                     l496:		; BSR set to: ?
  6807+                          
  6808+                          	line	45
  6809+ 002968  C237  F22E         	movff	(___ftmul@f3),(?___ftmul)
  6810+ 00296C  C238  F22F         	movff	(___ftmul@f3+1),(?___ftmul+1)
  6811+ 002970  C239  F230         	movff	(___ftmul@f3+2),(?___ftmul+2)
  6812+ 002974  EFBC  F014         	goto	l486
  6813+                          	line	46
  6814+ 002978                     l486:
  6815+                          			; BSR set to: ?
  6816+                          
  6817+ 002978  0012               	return
  6818+                          	opt stack 0
  6819+                          GLOBAL __end_of___ftmul
  6820+ 00297A                     	__end_of___ftmul:
  6821+                          	FNSIZE	___ftmul,7,6
  6822+                          ; =============== function ___ftmul ends =======
      +                          =====
  6823+                          
  6824+                          	signat	___ftmul,8315
  6825+                          	global	___wmul
  6826+                          	global	??___wmul
  6827+                          	global	?___wmul
  6828+                          
  6829+                          ; *************** function ___wmul *************
      +                          ****
  6830+                          ; Defined at:
  6831+                          ;		line 3 in file "C:\Program Files\HI-TECH Soft
      +                          ware\PICC-18\PRO\9.65\sources\wmul.c"
  6832+                          ; Parameters:
  6833+                          ;		multiplier     size:   2offs:   0	type: unsig
      +                          ned int 
  6834+                          ;		multiplicand   size:   2offs:   2	type: unsig
      +                          ned int 
  6835+                          ; Auto variables:
  6836+                          ;		product     	       	type: unsigned int 
  6837+                          ; Return value:
  6838+                          ;		type: unsigned int 
  6839+                          ;		size: 2
  6840+                          ; Registers used:
  6841+                          ;		wreg, status,2, status,0
  6842+                          ; Tracked objects:
  6843+                          ;		On entry : 0/0
  6844+                          ;		On exit  : 0/0
  6845+                          ;		Unchanged: 0/0
  6846+                          ; Data sizes:
  6847+                          ;		Autos:    2
  6848+                          ;		Params:   4
  6849+                          ;		Temp:     0
  6850+                          ;		Total:    6
  6851+                          ; This function calls:
  6852+                          ;		Nothing
  6853+                          ; This function is called by:
  6854+                          ;		_Navigate
  6855+                          ;		_actual
  6856+                          ; This function uses a non-reentrant model
  6857+                          ; 
  6858+                                  psect   text25,class=CODE,space=0,reloc=
      +                          2
  6859+                          
  6860+                          	opt lm
  6861+                          	file	"C:\Program Files\HI-TECH Software\PICC-18
      +                          \PRO\9.65\sources\wmul.c"
  6862+                          	line	3
  6863+ 000000                     	__size_of___wmul	equ	__end_of___wmul-___wmul
  6864+                          	
  6865+ 004178                     ___wmul:		; BSR set to: ?
  6866+                          
  6867+                          	opt stack 24
  6868+                          	line	4
  6869+ 004178  0E00               	movlw	low(0)
  6870+ 00417A  0102               	movlb	2	; () banked
  6871+ 00417C  0102               	movlb	2	; () banked
  6872+ 00417E  6F32               	movwf	((___wmul@product))&0ffh
  6873+ 004180  0E00               	movlw	high(0)
  6874+ 004182  0102               	movlb	2	; () banked
  6875+ 004184  6F33               	movwf	((___wmul@product+1))&0ffh
  6876+                          	line	6
  6877+                          	
  6878+ 004186                     l590:		; BSR set to: ?
  6879+                          
  6880+                          	line	7
  6881+ 004186  0102               	movlb	2	; () banked
  6882+                          	
  6883+ 004188  0102               	movlb	2	; () banked
  6884+ 00418A  A12E               	btfss	((___wmul@multiplier))&0ffh,(0)&7
  6885+ 00418C  EFCA  F020         	goto	u4031
  6886+ 004190  EFCC  F020         	goto	u4030
  6887+ 004194                     u4031:
  6888+ 004194  EFD8  F020         	goto	l591
  6889+ 004198                     u4030:
  6890+                          	line	8
  6891+ 004198  0102               	movlb	2	; () banked
  6892+ 00419A  0102               	movlb	2	; () banked
  6893+ 00419C  5130               	movf	((___wmul@multiplicand))&0ffh,w
  6894+ 00419E  0102               	movlb	2	; () banked
  6895+ 0041A0  0102               	movlb	2	; () banked
  6896+ 0041A2  2732               	addwf	((___wmul@product))&0ffh
  6897+ 0041A4  0102               	movlb	2	; () banked
  6898+ 0041A6  0102               	movlb	2	; () banked
  6899+ 0041A8  5131               	movf	((___wmul@multiplicand+1))&0ffh,w
  6900+ 0041AA  0102               	movlb	2	; () banked
  6901+ 0041AC  0102               	movlb	2	; () banked
  6902+ 0041AE  2333               	addwfc	((___wmul@product+1))&0ffh
  6903+                          
  6904+                          	
  6905+ 0041B0                     l591:		; BSR set to: ?
  6906+                          
  6907+                          	line	9
  6908+ 0041B0  0102               	movlb	2	; () banked
  6909+ 0041B2  90D8               	bcf	status,0
  6910+ 0041B4  0102               	movlb	2	; () banked
  6911+ 0041B6  3730               	rlcf	((___wmul@multiplicand))&0ffh
  6912+ 0041B8  0102               	movlb	2	; () banked
  6913+ 0041BA  3731               	rlcf	((___wmul@multiplicand+1))&0ffh
  6914+                          	line	10
  6915+ 0041BC  0102               	movlb	2	; () banked
  6916+ 0041BE  90D8               	bcf	status,0
  6917+ 0041C0  0102               	movlb	2	; () banked
  6918+ 0041C2  332F               	rrcf	((___wmul@multiplier+1))&0ffh
  6919+ 0041C4  0102               	movlb	2	; () banked
  6920+ 0041C6  332E               	rrcf	((___wmul@multiplier))&0ffh
  6921+                          	line	11
  6922+ 0041C8  0102               	movlb	2	; () banked
  6923+ 0041CA  0102               	movlb	2	; () banked
  6924+ 0041CC  512F               	movf	((___wmul@multiplier+1))&0ffh,w
  6925+ 0041CE  112E               	iorwf ((___wmul@multiplier))&0ffh,w
  6926+                          
  6927+ 0041D0  A4D8               	btfss	status,2
  6928+ 0041D2  EFED  F020         	goto	u4041
  6929+ 0041D6  EFEF  F020         	goto	u4040
  6930+ 0041DA                     u4041:
  6931+ 0041DA  EFC3  F020         	goto	l590
  6932+ 0041DE                     u4040:
  6933+                          	
  6934+ 0041DE                     l589:		; BSR set to: ?
  6935+                          
  6936+                          	line	12
  6937+ 0041DE  C232  F22E         	movff	(___wmul@product),(?___wmul)
  6938+ 0041E2  C233  F22F         	movff	(___wmul@product+1),(?___wmul+1)
  6939+ 0041E6  EFF5  F020         	goto	l587
  6940+                          	line	13
  6941+ 0041EA                     l587:
  6942+                          			; BSR set to: ?
  6943+                          
  6944+ 0041EA  0012               	return
  6945+                          	opt stack 0
  6946+                          GLOBAL __end_of___wmul
  6947+ 0041EC                     	__end_of___wmul:
  6948+                          	FNSIZE	___wmul,2,4
  6949+                          ; =============== function ___wmul ends ========
      +                          ====
  6950+                          
  6951+                          	signat	___wmul,8314
  6952+                          	global	_lcd_data
  6953+                          	global	??_lcd_data
  6954+                          	global	?_lcd_data
  6955+                          
  6956+                          ; *************** function _lcd_data ***********
      +                          ******
  6957+                          ; Defined at:
  6958+                          ;		line 539 in file "main.c"
  6959+                          ; Parameters:
  6960+                          ;		data           size:   1offs:   0	type: unsig
      +                          ned char 
  6961+                          ; Auto variables:
  6962+                          ;		None
  6963+                          ; Return value:
  6964+                          ;		type: void 
  6965+                          ;		size: 0
  6966+                          ; Registers used:
  6967+                          ;		wreg, status,2, status,0, cstack
  6968+                          ; Tracked objects:
  6969+                          ;		On entry : 0/0
  6970+                          ;		On exit  : 0/0
  6971+                          ;		Unchanged: 0/0
  6972+                          ; Data sizes:
  6973+                          ;		Autos:    0
  6974+                          ;		Params:   1
  6975+                          ;		Temp:     1
  6976+                          ;		Total:    2
  6977+                          ; This function calls:
  6978+                          ;		_DelayMs
  6979+                          ; This function is called by:
  6980+                          ;		_Display
  6981+                          ; This function uses a non-reentrant model
  6982+                          ; 
  6983+                                  psect   text26,class=CODE,space=0,reloc=
      +                          2
  6984+                          
  6985+                          	opt lm
  6986+                          	file	"main.c"
  6987+                          	line	539
  6988+ 000000                     	__size_of_lcd_data	equ	__end_of_lcd_data-_lcd_d
      +                          ata
  6989+                          ;main.c: 538: void lcd_data(unsigned char data)
  6990+                          ;main.c: 539: {
  6991+                          	
  6992+ 00356C                     _lcd_data:		; BSR set to: ?
  6993+                          
  6994+                          	opt stack 24
  6995+                          	line	540
  6996+                          ;main.c: 540: LATD1=1;
  6997+ 00356C  828C               	bsf	c:(31841/8),(31841)&7	;volatile
  6998+                          	line	541
  6999+                          ;main.c: 541: DATA=((data >>4) & 0x0f);
  7000+ 00356E  0102               	movlb	2	; () banked
  7001+ 003570  0102               	movlb	2	; () banked
  7002+ 003572  3919               	swapf	((lcd_data@data))&0ffh,w
  7003+ 003574  0B0F               	andlw	(0ffh shr 4) & 0ffh
  7004+ 003576  0B0F               	andlw	low(0Fh)
  7005+ 003578  6E1B               	movwf	((c:27)),c
  7006+                          	line	542
  7007+                          ;main.c: 542: LATA1 = DATA & 0x01;
  7008+ 00357A  A01B               	btfss	((c:27)),c,0
  7009+ 00357C  D001               	bra	u4055
  7010+ 00357E  8289               	bsf	c:(31817/8),(31817)&7	;volatile
  7011+ 003580                     	u4055:
  7012+ 003580  B01B               	btfsc	((c:27)),c,0
  7013+ 003582  D001               	bra	u4056
  7014+ 003584  9289               	bcf	c:(31817/8),(31817)&7	;volatile
  7015+ 003586                     	u4056:
  7016+                          	line	543
  7017+                          ;main.c: 543: LATA2 = (DATA & 0x02) >> 1;
  7018+ 003586  C01B F21A          	movff	(c:27),??_lcd_data+0+0
  7019+ 00358A  0E02               	movlw	02h
  7020+ 00358C  0102               	movlb	2	; () banked
  7021+ 00358E  171A               	andwf	(??_lcd_data+0+0)&0ffh
  7022+ 003590  90D8               	bcf	status,0
  7023+ 003592  0102               	movlb	2	; () banked
  7024+ 003594  331A               	rrcf	(??_lcd_data+0+0)&0ffh
  7025+                          
  7026+ 003596  0102               	movlb	2	; () banked
  7027+ 003598  311A               	rrcf	(??_lcd_data+0+0)&0ffh,w
  7028+ 00359A  A0D8               	btfss	status,0
  7029+ 00359C  D001               	bra	u4065
  7030+ 00359E  8489               	bsf	c:(31818/8),(31818)&7	;volatile
  7031+ 0035A0                     	u4065:
  7032+ 0035A0  B0D8               	btfsc	status,0
  7033+ 0035A2  D001               	bra	u4066
  7034+ 0035A4  9489               	bcf	c:(31818/8),(31818)&7	;volatile
  7035+ 0035A6                     	u4066:
  7036+                          	line	544
  7037+                          ;main.c: 544: LATA3 = (DATA & 0x04) >> 2;
  7038+ 0035A6  C01B F21A          	movff	(c:27),??_lcd_data+0+0
  7039+ 0035AA  0E04               	movlw	04h
  7040+ 0035AC  0102               	movlb	2	; () banked
  7041+ 0035AE  171A               	andwf	(??_lcd_data+0+0)&0ffh
  7042+ 0035B0  90D8               	bcf	status,0
  7043+ 0035B2  0102               	movlb	2	; () banked
  7044+ 0035B4  331A               	rrcf	(??_lcd_data+0+0)&0ffh
  7045+ 0035B6  90D8               	bcf	status,0
  7046+ 0035B8  0102               	movlb	2	; () banked
  7047+ 0035BA  331A               	rrcf	(??_lcd_data+0+0)&0ffh
  7048+                          
  7049+ 0035BC  0102               	movlb	2	; () banked
  7050+ 0035BE  311A               	rrcf	(??_lcd_data+0+0)&0ffh,w
  7051+ 0035C0  A0D8               	btfss	status,0
  7052+ 0035C2  D001               	bra	u4075
  7053+ 0035C4  8689               	bsf	c:(31819/8),(31819)&7	;volatile
  7054+ 0035C6                     	u4075:
  7055+ 0035C6  B0D8               	btfsc	status,0
  7056+ 0035C8  D001               	bra	u4076
  7057+ 0035CA  9689               	bcf	c:(31819/8),(31819)&7	;volatile
  7058+ 0035CC                     	u4076:
  7059+                          	line	545
  7060+                          ;main.c: 545: LATA4 = (DATA & 0x08) >> 3;
  7061+ 0035CC  C01B F21A          	movff	(c:27),??_lcd_data+0+0
  7062+ 0035D0  0E08               	movlw	08h
  7063+ 0035D2  0102               	movlb	2	; () banked
  7064+ 0035D4  171A               	andwf	(??_lcd_data+0+0)&0ffh
  7065+ 0035D6  90D8               	bcf	status,0
  7066+ 0035D8  0102               	movlb	2	; () banked
  7067+ 0035DA  331A               	rrcf	(??_lcd_data+0+0)&0ffh
  7068+ 0035DC  90D8               	bcf	status,0
  7069+ 0035DE  0102               	movlb	2	; () banked
  7070+ 0035E0  331A               	rrcf	(??_lcd_data+0+0)&0ffh
  7071+ 0035E2  90D8               	bcf	status,0
  7072+ 0035E4  0102               	movlb	2	; () banked
  7073+ 0035E6  331A               	rrcf	(??_lcd_data+0+0)&0ffh
  7074+                          
  7075+ 0035E8  0102               	movlb	2	; () banked
  7076+ 0035EA  311A               	rrcf	(??_lcd_data+0+0)&0ffh,w
  7077+ 0035EC  A0D8               	btfss	status,0
  7078+ 0035EE  D001               	bra	u4085
  7079+ 0035F0  8889               	bsf	c:(31820/8),(31820)&7	;volatile
  7080+ 0035F2                     	u4085:
  7081+ 0035F2  B0D8               	btfsc	status,0
  7082+ 0035F4  D001               	bra	u4086
  7083+ 0035F6  9889               	bcf	c:(31820/8),(31820)&7	;volatile
  7084+ 0035F8                     	u4086:
  7085+                          	line	546
  7086+                          ;main.c: 546: LATA5=1;
  7087+ 0035F8  8A89               	bsf	c:(31821/8),(31821)&7	;volatile
  7088+                          	line	547
  7089+                          ;main.c: 547: DelayMs(10);
  7090+ 0035FA  0E0A               	movlw	low(0Ah)
  7091+ 0035FC  0102               	movlb	2	; () banked
  7092+ 0035FE  0102               	movlb	2	; () banked
  7093+ 003600  6F1B               	movwf	((?_DelayMs))&0ffh
  7094+ 003602  0E00               	movlw	high(0Ah)
  7095+ 003604  0102               	movlb	2	; () banked
  7096+ 003606  6F1C               	movwf	((?_DelayMs+1))&0ffh
  7097+ 003608  EC26  F020         	call	_DelayMs	;wreg free
  7098+                          	line	548
  7099+                          ;main.c: 548: LATA5=0;
  7100+ 00360C  9A89               	bcf	c:(31821/8),(31821)&7	;volatile
  7101+                          	line	549
  7102+                          ;main.c: 549: DATA=(data & 0x0f);
  7103+ 00360E  0102               	movlb	2	; () banked
  7104+ 003610  0102               	movlb	2	; () banked
  7105+ 003612  5119               	movf	((lcd_data@data))&0ffh,w
  7106+ 003614  0B0F               	andlw	low(0Fh)
  7107+ 003616  6E1B               	movwf	((c:27)),c
  7108+                          	line	550
  7109+                          ;main.c: 550: LATA1 = DATA & 0x01;
  7110+ 003618  A01B               	btfss	((c:27)),c,0
  7111+ 00361A  D001               	bra	u4095
  7112+ 00361C  8289               	bsf	c:(31817/8),(31817)&7	;volatile
  7113+ 00361E                     	u4095:
  7114+ 00361E  B01B               	btfsc	((c:27)),c,0
  7115+ 003620  D001               	bra	u4096
  7116+ 003622  9289               	bcf	c:(31817/8),(31817)&7	;volatile
  7117+ 003624                     	u4096:
  7118+                          	line	551
  7119+                          ;main.c: 551: LATA2 = (DATA & 0x02) >> 1;
  7120+ 003624  C01B F21A          	movff	(c:27),??_lcd_data+0+0
  7121+ 003628  0E02               	movlw	02h
  7122+ 00362A  0102               	movlb	2	; () banked
  7123+ 00362C  171A               	andwf	(??_lcd_data+0+0)&0ffh
  7124+ 00362E  90D8               	bcf	status,0
  7125+ 003630  0102               	movlb	2	; () banked
  7126+ 003632  331A               	rrcf	(??_lcd_data+0+0)&0ffh
  7127+                          
  7128+ 003634  0102               	movlb	2	; () banked
  7129+ 003636  311A               	rrcf	(??_lcd_data+0+0)&0ffh,w
  7130+ 003638  A0D8               	btfss	status,0
  7131+ 00363A  D001               	bra	u4105
  7132+ 00363C  8489               	bsf	c:(31818/8),(31818)&7	;volatile
  7133+ 00363E                     	u4105:
  7134+ 00363E  B0D8               	btfsc	status,0
  7135+ 003640  D001               	bra	u4106
  7136+ 003642  9489               	bcf	c:(31818/8),(31818)&7	;volatile
  7137+ 003644                     	u4106:
  7138+                          	line	552
  7139+                          ;main.c: 552: LATA3 = (DATA & 0x04) >> 2;
  7140+ 003644  C01B F21A          	movff	(c:27),??_lcd_data+0+0
  7141+ 003648  0E04               	movlw	04h
  7142+ 00364A  0102               	movlb	2	; () banked
  7143+ 00364C  171A               	andwf	(??_lcd_data+0+0)&0ffh
  7144+ 00364E  90D8               	bcf	status,0
  7145+ 003650  0102               	movlb	2	; () banked
  7146+ 003652  331A               	rrcf	(??_lcd_data+0+0)&0ffh
  7147+ 003654  90D8               	bcf	status,0
  7148+ 003656  0102               	movlb	2	; () banked
  7149+ 003658  331A               	rrcf	(??_lcd_data+0+0)&0ffh
  7150+                          
  7151+ 00365A  0102               	movlb	2	; () banked
  7152+ 00365C  311A               	rrcf	(??_lcd_data+0+0)&0ffh,w
  7153+ 00365E  A0D8               	btfss	status,0
  7154+ 003660  D001               	bra	u4115
  7155+ 003662  8689               	bsf	c:(31819/8),(31819)&7	;volatile
  7156+ 003664                     	u4115:
  7157+ 003664  B0D8               	btfsc	status,0
  7158+ 003666  D001               	bra	u4116
  7159+ 003668  9689               	bcf	c:(31819/8),(31819)&7	;volatile
  7160+ 00366A                     	u4116:
  7161+                          	line	553
  7162+                          ;main.c: 553: LATA4 = (DATA & 0x08) >> 3;
  7163+ 00366A  C01B F21A          	movff	(c:27),??_lcd_data+0+0
  7164+ 00366E  0E08               	movlw	08h
  7165+ 003670  0102               	movlb	2	; () banked
  7166+ 003672  171A               	andwf	(??_lcd_data+0+0)&0ffh
  7167+ 003674  90D8               	bcf	status,0
  7168+ 003676  0102               	movlb	2	; () banked
  7169+ 003678  331A               	rrcf	(??_lcd_data+0+0)&0ffh
  7170+ 00367A  90D8               	bcf	status,0
  7171+ 00367C  0102               	movlb	2	; () banked
  7172+ 00367E  331A               	rrcf	(??_lcd_data+0+0)&0ffh
  7173+ 003680  90D8               	bcf	status,0
  7174+ 003682  0102               	movlb	2	; () banked
  7175+ 003684  331A               	rrcf	(??_lcd_data+0+0)&0ffh
  7176+                          
  7177+ 003686  0102               	movlb	2	; () banked
  7178+ 003688  311A               	rrcf	(??_lcd_data+0+0)&0ffh,w
  7179+ 00368A  A0D8               	btfss	status,0
  7180+ 00368C  D001               	bra	u4125
  7181+ 00368E  8889               	bsf	c:(31820/8),(31820)&7	;volatile
  7182+ 003690                     	u4125:
  7183+ 003690  B0D8               	btfsc	status,0
  7184+ 003692  D001               	bra	u4126
  7185+ 003694  9889               	bcf	c:(31820/8),(31820)&7	;volatile
  7186+ 003696                     	u4126:
  7187+                          	line	554
  7188+                          ;main.c: 554: LATA5=1;
  7189+ 003696  8A89               	bsf	c:(31821/8),(31821)&7	;volatile
  7190+                          	line	555
  7191+                          ;main.c: 555: DelayMs(10);
  7192+ 003698  0E0A               	movlw	low(0Ah)
  7193+ 00369A  0102               	movlb	2	; () banked
  7194+ 00369C  0102               	movlb	2	; () banked
  7195+ 00369E  6F1B               	movwf	((?_DelayMs))&0ffh
  7196+ 0036A0  0E00               	movlw	high(0Ah)
  7197+ 0036A2  0102               	movlb	2	; () banked
  7198+ 0036A4  6F1C               	movwf	((?_DelayMs+1))&0ffh
  7199+ 0036A6  EC26  F020         	call	_DelayMs	;wreg free
  7200+                          	line	556
  7201+                          ;main.c: 556: LATA5=0;
  7202+ 0036AA  9A89               	bcf	c:(31821/8),(31821)&7	;volatile
  7203+                          	line	557
  7204+                          ;main.c: 557: DelayMs(5);
  7205+ 0036AC  0E05               	movlw	low(05h)
  7206+ 0036AE  0102               	movlb	2	; () banked
  7207+ 0036B0  0102               	movlb	2	; () banked
  7208+ 0036B2  6F1B               	movwf	((?_DelayMs))&0ffh
  7209+ 0036B4  0E00               	movlw	high(05h)
  7210+ 0036B6  0102               	movlb	2	; () banked
  7211+ 0036B8  6F1C               	movwf	((?_DelayMs+1))&0ffh
  7212+ 0036BA  EC26  F020         	call	_DelayMs	;wreg free
  7213+                          	line	558
  7214+                          ;main.c: 558: }
  7215+ 0036BE                     l197:
  7216+                          			; BSR set to: ?
  7217+                          
  7218+ 0036BE  0012               	return
  7219+                          	opt stack 0
  7220+                          GLOBAL __end_of_lcd_data
  7221+ 0036C0                     	__end_of_lcd_data:
  7222+                          	FNSIZE	_lcd_data,1,1
  7223+                          ; =============== function _lcd_data ends ======
      +                          ======
  7224+                          
  7225+                          	signat	_lcd_data,4216
  7226+                          	global	_calc_err
  7227+                          	global	??_calc_err
  7228+                          	global	?_calc_err
  7229+                          
  7230+                          ; *************** function _calc_err ***********
      +                          ******
  7231+                          ; Defined at:
  7232+                          ;		line 808 in file "main.c"
  7233+                          ; Parameters:
  7234+                          ;		None
  7235+                          ; Auto variables:
  7236+                          ;		error       	       	type: float 
  7237+                          ; Return value:
  7238+                          ;		type: float 
  7239+                          ;		size: 3
  7240+                          ; Registers used:
  7241+                          ;		wreg, fsr0l, fsr0h, status,2, status,0, cstac
      +                          k
  7242+                          ; Tracked objects:
  7243+                          ;		On entry : 0/0
  7244+                          ;		On exit  : 0/0
  7245+                          ;		Unchanged: 0/0
  7246+                          ; Data sizes:
  7247+                          ;		Autos:    3
  7248+                          ;		Params:   3
  7249+                          ;		Temp:     0
  7250+                          ;		Total:    6
  7251+                          ; This function calls:
  7252+                          ;		___ftsub
  7253+                          ; This function is called by:
  7254+                          ;		_pid_error
  7255+                          ; This function uses a non-reentrant model
  7256+                          ; 
  7257+                                  psect   text27,class=CODE,space=0,reloc=
      +                          2
  7258+                          
  7259+                          	opt lm
  7260+                          	file	"main.c"
  7261+                          	line	808
  7262+ 000000                     	__size_of_calc_err	equ	__end_of_calc_err-_calc_
      +                          err
  7263+                          ;main.c: 807: float calc_err(void)
  7264+                          ;main.c: 808: {
  7265+                          	
  7266+ 00435A                     _calc_err:		; BSR set to: ?
  7267+                          
  7268+                          	opt stack 24
  7269+                          	line	817
  7270+                          ;main.c: 809: float error;
  7271+                          ;main.c: 817: error=set_temperature-cur_temperat
      +                          ure;
  7272+ 00435A  C02E F231          	movff	(c:46),0+(?___ftsub+03h)
  7273+ 00435E  C02F F232          	movff	(c:46+1),1+(?___ftsub+03h)
  7274+ 004362  C030 F233          	movff	(c:46+2),2+(?___ftsub+03h)
  7275+ 004366  C000 F22E          	movff	(c:0),(?___ftsub)
  7276+ 00436A  C001 F22F          	movff	(c:0+1),(?___ftsub+1)
  7277+ 00436E  C002 F230          	movff	(c:0+2),(?___ftsub+2)
  7278+ 004372  EC6B  F021         	call	___ftsub	;wreg free
  7279+ 004376  C22E  F216         	movff	0+?___ftsub,(calc_err@error)
  7280+ 00437A  C22F  F217         	movff	1+?___ftsub,(calc_err@error+1)
  7281+ 00437E  C230  F218         	movff	2+?___ftsub,(calc_err@error+2)
  7282+                          	line	818
  7283+ 004382  C216  F213         	movff	(calc_err@error),(?_calc_err)
  7284+ 004386  C217  F214         	movff	(calc_err@error+1),(?_calc_err+1)
  7285+ 00438A  C218  F215         	movff	(calc_err@error+2),(?_calc_err+2)
  7286+ 00438E  EFC9  F021         	goto	l237
  7287+                          	line	820
  7288+                          ;main.c: 820: }
  7289+ 004392                     l237:
  7290+                          			; BSR set to: ?
  7291+                          
  7292+ 004392  0012               	return
  7293+                          	opt stack 0
  7294+                          GLOBAL __end_of_calc_err
  7295+ 004394                     	__end_of_calc_err:
  7296+                          	FNSIZE	_calc_err,3,3
  7297+                          ; =============== function _calc_err ends ======
      +                          ======
  7298+                          
  7299+                          	signat	_calc_err,91
  7300+                          	global	_DelayMs
  7301+                          	global	??_DelayMs
  7302+                          	global	?_DelayMs
  7303+                          
  7304+                          ; *************** function _DelayMs ************
      +                          *****
  7305+                          ; Defined at:
  7306+                          ;		line 603 in file "main.c"
  7307+                          ; Parameters:
  7308+                          ;		del            size:   2offs:   0	type: int 
  7309+                          ; Auto variables:
  7310+                          ;		i           	       	type: int 
  7311+                          ;		j           	       	type: int 
  7312+                          ; Return value:
  7313+                          ;		type: void 
  7314+                          ;		size: 0
  7315+                          ; Registers used:
  7316+                          ;		wreg, status,2, status,0
  7317+                          ; Tracked objects:
  7318+                          ;		On entry : 0/0
  7319+                          ;		On exit  : 0/0
  7320+                          ;		Unchanged: 0/0
  7321+                          ; Data sizes:
  7322+                          ;		Autos:    4
  7323+                          ;		Params:   2
  7324+                          ;		Temp:     1
  7325+                          ;		Total:    7
  7326+                          ; This function calls:
  7327+                          ;		Nothing
  7328+                          ; This function is called by:
  7329+                          ;		_main
  7330+                          ;		_lcd_command
  7331+                          ;		_lcd_data
  7332+                          ;		_Display
  7333+                          ;		_lcd_init
  7334+                          ;		_adc_init
  7335+                          ;		_read_adc
  7336+                          ; This function uses a non-reentrant model
  7337+                          ; 
  7338+                                  psect   text28,class=CODE,space=0,reloc=
      +                          2
  7339+                          
  7340+                          	opt lm
  7341+                          	file	"main.c"
  7342+                          	line	603
  7343+ 000000                     	__size_of_DelayMs	equ	__end_of_DelayMs-_DelayMs
  7344+                          ;main.c: 602: void DelayMs(int del)
  7345+                          ;main.c: 603: {
  7346+                          	
  7347+ 00404C                     _DelayMs:		; BSR set to: ?
  7348+                          
  7349+                          	opt stack 23
  7350+                          	line	605
  7351+ 00404C  0E00               	movlw	low(0)
  7352+ 00404E  0102               	movlb	2	; () banked
  7353+ 004050  0102               	movlb	2	; () banked
  7354+ 004052  6F1D               	movwf	((DelayMs@i))&0ffh
  7355+ 004054  0E00               	movlw	high(0)
  7356+ 004056  0102               	movlb	2	; () banked
  7357+ 004058  6F1E               	movwf	((DelayMs@i+1))&0ffh
  7358+ 00405A  EF5E  F020         	goto	l207
  7359+                          	line	606
  7360+                          	
  7361+ 00405E                     l204:		; BSR set to: ?
  7362+                          
  7363+                          ;main.c: 606: for(j=0;j<50;j++);
  7364+ 00405E  0E00               	movlw	low(0)
  7365+ 004060  0102               	movlb	2	; () banked
  7366+ 004062  0102               	movlb	2	; () banked
  7367+ 004064  6F1F               	movwf	((DelayMs@j))&0ffh
  7368+ 004066  0E00               	movlw	high(0)
  7369+ 004068  0102               	movlb	2	; () banked
  7370+ 00406A  6F20               	movwf	((DelayMs@j+1))&0ffh
  7371+ 00406C  0102               	movlb	2	; () banked
  7372+ 00406E  0102               	movlb	2	; () banked
  7373+ 004070  5120               	movf	((DelayMs@j+1))&0ffh,w
  7374+ 004072  0A80               	xorlw	80h
  7375+ 004074  0F80               	addlw	-((0)^80h)
  7376+ 004076  0E32               	movlw	032h
  7377+ 004078  B4D8               	btfsc	status,2
  7378+ 00407A  5D1F               	subwf	((DelayMs@j))&0ffh,w
  7379+ 00407C  A0D8               	btfss	status,0
  7380+ 00407E  EF43  F020         	goto	u4131
  7381+ 004082  EF45  F020         	goto	u4130
  7382+ 004086                     u4131:
  7383+ 004086  EF47  F020         	goto	l208
  7384+ 00408A                     u4130:
  7385+ 00408A  EF5A  F020         	goto	l209
  7386+                          	
  7387+ 00408E                     l208:		; BSR set to: ?
  7388+                          
  7389+ 00408E  0102               	movlb	2	; () banked
  7390+ 004090  0102               	movlb	2	; () banked
  7391+ 004092  4B1F               	infsnz	((DelayMs@j))&0ffh
  7392+ 004094  2B20               	incf	((DelayMs@j+1))&0ffh
  7393+ 004096  0102               	movlb	2	; () banked
  7394+ 004098  0102               	movlb	2	; () banked
  7395+ 00409A  5120               	movf	((DelayMs@j+1))&0ffh,w
  7396+ 00409C  0A80               	xorlw	80h
  7397+ 00409E  0F80               	addlw	-((0)^80h)
  7398+ 0040A0  0E32               	movlw	032h
  7399+ 0040A2  B4D8               	btfsc	status,2
  7400+ 0040A4  5D1F               	subwf	((DelayMs@j))&0ffh,w
  7401+ 0040A6  A0D8               	btfss	status,0
  7402+ 0040A8  EF58  F020         	goto	u4141
  7403+ 0040AC  EF5A  F020         	goto	u4140
  7404+ 0040B0                     u4141:
  7405+ 0040B0  EF47  F020         	goto	l208
  7406+ 0040B4                     u4140:
  7407+                          	
  7408+ 0040B4                     l209:		; BSR set to: ?
  7409+                          
  7410+                          	line	605
  7411+ 0040B4  0102               	movlb	2	; () banked
  7412+ 0040B6  0102               	movlb	2	; () banked
  7413+ 0040B8  4B1D               	infsnz	((DelayMs@i))&0ffh
  7414+ 0040BA  2B1E               	incf	((DelayMs@i+1))&0ffh
  7415+                          	
  7416+ 0040BC                     l207:		; BSR set to: ?
  7417+                          
  7418+ 0040BC  0102               	movlb	2	; () banked
  7419+ 0040BE  0102               	movlb	2	; () banked
  7420+ 0040C0  511E               	movf	((DelayMs@i+1))&0ffh,w
  7421+ 0040C2  0A80               	xorlw	80h
  7422+ 0040C4  0102               	movlb	2	; () banked
  7423+ 0040C6  6F21               	movwf	(??_DelayMs+4+0)&0ffh
  7424+ 0040C8  0102               	movlb	2	; () banked
  7425+ 0040CA  511B               	movf	((DelayMs@del))&0ffh,w
  7426+ 0040CC  0102               	movlb	2	; () banked
  7427+ 0040CE  0102               	movlb	2	; () banked
  7428+ 0040D0  5D1D               	subwf	((DelayMs@i))&0ffh,w
  7429+ 0040D2  0102               	movlb	2	; () banked
  7430+ 0040D4  0102               	movlb	2	; () banked
  7431+ 0040D6  511C               	movf	((DelayMs@del+1))&0ffh,w
  7432+ 0040D8  0A80               	xorlw	80h
  7433+ 0040DA  0102               	movlb	2	; () banked
  7434+ 0040DC  5921               	subwfb	(??_DelayMs+4+0)&0ffh,w
  7435+ 0040DE  A0D8               	btfss	status,0
  7436+ 0040E0  EF74  F020         	goto	u4151
  7437+ 0040E4  EF76  F020         	goto	u4150
  7438+ 0040E8                     u4151:
  7439+ 0040E8  EF2F  F020         	goto	l204
  7440+ 0040EC                     u4150:
  7441+                          	
  7442+ 0040EC                     l205:		; BSR set to: ?
  7443+                          
  7444+                          	line	607
  7445+                          ;main.c: 607: }
  7446+ 0040EC                     l203:
  7447+                          			; BSR set to: ?
  7448+                          
  7449+ 0040EC  0012               	return
  7450+                          	opt stack 0
  7451+                          GLOBAL __end_of_DelayMs
  7452+ 0040EE                     	__end_of_DelayMs:
  7453+                          	FNSIZE	_DelayMs,5,2
  7454+                          ; =============== function _DelayMs ends =======
      +                          =====
  7455+                          
  7456+                          	signat	_DelayMs,4216
  7457+                          	global	___ftsub
  7458+                          	global	??___ftsub
  7459+                          	global	?___ftsub
  7460+                          
  7461+                          ; *************** function ___ftsub ************
      +                          *****
  7462+                          ; Defined at:
  7463+                          ;		line 17 in file "C:\Program Files\HI-TECH Sof
      +                          tware\PICC-18\PRO\9.65\sources\ftsub.c"
  7464+                          ; Parameters:
  7465+                          ;		f1             size:   3offs:   0	type: float
      +                           
  7466+                          ;		f2             size:   3offs:   3	type: float
      +                           
  7467+                          ; Auto variables:
  7468+                          ;		None
  7469+                          ; Return value:
  7470+                          ;		type: float 
  7471+                          ;		size: 3
  7472+                          ; Registers used:
  7473+                          ;		wreg, fsr0l, fsr0h, status,2, status,0, cstac
      +                          k
  7474+                          ; Tracked objects:
  7475+                          ;		On entry : 0/0
  7476+                          ;		On exit  : 0/0
  7477+                          ;		Unchanged: 0/0
  7478+                          ; Data sizes:
  7479+                          ;		Autos:    0
  7480+                          ;		Params:   6
  7481+                          ;		Temp:     0
  7482+                          ;		Total:    6
  7483+                          ; This function calls:
  7484+                          ;		___ftadd
  7485+                          ; This function is called by:
  7486+                          ;		_actual
  7487+                          ;		_calc_err
  7488+                          ; This function uses a non-reentrant model
  7489+                          ; 
  7490+                                  psect   text29,class=CODE,space=0,reloc=
      +                          2
  7491+                          
  7492+                          	opt lm
  7493+                          	file	"C:\Program Files\HI-TECH Software\PICC-18
      +                          \PRO\9.65\sources\ftsub.c"
  7494+                          	line	17
  7495+ 000000                     	__size_of___ftsub	equ	__end_of___ftsub-___ftsub
  7496+                          	
  7497+ 0042D6                     ___ftsub:		; BSR set to: ?
  7498+                          
  7499+                          	opt stack 23
  7500+                          	line	18
  7501+ 0042D6  0E00               	movlw	low(0800000h)
  7502+ 0042D8  0102               	movlb	2	; () banked
  7503+ 0042DA  0102               	movlb	2	; () banked
  7504+ 0042DC  1B31               	xorwf	((___ftsub@f2))&0ffh
  7505+ 0042DE  0E00               	movlw	high(0800000h)
  7506+ 0042E0  0102               	movlb	2	; () banked
  7507+ 0042E2  0102               	movlb	2	; () banked
  7508+ 0042E4  1B32               	xorwf	((___ftsub@f2+1))&0ffh
  7509+ 0042E6  0E80               	movlw	low highword(0800000h)
  7510+ 0042E8  0102               	movlb	2	; () banked
  7511+ 0042EA  0102               	movlb	2	; () banked
  7512+ 0042EC  1B33               	xorwf	((___ftsub@f2+2))&0ffh
  7513+                          
  7514+                          	line	19
  7515+ 0042EE  C231  F237         	movff	(___ftsub@f2),0+(?___ftadd+03h)
  7516+ 0042F2  C232  F238         	movff	(___ftsub@f2+1),1+(?___ftadd+03h)
  7517+ 0042F6  C233  F239         	movff	(___ftsub@f2+2),2+(?___ftadd+03h)
  7518+ 0042FA  C22E  F234         	movff	(___ftsub@f1),(?___ftadd)
  7519+ 0042FE  C22F  F235         	movff	(___ftsub@f1+1),(?___ftadd+1)
  7520+ 004302  C230  F236         	movff	(___ftsub@f1+2),(?___ftadd+2)
  7521+ 004306  EC5E  F00F         	call	___ftadd	;wreg free
  7522+ 00430A  C234  F22E         	movff	0+?___ftadd,(?___ftsub)
  7523+ 00430E  C235  F22F         	movff	1+?___ftadd,(?___ftsub+1)
  7524+ 004312  C236  F230         	movff	2+?___ftadd,(?___ftsub+2)
  7525+ 004316  EF8D  F021         	goto	l498
  7526+                          	line	20
  7527+ 00431A                     l498:
  7528+                          			; BSR set to: ?
  7529+                          
  7530+ 00431A  0012               	return
  7531+                          	opt stack 0
  7532+                          GLOBAL __end_of___ftsub
  7533+ 00431C                     	__end_of___ftsub:
  7534+                          	FNSIZE	___ftsub,0,6
  7535+                          ; =============== function ___ftsub ends =======
      +                          =====
  7536+                          
  7537+                          	signat	___ftsub,8315
  7538+                          	global	___ftadd
  7539+                          	global	??___ftadd
  7540+                          	global	?___ftadd
  7541+                          
  7542+                          ; *************** function ___ftadd ************
      +                          *****
  7543+                          ; Defined at:
  7544+                          ;		line 17 in file "C:\Program Files\HI-TECH Sof
      +                          tware\PICC-18\PRO\9.65\sources\ftadd.c"
  7545+                          ; Parameters:
  7546+                          ;		f1             size:   3offs:   0	type: float
      +                           
  7547+                          ;		f2             size:   3offs:   3	type: float
      +                           
  7548+                          ; Auto variables:
  7549+                          ;		sign2       	       	type: unsigned char 
  7550+                          ;		cntr        	       	type: unsigned char 
  7551+                          ;		sign1       	       	type: unsigned char 
  7552+                          ;		exp2        	       	type: unsigned char 
  7553+                          ;		exp1        	       	type: unsigned char 
  7554+                          ; Return value:
  7555+                          ;		type: float 
  7556+                          ;		size: 3
  7557+                          ; Registers used:
  7558+                          ;		wreg, fsr0l, fsr0h, status,2, status,0, cstac
      +                          k
  7559+                          ; Tracked objects:
  7560+                          ;		On entry : 0/0
  7561+                          ;		On exit  : 0/0
  7562+                          ;		Unchanged: 0/0
  7563+                          ; Data sizes:
  7564+                          ;		Autos:    5
  7565+                          ;		Params:   6
  7566+                          ;		Temp:     1
  7567+                          ;		Total:   12
  7568+                          ; This function calls:
  7569+                          ;		___ftunpack
  7570+                          ;		___ftpack
  7571+                          ; This function is called by:
  7572+                          ;		_actual
  7573+                          ;		_pid
  7574+                          ;		___asftadd
  7575+                          ;		___ftsub
  7576+                          ; This function uses a non-reentrant model
  7577+                          ; 
  7578+                                  psect   text30,class=CODE,space=0,reloc=
      +                          2
  7579+                          
  7580+                          	opt lm
  7581+                          	file	"C:\Program Files\HI-TECH Software\PICC-18
      +                          \PRO\9.65\sources\ftadd.c"
  7582+                          	line	17
  7583+ 000000                     	__size_of___ftadd	equ	__end_of___ftadd-___ftadd
  7584+                          	
  7585+ 001EBC                     ___ftadd:		; BSR set to: ?
  7586+                          
  7587+                          	opt stack 22
  7588+                          	line	20
  7589+ 001EBC  EF60  F00F         	goto	l450
  7590+                          	line	21
  7591+                          	
  7592+ 001EC0                     l450:		; BSR set to: ?
  7593+                          
  7594+                          	line	22
  7595+ 001EC0  0102               	movlb	2	; () banked
  7596+ 001EC2  0E3E               	movlw	low(___ftadd@exp1)
  7597+ 001EC4  0102               	movlb	2	; () banked
  7598+ 001EC6  0102               	movlb	2	; () banked
  7599+ 001EC8  6F42               	movwf	(0+(?___ftunpack+02h))&0ffh
  7600+ 001ECA  0102               	movlb	2	; () banked
  7601+ 001ECC  0E02               	movlw	high(___ftadd@exp1)
  7602+ 001ECE  0102               	movlb	2	; () banked
  7603+ 001ED0  6F43               	movwf	(1+(?___ftunpack+02h))&0ffh
  7604+ 001ED2  0102               	movlb	2	; () banked
  7605+ 001ED4  0E34               	movlw	low(___ftadd@f1)
  7606+ 001ED6  0102               	movlb	2	; () banked
  7607+ 001ED8  0102               	movlb	2	; () banked
  7608+ 001EDA  6F40               	movwf	((?___ftunpack))&0ffh
  7609+ 001EDC  0102               	movlb	2	; () banked
  7610+ 001EDE  0E02               	movlw	high(___ftadd@f1)
  7611+ 001EE0  0102               	movlb	2	; () banked
  7612+ 001EE2  6F41               	movwf	((?___ftunpack+1))&0ffh
  7613+ 001EE4  EC6C  F01F         	call	___ftunpack	;wreg free
  7614+ 001EE8  0102               	movlb	2	; () banked
  7615+ 001EEA  0102               	movlb	2	; () banked
  7616+ 001EEC  6F3C               	movwf	((___ftadd@sign1))&0ffh
  7617+                          	line	23
  7618+ 001EEE  0102               	movlb	2	; () banked
  7619+ 001EF0  0102               	movlb	2	; () banked
  7620+ 001EF2  673E               	tstfsz	((___ftadd@exp1))&0ffh
  7621+ 001EF4  EF7E  F00F         	goto	u4161
  7622+ 001EF8  EF80  F00F         	goto	u4160
  7623+ 001EFC                     u4161:
  7624+ 001EFC  EF88  F00F         	goto	l451
  7625+ 001F00                     u4160:
  7626+                          	line	24
  7627+ 001F00  C237  F234         	movff	(___ftadd@f2),(?___ftadd)
  7628+ 001F04  C238  F235         	movff	(___ftadd@f2+1),(?___ftadd+1)
  7629+ 001F08  C239  F236         	movff	(___ftadd@f2+2),(?___ftadd+2)
  7630+ 001F0C  EF2E  F011         	goto	l449
  7631+                          	
  7632+ 001F10                     l451:		; BSR set to: ?
  7633+                          
  7634+                          	line	25
  7635+ 001F10  0102               	movlb	2	; () banked
  7636+ 001F12  0E3D               	movlw	low(___ftadd@exp2)
  7637+ 001F14  0102               	movlb	2	; () banked
  7638+ 001F16  0102               	movlb	2	; () banked
  7639+ 001F18  6F42               	movwf	(0+(?___ftunpack+02h))&0ffh
  7640+ 001F1A  0102               	movlb	2	; () banked
  7641+ 001F1C  0E02               	movlw	high(___ftadd@exp2)
  7642+ 001F1E  0102               	movlb	2	; () banked
  7643+ 001F20  6F43               	movwf	(1+(?___ftunpack+02h))&0ffh
  7644+ 001F22  0102               	movlb	2	; () banked
  7645+ 001F24  0E37               	movlw	low(___ftadd@f2)
  7646+ 001F26  0102               	movlb	2	; () banked
  7647+ 001F28  0102               	movlb	2	; () banked
  7648+ 001F2A  6F40               	movwf	((?___ftunpack))&0ffh
  7649+ 001F2C  0102               	movlb	2	; () banked
  7650+ 001F2E  0E02               	movlw	high(___ftadd@f2)
  7651+ 001F30  0102               	movlb	2	; () banked
  7652+ 001F32  6F41               	movwf	((?___ftunpack+1))&0ffh
  7653+ 001F34  EC6C  F01F         	call	___ftunpack	;wreg free
  7654+ 001F38  0102               	movlb	2	; () banked
  7655+ 001F3A  0102               	movlb	2	; () banked
  7656+ 001F3C  6F3A               	movwf	((___ftadd@sign2))&0ffh
  7657+                          	line	26
  7658+ 001F3E  0102               	movlb	2	; () banked
  7659+ 001F40  0102               	movlb	2	; () banked
  7660+ 001F42  513D               	movf	((___ftadd@exp2))&0ffh,w
  7661+ 001F44  B4D8               	btfsc	status,2
  7662+ 001F46  EFA7  F00F         	goto	u4171
  7663+ 001F4A  EFA9  F00F         	goto	u4170
  7664+ 001F4E                     u4171:
  7665+ 001F4E  EF03  F011         	goto	l452
  7666+ 001F52                     u4170:
  7667+                          	line	27
  7668+ 001F52  0102               	movlb	2	; () banked
  7669+ 001F54  6F3F               	movwf	(??___ftadd+5+0)&0ffh
  7670+ 001F56  0E06               	movlw	low(06h)
  7671+ 001F58  0102               	movlb	2	; () banked
  7672+ 001F5A  0102               	movlb	2	; () banked
  7673+ 001F5C  6F3B               	movwf	((___ftadd@cntr))&0ffh
  7674+ 001F5E  0102               	movlb	2	; () banked
  7675+ 001F60  513F               	movf	(??___ftadd+5+0)&0ffh,w
  7676+                          	line	29
  7677+ 001F62  0102               	movlb	2	; () banked
  7678+ 001F64  0102               	movlb	2	; () banked
  7679+ 001F66  513D               	movf	((___ftadd@exp2))&0ffh,w
  7680+ 001F68  0102               	movlb	2	; () banked
  7681+ 001F6A  0102               	movlb	2	; () banked
  7682+ 001F6C  613E               	cpfslt	((___ftadd@exp1))&0ffh
  7683+ 001F6E  EFBB  F00F         	goto	u4181
  7684+ 001F72  EFBD  F00F         	goto	u4180
  7685+ 001F76                     u4181:
  7686+ 001F76  EF19  F010         	goto	l453
  7687+ 001F7A                     u4180:
  7688+                          	line	30
  7689+ 001F7A  0102               	movlb	2	; () banked
  7690+ 001F7C  0102               	movlb	2	; () banked
  7691+ 001F7E  513E               	movf	((___ftadd@exp1))&0ffh,w
  7692+ 001F80  0102               	movlb	2	; () banked
  7693+ 001F82  0102               	movlb	2	; () banked
  7694+ 001F84  5D3D               	subwf	((___ftadd@exp2))&0ffh,w
  7695+ 001F86  0102               	movlb	2	; () banked
  7696+ 001F88  6F3F               	movwf	(??___ftadd+5+0)&0ffh
  7697+ 001F8A  0E19               	movlw	(019h)&0ffh
  7698+ 001F8C  0102               	movlb	2	; () banked
  7699+ 001F8E  5D3F               	subwf	((??___ftadd+5+0))&0ffh,w
  7700+ 001F90  A0D8               	btfss	status,0
  7701+ 001F92  EFCD  F00F         	goto	u4191
  7702+ 001F96  EFCF  F00F         	goto	u4190
  7703+ 001F9A                     u4191:
  7704+ 001F9A  EFE1  F00F         	goto	l458
  7705+ 001F9E                     u4190:
  7706+                          	line	32
  7707+ 001F9E  0E00               	movlw	low(0)
  7708+ 001FA0  0102               	movlb	2	; () banked
  7709+ 001FA2  0102               	movlb	2	; () banked
  7710+ 001FA4  6F34               	movwf	((___ftadd@f1))&0ffh
  7711+ 001FA6  0E00               	movlw	high(0)
  7712+ 001FA8  0102               	movlb	2	; () banked
  7713+ 001FAA  0102               	movlb	2	; () banked
  7714+ 001FAC  6F35               	movwf	((___ftadd@f1+1))&0ffh
  7715+ 001FAE  0E00               	movlw	low highword(0)
  7716+ 001FB0  0102               	movlb	2	; () banked
  7717+ 001FB2  0102               	movlb	2	; () banked
  7718+ 001FB4  6F36               	movwf	((___ftadd@f1+2))&0ffh
  7719+                          
  7720+                          	line	33
  7721+ 001FB6  C23D  F23E         	movff	(___ftadd@exp2),(___ftadd@exp1)
  7722+                          	line	34
  7723+ 001FBA  C23A  F23C         	movff	(___ftadd@sign2),(___ftadd@sign1)
  7724+                          	line	35
  7725+ 001FBE  EF17  F010         	goto	l455
  7726+                          	line	38
  7727+                          	
  7728+ 001FC2                     l458:		; BSR set to: ?
  7729+                          
  7730+                          	line	39
  7731+ 001FC2  0102               	movlb	2	; () banked
  7732+ 001FC4  90D8               	bcf	status,0
  7733+ 001FC6  0102               	movlb	2	; () banked
  7734+ 001FC8  3737               	rlcf	((___ftadd@f2))&0ffh
  7735+ 001FCA  0102               	movlb	2	; () banked
  7736+ 001FCC  3738               	rlcf	((___ftadd@f2+1))&0ffh
  7737+ 001FCE  0102               	movlb	2	; () banked
  7738+ 001FD0  3739               	rlcf	((___ftadd@f2+2))&0ffh
  7739+                          	line	40
  7740+ 001FD2  0102               	movlb	2	; () banked
  7741+ 001FD4  0102               	movlb	2	; () banked
  7742+ 001FD6  073D               	decf	((___ftadd@exp2))&0ffh
  7743+                          	line	41
  7744+ 001FD8  0102               	movlb	2	; () banked
  7745+ 001FDA  0102               	movlb	2	; () banked
  7746+ 001FDC  513D               	movf	((___ftadd@exp2))&0ffh,w
  7747+ 001FDE  0102               	movlb	2	; () banked
  7748+ 001FE0  0102               	movlb	2	; () banked
  7749+ 001FE2  193E               	xorwf	((___ftadd@exp1))&0ffh,w
  7750+ 001FE4  B4D8               	btfsc	status,2
  7751+ 001FE6  EFF7  F00F         	goto	u4201
  7752+ 001FEA  EFF9  F00F         	goto	u4200
  7753+ 001FEE                     u4201:
  7754+ 001FEE  EFFE  F00F         	goto	l457
  7755+ 001FF2                     u4200:
  7756+ 001FF2  0102               	movlb	2	; () banked
  7757+ 001FF4  0102               	movlb	2	; () banked
  7758+ 001FF6  2F3B               	decfsz	((___ftadd@cntr))&0ffh
  7759+                          	
  7760+ 001FF8  EFE1  F00F         	goto	l458
  7761+                          	
  7762+ 001FFC                     l600000481:		; BSR set to: ?
  7763+                          
  7764+                          	
  7765+ 001FFC                     l457:		; BSR set to: ?
  7766+                          
  7767+                          	line	42
  7768+ 001FFC  EF0B  F010         	goto	l459
  7769+                          	
  7770+ 002000                     l460:		; BSR set to: ?
  7771+                          
  7772+                          	line	43
  7773+ 002000  0102               	movlb	2	; () banked
  7774+ 002002  90D8               	bcf	status,0
  7775+ 002004  0102               	movlb	2	; () banked
  7776+ 002006  3336               	rrcf	((___ftadd@f1+2))&0ffh
  7777+ 002008  0102               	movlb	2	; () banked
  7778+ 00200A  3335               	rrcf	((___ftadd@f1+1))&0ffh
  7779+ 00200C  0102               	movlb	2	; () banked
  7780+ 00200E  3334               	rrcf	((___ftadd@f1))&0ffh
  7781+                          	line	44
  7782+ 002010  0102               	movlb	2	; () banked
  7783+ 002012  0102               	movlb	2	; () banked
  7784+ 002014  2B3E               	incf	((___ftadd@exp1))&0ffh
  7785+                          	line	45
  7786+                          	
  7787+ 002016                     l459:		; BSR set to: ?
  7788+                          
  7789+                          	line	42
  7790+ 002016  0102               	movlb	2	; () banked
  7791+ 002018  0102               	movlb	2	; () banked
  7792+ 00201A  513D               	movf	((___ftadd@exp2))&0ffh,w
  7793+ 00201C  0102               	movlb	2	; () banked
  7794+ 00201E  0102               	movlb	2	; () banked
  7795+ 002020  633E               	cpfseq	((___ftadd@exp1))&0ffh
  7796+ 002022  EF15  F010         	goto	u4211
  7797+ 002026  EF17  F010         	goto	u4210
  7798+ 00202A                     u4211:
  7799+ 00202A  EF00  F010         	goto	l460
  7800+ 00202E                     u4210:
  7801+                          	
  7802+ 00202E                     l461:		; BSR set to: ?
  7803+                          
  7804+                          	line	46
  7805+                          	
  7806+ 00202E                     l455:		; BSR set to: ?
  7807+                          
  7808+                          	line	47
  7809+ 00202E  EF7C  F010         	goto	l462
  7810+                          	
  7811+ 002032                     l453:		; BSR set to: ?
  7812+                          
  7813+ 002032  0102               	movlb	2	; () banked
  7814+ 002034  0102               	movlb	2	; () banked
  7815+ 002036  513E               	movf	((___ftadd@exp1))&0ffh,w
  7816+ 002038  0102               	movlb	2	; () banked
  7817+ 00203A  0102               	movlb	2	; () banked
  7818+ 00203C  193D               	xorwf	((___ftadd@exp2))&0ffh,w
  7819+ 00203E  B4D8               	btfsc	status,2
  7820+ 002040  EF24  F010         	goto	u4221
  7821+ 002044  EF26  F010         	goto	u4220
  7822+ 002048                     u4221:
  7823+ 002048  EF7C  F010         	goto	l462
  7824+ 00204C                     u4220:
  7825+                          	line	48
  7826+ 00204C  0102               	movlb	2	; () banked
  7827+ 00204E  0102               	movlb	2	; () banked
  7828+ 002050  513D               	movf	((___ftadd@exp2))&0ffh,w
  7829+ 002052  0102               	movlb	2	; () banked
  7830+ 002054  0102               	movlb	2	; () banked
  7831+ 002056  5D3E               	subwf	((___ftadd@exp1))&0ffh,w
  7832+ 002058  0102               	movlb	2	; () banked
  7833+ 00205A  6F3F               	movwf	(??___ftadd+5+0)&0ffh
  7834+ 00205C  0E19               	movlw	(019h)&0ffh
  7835+ 00205E  0102               	movlb	2	; () banked
  7836+ 002060  5D3F               	subwf	((??___ftadd+5+0))&0ffh,w
  7837+ 002062  A0D8               	btfss	status,0
  7838+ 002064  EF36  F010         	goto	u4231
  7839+ 002068  EF38  F010         	goto	u4230
  7840+ 00206C                     u4231:
  7841+ 00206C  EF46  F010         	goto	l468
  7842+ 002070                     u4230:
  7843+                          	line	49
  7844+ 002070  0E00               	movlw	low(0)
  7845+ 002072  0102               	movlb	2	; () banked
  7846+ 002074  0102               	movlb	2	; () banked
  7847+ 002076  6F37               	movwf	((___ftadd@f2))&0ffh
  7848+ 002078  0E00               	movlw	high(0)
  7849+ 00207A  0102               	movlb	2	; () banked
  7850+ 00207C  0102               	movlb	2	; () banked
  7851+ 00207E  6F38               	movwf	((___ftadd@f2+1))&0ffh
  7852+ 002080  0E00               	movlw	low highword(0)
  7853+ 002082  0102               	movlb	2	; () banked
  7854+ 002084  0102               	movlb	2	; () banked
  7855+ 002086  6F39               	movwf	((___ftadd@f2+2))&0ffh
  7856+                          
  7857+ 002088  EF7C  F010         	goto	l462
  7858+                          	line	53
  7859+                          	
  7860+ 00208C                     l468:		; BSR set to: ?
  7861+                          
  7862+                          	line	54
  7863+ 00208C  0102               	movlb	2	; () banked
  7864+ 00208E  90D8               	bcf	status,0
  7865+ 002090  0102               	movlb	2	; () banked
  7866+ 002092  3734               	rlcf	((___ftadd@f1))&0ffh
  7867+ 002094  0102               	movlb	2	; () banked
  7868+ 002096  3735               	rlcf	((___ftadd@f1+1))&0ffh
  7869+ 002098  0102               	movlb	2	; () banked
  7870+ 00209A  3736               	rlcf	((___ftadd@f1+2))&0ffh
  7871+                          	line	55
  7872+ 00209C  0102               	movlb	2	; () banked
  7873+ 00209E  0102               	movlb	2	; () banked
  7874+ 0020A0  073E               	decf	((___ftadd@exp1))&0ffh
  7875+                          	line	56
  7876+ 0020A2  0102               	movlb	2	; () banked
  7877+ 0020A4  0102               	movlb	2	; () banked
  7878+ 0020A6  513D               	movf	((___ftadd@exp2))&0ffh,w
  7879+ 0020A8  0102               	movlb	2	; () banked
  7880+ 0020AA  0102               	movlb	2	; () banked
  7881+ 0020AC  193E               	xorwf	((___ftadd@exp1))&0ffh,w
  7882+ 0020AE  B4D8               	btfsc	status,2
  7883+ 0020B0  EF5C  F010         	goto	u4241
  7884+ 0020B4  EF5E  F010         	goto	u4240
  7885+ 0020B8                     u4241:
  7886+ 0020B8  EF63  F010         	goto	l467
  7887+ 0020BC                     u4240:
  7888+ 0020BC  0102               	movlb	2	; () banked
  7889+ 0020BE  0102               	movlb	2	; () banked
  7890+ 0020C0  2F3B               	decfsz	((___ftadd@cntr))&0ffh
  7891+                          	
  7892+ 0020C2  EF46  F010         	goto	l468
  7893+                          	
  7894+ 0020C6                     l600000482:		; BSR set to: ?
  7895+                          
  7896+                          	
  7897+ 0020C6                     l467:		; BSR set to: ?
  7898+                          
  7899+                          	line	57
  7900+ 0020C6  EF70  F010         	goto	l469
  7901+                          	
  7902+ 0020CA                     l470:		; BSR set to: ?
  7903+                          
  7904+                          	line	58
  7905+ 0020CA  0102               	movlb	2	; () banked
  7906+ 0020CC  90D8               	bcf	status,0
  7907+ 0020CE  0102               	movlb	2	; () banked
  7908+ 0020D0  3339               	rrcf	((___ftadd@f2+2))&0ffh
  7909+ 0020D2  0102               	movlb	2	; () banked
  7910+ 0020D4  3338               	rrcf	((___ftadd@f2+1))&0ffh
  7911+ 0020D6  0102               	movlb	2	; () banked
  7912+ 0020D8  3337               	rrcf	((___ftadd@f2))&0ffh
  7913+                          	line	59
  7914+ 0020DA  0102               	movlb	2	; () banked
  7915+ 0020DC  0102               	movlb	2	; () banked
  7916+ 0020DE  2B3D               	incf	((___ftadd@exp2))&0ffh
  7917+                          	line	60
  7918+                          	
  7919+ 0020E0                     l469:		; BSR set to: ?
  7920+                          
  7921+                          	line	57
  7922+ 0020E0  0102               	movlb	2	; () banked
  7923+ 0020E2  0102               	movlb	2	; () banked
  7924+ 0020E4  513D               	movf	((___ftadd@exp2))&0ffh,w
  7925+ 0020E6  0102               	movlb	2	; () banked
  7926+ 0020E8  0102               	movlb	2	; () banked
  7927+ 0020EA  633E               	cpfseq	((___ftadd@exp1))&0ffh
  7928+ 0020EC  EF7A  F010         	goto	u4251
  7929+ 0020F0  EF7C  F010         	goto	u4250
  7930+ 0020F4                     u4251:
  7931+ 0020F4  EF65  F010         	goto	l470
  7932+ 0020F8                     u4250:
  7933+                          	
  7934+ 0020F8                     l471:		; BSR set to: ?
  7935+                          
  7936+                          	line	61
  7937+                          	
  7938+ 0020F8                     l465:		; BSR set to: ?
  7939+                          
  7940+                          	line	62
  7941+                          	
  7942+ 0020F8                     l463:		; BSR set to: ?
  7943+                          
  7944+                          	line	63
  7945+                          	
  7946+ 0020F8                     l462:		; BSR set to: ?
  7947+                          
  7948+ 0020F8  0102               	movlb	2	; () banked
  7949+ 0020FA  0102               	movlb	2	; () banked
  7950+ 0020FC  513C               	movf	((___ftadd@sign1))&0ffh,w
  7951+ 0020FE  B4D8               	btfsc	status,2
  7952+ 002100  EF84  F010         	goto	u4261
  7953+ 002104  EF86  F010         	goto	u4260
  7954+ 002108                     u4261:
  7955+ 002108  EF9E  F010         	goto	l472
  7956+ 00210C                     u4260:
  7957+                          	line	64
  7958+ 00210C  0EFF               	movlw	low(0FFFFFFh)
  7959+ 00210E  0102               	movlb	2	; () banked
  7960+ 002110  0102               	movlb	2	; () banked
  7961+ 002112  1B34               	xorwf	((___ftadd@f1))&0ffh
  7962+ 002114  0EFF               	movlw	high(0FFFFFFh)
  7963+ 002116  0102               	movlb	2	; () banked
  7964+ 002118  0102               	movlb	2	; () banked
  7965+ 00211A  1B35               	xorwf	((___ftadd@f1+1))&0ffh
  7966+ 00211C  0EFF               	movlw	low highword(0FFFFFFh)
  7967+ 00211E  0102               	movlb	2	; () banked
  7968+ 002120  0102               	movlb	2	; () banked
  7969+ 002122  1B36               	xorwf	((___ftadd@f1+2))&0ffh
  7970+                          
  7971+                          	line	65
  7972+ 002124  0E01               	movlw	low(01h)
  7973+ 002126  0102               	movlb	2	; () banked
  7974+ 002128  0102               	movlb	2	; () banked
  7975+ 00212A  2734               	addwf	((___ftadd@f1))&0ffh
  7976+ 00212C  0E00               	movlw	high(01h)
  7977+ 00212E  0102               	movlb	2	; () banked
  7978+ 002130  0102               	movlb	2	; () banked
  7979+ 002132  2335               	addwfc	((___ftadd@f1+1))&0ffh
  7980+ 002134  0E00               	movlw	low highword(01h)
  7981+ 002136  0102               	movlb	2	; () banked
  7982+ 002138  0102               	movlb	2	; () banked
  7983+ 00213A  2336               	addwfc	((___ftadd@f1+2))&0ffh
  7984+                          
  7985+                          	line	66
  7986+                          	
  7987+ 00213C                     l472:		; BSR set to: ?
  7988+                          
  7989+                          	line	67
  7990+ 00213C  0102               	movlb	2	; () banked
  7991+ 00213E  0102               	movlb	2	; () banked
  7992+ 002140  513A               	movf	((___ftadd@sign2))&0ffh,w
  7993+ 002142  B4D8               	btfsc	status,2
  7994+ 002144  EFA6  F010         	goto	u4271
  7995+ 002148  EFA8  F010         	goto	u4270
  7996+ 00214C                     u4271:
  7997+ 00214C  EFC0  F010         	goto	l473
  7998+ 002150                     u4270:
  7999+                          	line	68
  8000+ 002150  0EFF               	movlw	low(0FFFFFFh)
  8001+ 002152  0102               	movlb	2	; () banked
  8002+ 002154  0102               	movlb	2	; () banked
  8003+ 002156  1B37               	xorwf	((___ftadd@f2))&0ffh
  8004+ 002158  0EFF               	movlw	high(0FFFFFFh)
  8005+ 00215A  0102               	movlb	2	; () banked
  8006+ 00215C  0102               	movlb	2	; () banked
  8007+ 00215E  1B38               	xorwf	((___ftadd@f2+1))&0ffh
  8008+ 002160  0EFF               	movlw	low highword(0FFFFFFh)
  8009+ 002162  0102               	movlb	2	; () banked
  8010+ 002164  0102               	movlb	2	; () banked
  8011+ 002166  1B39               	xorwf	((___ftadd@f2+2))&0ffh
  8012+                          
  8013+                          	line	69
  8014+ 002168  0E01               	movlw	low(01h)
  8015+ 00216A  0102               	movlb	2	; () banked
  8016+ 00216C  0102               	movlb	2	; () banked
  8017+ 00216E  2737               	addwf	((___ftadd@f2))&0ffh
  8018+ 002170  0E00               	movlw	high(01h)
  8019+ 002172  0102               	movlb	2	; () banked
  8020+ 002174  0102               	movlb	2	; () banked
  8021+ 002176  2338               	addwfc	((___ftadd@f2+1))&0ffh
  8022+ 002178  0E00               	movlw	low highword(01h)
  8023+ 00217A  0102               	movlb	2	; () banked
  8024+ 00217C  0102               	movlb	2	; () banked
  8025+ 00217E  2339               	addwfc	((___ftadd@f2+2))&0ffh
  8026+                          
  8027+                          	line	70
  8028+                          	
  8029+ 002180                     l473:		; BSR set to: ?
  8030+                          
  8031+                          	line	71
  8032+ 002180  0102               	movlb	2	; () banked
  8033+ 002182  6F3F               	movwf	(??___ftadd+5+0)&0ffh
  8034+ 002184  0E00               	movlw	low(0)
  8035+ 002186  0102               	movlb	2	; () banked
  8036+ 002188  0102               	movlb	2	; () banked
  8037+ 00218A  6F3C               	movwf	((___ftadd@sign1))&0ffh
  8038+ 00218C  0102               	movlb	2	; () banked
  8039+ 00218E  513F               	movf	(??___ftadd+5+0)&0ffh,w
  8040+                          	line	72
  8041+ 002190  0102               	movlb	2	; () banked
  8042+ 002192  0102               	movlb	2	; () banked
  8043+ 002194  5137               	movf	((___ftadd@f2))&0ffh,w
  8044+ 002196  0102               	movlb	2	; () banked
  8045+ 002198  0102               	movlb	2	; () banked
  8046+ 00219A  2734               	addwf	((___ftadd@f1))&0ffh
  8047+ 00219C  0102               	movlb	2	; () banked
  8048+ 00219E  0102               	movlb	2	; () banked
  8049+ 0021A0  5138               	movf	((___ftadd@f2+1))&0ffh,w
  8050+ 0021A2  0102               	movlb	2	; () banked
  8051+ 0021A4  0102               	movlb	2	; () banked
  8052+ 0021A6  2335               	addwfc	((___ftadd@f1+1))&0ffh
  8053+ 0021A8  0102               	movlb	2	; () banked
  8054+ 0021AA  0102               	movlb	2	; () banked
  8055+ 0021AC  5139               	movf	((___ftadd@f2+2))&0ffh,w
  8056+ 0021AE  0102               	movlb	2	; () banked
  8057+ 0021B0  0102               	movlb	2	; () banked
  8058+ 0021B2  2336               	addwfc	((___ftadd@f1+2))&0ffh
  8059+                          
  8060+                          	line	73
  8061+ 0021B4  0102               	movlb	2	; () banked
  8062+                          	
  8063+ 0021B6  0102               	movlb	2	; () banked
  8064+ 0021B8  AF36               	btfss	((___ftadd@f1+2))&0ffh,(23)&7
  8065+ 0021BA  EFE1  F010         	goto	u4281
  8066+ 0021BE  EFE3  F010         	goto	u4280
  8067+ 0021C2                     u4281:
  8068+ 0021C2  EF03  F011         	goto	l452
  8069+ 0021C6                     u4280:
  8070+                          	line	74
  8071+ 0021C6  0EFF               	movlw	low(0FFFFFFh)
  8072+ 0021C8  0102               	movlb	2	; () banked
  8073+ 0021CA  0102               	movlb	2	; () banked
  8074+ 0021CC  1B34               	xorwf	((___ftadd@f1))&0ffh
  8075+ 0021CE  0EFF               	movlw	high(0FFFFFFh)
  8076+ 0021D0  0102               	movlb	2	; () banked
  8077+ 0021D2  0102               	movlb	2	; () banked
  8078+ 0021D4  1B35               	xorwf	((___ftadd@f1+1))&0ffh
  8079+ 0021D6  0EFF               	movlw	low highword(0FFFFFFh)
  8080+ 0021D8  0102               	movlb	2	; () banked
  8081+ 0021DA  0102               	movlb	2	; () banked
  8082+ 0021DC  1B36               	xorwf	((___ftadd@f1+2))&0ffh
  8083+                          
  8084+                          	line	75
  8085+ 0021DE  0E01               	movlw	low(01h)
  8086+ 0021E0  0102               	movlb	2	; () banked
  8087+ 0021E2  0102               	movlb	2	; () banked
  8088+ 0021E4  2734               	addwf	((___ftadd@f1))&0ffh
  8089+ 0021E6  0E00               	movlw	high(01h)
  8090+ 0021E8  0102               	movlb	2	; () banked
  8091+ 0021EA  0102               	movlb	2	; () banked
  8092+ 0021EC  2335               	addwfc	((___ftadd@f1+1))&0ffh
  8093+ 0021EE  0E00               	movlw	low highword(01h)
  8094+ 0021F0  0102               	movlb	2	; () banked
  8095+ 0021F2  0102               	movlb	2	; () banked
  8096+ 0021F4  2336               	addwfc	((___ftadd@f1+2))&0ffh
  8097+                          
  8098+                          	line	76
  8099+ 0021F6  0102               	movlb	2	; () banked
  8100+ 0021F8  6F3F               	movwf	(??___ftadd+5+0)&0ffh
  8101+ 0021FA  0E01               	movlw	low(01h)
  8102+ 0021FC  0102               	movlb	2	; () banked
  8103+ 0021FE  0102               	movlb	2	; () banked
  8104+ 002200  6F3C               	movwf	((___ftadd@sign1))&0ffh
  8105+ 002202  0102               	movlb	2	; () banked
  8106+ 002204  513F               	movf	(??___ftadd+5+0)&0ffh,w
  8107+                          	line	77
  8108+                          	
  8109+ 002206                     l474:		; BSR set to: ?
  8110+                          
  8111+                          	line	78
  8112+                          	
  8113+ 002206                     l452:		; BSR set to: ?
  8114+                          
  8115+                          	line	79
  8116+ 002206  C23E  F242         	movff	(___ftadd@exp1),0+(?___ftpack+02h)
  8117+ 00220A  0102               	movlb	2	; () banked
  8118+ 00220C  0E34               	movlw	low(___ftadd@f1)
  8119+ 00220E  0102               	movlb	2	; () banked
  8120+ 002210  0102               	movlb	2	; () banked
  8121+ 002212  6F40               	movwf	((?___ftpack))&0ffh
  8122+ 002214  0102               	movlb	2	; () banked
  8123+ 002216  0E02               	movlw	high(___ftadd@f1)
  8124+ 002218  0102               	movlb	2	; () banked
  8125+ 00221A  6F41               	movwf	((?___ftpack+1))&0ffh
  8126+ 00221C  EC9F  F018         	call	___ftpack	;wreg free
  8127+                          	line	80
  8128+ 002220  0102               	movlb	2	; () banked
  8129+ 002222  0102               	movlb	2	; () banked
  8130+ 002224  513C               	movf	((___ftadd@sign1))&0ffh,w
  8131+ 002226  B4D8               	btfsc	status,2
  8132+ 002228  EF18  F011         	goto	u4291
  8133+ 00222C  EF1A  F011         	goto	u4290
  8134+ 002230                     u4291:
  8135+ 002230  EF26  F011         	goto	l475
  8136+ 002234                     u4290:
  8137+                          	line	81
  8138+ 002234  0E00               	movlw	low(0800000h)
  8139+ 002236  0102               	movlb	2	; () banked
  8140+ 002238  0102               	movlb	2	; () banked
  8141+ 00223A  1B34               	xorwf	((___ftadd@f1))&0ffh
  8142+ 00223C  0E00               	movlw	high(0800000h)
  8143+ 00223E  0102               	movlb	2	; () banked
  8144+ 002240  0102               	movlb	2	; () banked
  8145+ 002242  1B35               	xorwf	((___ftadd@f1+1))&0ffh
  8146+ 002244  0E80               	movlw	low highword(0800000h)
  8147+ 002246  0102               	movlb	2	; () banked
  8148+ 002248  0102               	movlb	2	; () banked
  8149+ 00224A  1B36               	xorwf	((___ftadd@f1+2))&0ffh
  8150+                          
  8151+                          	
  8152+ 00224C                     l475:		; BSR set to: ?
  8153+                          
  8154+                          	line	82
  8155+ 00224C  C234  F234         	movff	(___ftadd@f1),(?___ftadd)
  8156+ 002250  C235  F235         	movff	(___ftadd@f1+1),(?___ftadd+1)
  8157+ 002254  C236  F236         	movff	(___ftadd@f1+2),(?___ftadd+2)
  8158+ 002258  EF2E  F011         	goto	l449
  8159+                          	line	83
  8160+ 00225C                     l449:
  8161+                          			; BSR set to: ?
  8162+                          
  8163+ 00225C  0012               	return
  8164+                          	opt stack 0
  8165+                          GLOBAL __end_of___ftadd
  8166+ 00225E                     	__end_of___ftadd:
  8167+                          	FNSIZE	___ftadd,6,6
  8168+                          ; =============== function ___ftadd ends =======
      +                          =====
  8169+                          
  8170+                          	signat	___ftadd,8315
  8171+                          	global	___ftunpack
  8172+                          	global	??___ftunpack
  8173+                          	global	?___ftunpack
  8174+                          
  8175+                          ; *************** function ___ftunpack *********
      +                          ********
  8176+                          ; Defined at:
  8177+                          ;		line 13 in file "C:\Program Files\HI-TECH Sof
      +                          tware\PICC-18\PRO\9.65\sources\float.c"
  8178+                          ; Parameters:
  8179+                          ;		arg            size:   2offs:   0	type: PTR u
      +                          nsigned um; Largest target is 3
  8180+                          ;		 -> __fttol@f1(3), __ftmul@f2(3), __ftmul@f1(
      +                          3), __ftdiv@f2(3), 
  8181+                          ;		 -> __ftdiv@f1(3), __ftadd@f2(3), __ftadd@f1(
      +                          3), 
  8182+                          ;		exp            size:   2offs:   2	type: PTR u
      +                          nsigned char ; Largest target is 1
  8183+                          ;		 -> __fttol@exp1(1), __ftmul@cntr(1), __ftmul
      +                          @exp1(1), __ftdiv@exp2(1), 
  8184+                          ;		 -> __ftdiv@exp1(1), __ftadd@exp2(1), __ftadd
      +                          @exp1(1), 
  8185+                          ; Auto variables:
  8186+                          ;		sign        	       	type: unsigned char 
  8187+                          ; Return value:
  8188+                          ;		type: unsigned char 
  8189+                          ;		size: 1
  8190+                          ; Registers used:
  8191+                          ;		wreg, fsr0l, fsr0h, status,2, status,0
  8192+                          ; Tracked objects:
  8193+                          ;		On entry : 0/0
  8194+                          ;		On exit  : 0/0
  8195+                          ;		Unchanged: 0/0
  8196+                          ; Data sizes:
  8197+                          ;		Autos:    1
  8198+                          ;		Params:   4
  8199+                          ;		Temp:     3
  8200+                          ;		Total:    8
  8201+                          ; This function calls:
  8202+                          ;		Nothing
  8203+                          ; This function is called by:
  8204+                          ;		___ftadd
  8205+                          ;		___ftdiv
  8206+                          ;		___ftmul
  8207+                          ;		___fttol
  8208+                          ; This function uses a non-reentrant model
  8209+                          ; 
  8210+                                  psect   text31,class=CODE,space=0,reloc=
      +                          2
  8211+                          
  8212+                          	opt lm
  8213+                          	file	"C:\Program Files\HI-TECH Software\PICC-18
      +                          \PRO\9.65\sources\float.c"
  8214+                          	line	13
  8215+ 000000                     	__size_of___ftunpack	equ	__end_of___ftunpack-__
      +                          _ftunpack
  8216+                          	
  8217+ 003ED8                     ___ftunpack:		; BSR set to: ?
  8218+                          
  8219+                          	opt stack 21
  8220+                          	line	16
  8221+ 003ED8  C240  FFE9         	movff	(___ftunpack@arg),fsr0l
  8222+ 003EDC  C241  FFEA         	movff	(___ftunpack@arg+1),fsr0h
  8223+ 003EE0  0E01               	movlw	1
  8224+ 003EE2  34EB               	rlcf	plusw0,w
  8225+ 003EE4  0E02               	movlw	2
  8226+ 003EE6  34EB               	rlcf	plusw0,w
  8227+                          
  8228+ 003EE8  0102               	movlb	2	; () banked
  8229+ 003EEA  0102               	movlb	2	; () banked
  8230+ 003EEC  6F44               	movwf	((___ftunpack@sign))&0ffh
  8231+ 003EEE  C242  FFE9         	movff	(___ftunpack@exp),fsr0l
  8232+ 003EF2  C243  FFEA         	movff	(___ftunpack@exp+1),fsr0h
  8233+ 003EF6  0102               	movlb	2	; () banked
  8234+ 003EF8  C244  FFEF         	movff	(___ftunpack@sign),indf0
  8235+                          
  8236+                          	line	17
  8237+ 003EFC  0102               	movlb	2	; () banked
  8238+ 003EFE  0102               	movlb	2	; () banked
  8239+ 003F00  6744               	tstfsz	((___ftunpack@sign))&0ffh
  8240+ 003F02  EF85  F01F         	goto	u4341
  8241+ 003F06  EF87  F01F         	goto	u4340
  8242+ 003F0A                     u4341:
  8243+ 003F0A  EF95  F01F         	goto	l421
  8244+ 003F0E                     u4340:
  8245+                          	line	18
  8246+ 003F0E  C240  FFE9         	movff	(___ftunpack@arg),fsr0l
  8247+ 003F12  C241  FFEA         	movff	(___ftunpack@arg+1),fsr0h
  8248+ 003F16  0E00               	movlw	low(0)
  8249+ 003F18  6EEE               	movwf	postinc0
  8250+ 003F1A  0E00               	movlw	high(0)
  8251+ 003F1C  6EEE               	movwf	postinc0
  8252+ 003F1E  0E00               	movlw	low highword(0)
  8253+ 003F20  6EED               	movwf	postdec0
  8254+ 003F22  52ED               	movf	postdec0
  8255+                          	line	19
  8256+ 003F24  0E00               	movlw	(0)&0ffh
  8257+ 003F26  EFC8  F01F         	goto	l420
  8258+                          	line	20
  8259+                          	
  8260+ 003F2A                     l421:		; BSR set to: ?
  8261+                          
  8262+                          	line	21
  8263+ 003F2A  0102               	movlb	2	; () banked
  8264+ 003F2C  6F45               	movwf	(??___ftunpack+1+0)&0ffh
  8265+ 003F2E  0E00               	movlw	low(0)
  8266+ 003F30  0102               	movlb	2	; () banked
  8267+ 003F32  0102               	movlb	2	; () banked
  8268+ 003F34  6F44               	movwf	((___ftunpack@sign))&0ffh
  8269+ 003F36  0102               	movlb	2	; () banked
  8270+ 003F38  5145               	movf	(??___ftunpack+1+0)&0ffh,w
  8271+                          	line	22
  8272+ 003F3A  C240  FFE9         	movff	(___ftunpack@arg),fsr0l
  8273+ 003F3E  C241  FFEA         	movff	(___ftunpack@arg+1),fsr0h
  8274+ 003F42  0E01               	movlw	0+(15/8)
  8275+ 003F44  8EEB               	bsf	plusw0,(15)&7
  8276+                          	line	23
  8277+ 003F46  C240  FFE9         	movff	(___ftunpack@arg),fsr0l
  8278+ 003F4A  C241  FFEA         	movff	(___ftunpack@arg+1),fsr0h
  8279+ 003F4E  CFEE F245          	movff	postinc0,??___ftunpack+1+0
  8280+ 003F52  CFEE F246          	movff	postinc0,??___ftunpack+1+0+1
  8281+ 003F56  CFEE F247          	movff	postinc0,??___ftunpack+1+0+2
  8282+ 003F5A  0102               	movlb	2	; () banked
  8283+                          	
  8284+ 003F5C  AF47               	btfss	(??___ftunpack+1+2)&0ffh,(23)&7
  8285+ 003F5E  EFB3  F01F         	goto	u4351
  8286+ 003F62  EFB5  F01F         	goto	u4350
  8287+ 003F66                     u4351:
  8288+ 003F66  EFB8  F01F         	goto	l422
  8289+ 003F6A                     u4350:
  8290+                          	line	24
  8291+ 003F6A  0102               	movlb	2	; () banked
  8292+ 003F6C  0102               	movlb	2	; () banked
  8293+ 003F6E  2B44               	incf	((___ftunpack@sign))&0ffh
  8294+                          	
  8295+ 003F70                     l422:		; BSR set to: ?
  8296+                          
  8297+                          	line	25
  8298+ 003F70  C240  FFE9         	movff	(___ftunpack@arg),fsr0l
  8299+ 003F74  C241  FFEA         	movff	(___ftunpack@arg+1),fsr0h
  8300+ 003F78  0EFF               	movlw	low(0FFFFh)
  8301+ 003F7A  16EE               	andwf	postinc0
  8302+ 003F7C  0EFF               	movlw	high(0FFFFh)
  8303+ 003F7E  16EE               	andwf	postinc0
  8304+ 003F80  0E00               	movlw	low highword(0FFFFh)
  8305+ 003F82  16ED               	andwf	postdec0
  8306+ 003F84  52ED               	movf	postdec0
  8307+                          	line	26
  8308+ 003F86  0102               	movlb	2	; () banked
  8309+ 003F88  0102               	movlb	2	; () banked
  8310+ 003F8A  5144               	movf	((___ftunpack@sign))&0ffh,w
  8311+ 003F8C  EFC8  F01F         	goto	l420
  8312+                          	line	27
  8313+ 003F90                     l420:
  8314+                          			; BSR set to: ?
  8315+                          
  8316+ 003F90  0012               	return
  8317+                          	opt stack 0
  8318+                          GLOBAL __end_of___ftunpack
  8319+ 003F92                     	__end_of___ftunpack:
  8320+                          	FNSIZE	___ftunpack,4,4
  8321+                          ; =============== function ___ftunpack ends ====
      +                          ========
  8322+                          
  8323+                          	signat	___ftunpack,8313
  8324+                          	global	___ftpack
  8325+                          	global	??___ftpack
  8326+                          	global	?___ftpack
  8327+                          
  8328+                          ; *************** function ___ftpack ***********
      +                          ******
  8329+                          ; Defined at:
  8330+                          ;		line 33 in file "C:\Program Files\HI-TECH Sof
      +                          tware\PICC-18\PRO\9.65\sources\float.c"
  8331+                          ; Parameters:
  8332+                          ;		arg            size:   2offs:   0	type: PTR u
      +                          nsigned um; Largest target is 3
  8333+                          ;		 -> __lwtoft@f1(3), __lltoft@f1(3), __lbtoft@
      +                          f1(3), __abtoft@f1(3), 
  8334+                          ;		 -> __ftmul@f3(3), __ftdiv@f3(3), __ftadd@f1(
      +                          3), __awtoft@f1(3), 
  8335+                          ;		 -> __altoft@f1(3), 
  8336+                          ;		exp            size:   1offs:   2	type: unsig
      +                          ned char 
  8337+                          ; Auto variables:
  8338+                          ;		None
  8339+                          ; Return value:
  8340+                          ;		type: void 
  8341+                          ;		size: 0
  8342+                          ; Registers used:
  8343+                          ;		wreg, fsr0l, fsr0h, status,2, status,0
  8344+                          ; Tracked objects:
  8345+                          ;		On entry : 0/0
  8346+                          ;		On exit  : 0/0
  8347+                          ;		Unchanged: 0/0
  8348+                          ; Data sizes:
  8349+                          ;		Autos:    0
  8350+                          ;		Params:   3
  8351+                          ;		Temp:     3
  8352+                          ;		Total:    6
  8353+                          ; This function calls:
  8354+                          ;		Nothing
  8355+                          ; This function is called by:
  8356+                          ;		___awtoft
  8357+                          ;		___ftadd
  8358+                          ;		___ftdiv
  8359+                          ;		___ftmul
  8360+                          ; This function uses a non-reentrant model
  8361+                          ; 
  8362+                                  psect   text32,class=CODE,space=0,reloc=
      +                          2
  8363+                          
  8364+                          	opt lm
  8365+                          	file	"C:\Program Files\HI-TECH Software\PICC-18
      +                          \PRO\9.65\sources\float.c"
  8366+                          	line	33
  8367+ 000000                     	__size_of___ftpack	equ	__end_of___ftpack-___ftp
      +                          ack
  8368+                          	
  8369+ 00313E                     ___ftpack:		; BSR set to: ?
  8370+                          
  8371+                          	opt stack 21
  8372+                          	line	34
  8373+ 00313E  0102               	movlb	2	; () banked
  8374+ 003140  0102               	movlb	2	; () banked
  8375+ 003142  5142               	movf	((___ftpack@exp))&0ffh,w
  8376+ 003144  B4D8               	btfsc	status,2
  8377+ 003146  EFA7  F018         	goto	u4361
  8378+ 00314A  EFA9  F018         	goto	u4360
  8379+ 00314E                     u4361:
  8380+ 00314E  EFB7  F018         	goto	l600000484
  8381+ 003152                     u4360:
  8382+ 003152  C240  FFE9         	movff	(___ftpack@arg),fsr0l
  8383+ 003156  C241  FFEA         	movff	(___ftpack@arg+1),fsr0h
  8384+ 00315A  50EE               	movf	postinc0,w
  8385+ 00315C  10EE               	iorwf	postinc0,w
  8386+ 00315E  10ED               	iorwf	postdec0,w
  8387+ 003160  A4D8               	btfss	status,2
  8388+ 003162  EFB5  F018         	goto	u4371
  8389+ 003166  EFB7  F018         	goto	u4370
  8390+ 00316A                     u4371:
  8391+ 00316A  EFC4  F018         	goto	l424
  8392+ 00316E                     u4370:
  8393+                          	
  8394+ 00316E                     l600000484:		; BSR set to: ?
  8395+                          
  8396+                          	line	35
  8397+ 00316E  C240  FFE9         	movff	(___ftpack@arg),fsr0l
  8398+ 003172  C241  FFEA         	movff	(___ftpack@arg+1),fsr0h
  8399+ 003176  0E00               	movlw	low(0)
  8400+ 003178  6EEE               	movwf	postinc0
  8401+ 00317A  0E00               	movlw	high(0)
  8402+ 00317C  6EEE               	movwf	postinc0
  8403+ 00317E  0E00               	movlw	low highword(0)
  8404+ 003180  6EED               	movwf	postdec0
  8405+ 003182  52ED               	movf	postdec0
  8406+                          	line	36
  8407+ 003184  EF53  F019         	goto	l423
  8408+                          	line	37
  8409+                          	
  8410+ 003188                     l424:		; BSR set to: ?
  8411+                          
  8412+                          	line	38
  8413+ 003188  EFD3  F018         	goto	l425
  8414+                          	
  8415+ 00318C                     l426:		; BSR set to: ?
  8416+                          
  8417+                          	line	39
  8418+ 00318C  0102               	movlb	2	; () banked
  8419+ 00318E  0102               	movlb	2	; () banked
  8420+ 003190  2B42               	incf	((___ftpack@exp))&0ffh
  8421+                          	line	40
  8422+ 003192  C240  FFE9         	movff	(___ftpack@arg),fsr0l
  8423+ 003196  C241  FFEA         	movff	(___ftpack@arg+1),fsr0h
  8424+ 00319A  52EC               	movf	preinc0
  8425+ 00319C  52EC               	movf	preinc0
  8426+ 00319E  90D8               	bcf	status,0
  8427+ 0031A0  32ED               	rrcf	postdec0
  8428+ 0031A2  32ED               	rrcf	postdec0
  8429+ 0031A4  32EF               	rrcf	indf0
  8430+                          	line	41
  8431+                          	
  8432+ 0031A6                     l425:		; BSR set to: ?
  8433+                          
  8434+                          	line	38
  8435+ 0031A6  C240  FFE9         	movff	(___ftpack@arg),fsr0l
  8436+ 0031AA  C241  FFEA         	movff	(___ftpack@arg+1),fsr0h
  8437+ 0031AE  52EE               	movf	postinc0
  8438+ 0031B0  52EE               	movf	postinc0
  8439+ 0031B2  0EFE               	movlw	low highword(0FE0000h)
  8440+ 0031B4  14ED               	andwf	postdec0,w
  8441+ 0031B6  A4D8               	btfss	status,2
  8442+ 0031B8  EFE0  F018         	goto	u4381
  8443+ 0031BC  EFE2  F018         	goto	u4380
  8444+ 0031C0                     u4381:
  8445+ 0031C0  EFC6  F018         	goto	l426
  8446+ 0031C4                     u4380:
  8447+                          	
  8448+ 0031C4                     l427:		; BSR set to: ?
  8449+                          
  8450+                          	line	42
  8451+ 0031C4  EFFA  F018         	goto	l428
  8452+                          	
  8453+ 0031C8                     l429:		; BSR set to: ?
  8454+                          
  8455+                          	line	43
  8456+ 0031C8  0102               	movlb	2	; () banked
  8457+ 0031CA  0102               	movlb	2	; () banked
  8458+ 0031CC  2B42               	incf	((___ftpack@exp))&0ffh
  8459+                          	line	44
  8460+ 0031CE  C240  FFE9         	movff	(___ftpack@arg),fsr0l
  8461+ 0031D2  C241  FFEA         	movff	(___ftpack@arg+1),fsr0h
  8462+ 0031D6  2AEE               	incf	postinc0
  8463+ 0031D8  0E00               	movlw	0
  8464+ 0031DA  22EE               	addwfc	postinc0
  8465+ 0031DC  22ED               	addwfc	postdec0
  8466  0031DE  52ED               	movf	postdec0
  8467                           	line	45
  8468  0031E0  C240  FFE9         	movff	(___ftpack@arg),fsr0l
  8469  0031E4  C241  FFEA         	movff	(___ftpack@arg+1),fsr0h
  8470  0031E8  52EC               	movf	preinc0
  8471  0031EA  52EC               	movf	preinc0
  8472  0031EC  90D8               	bcf	status,0
  8473  0031EE  32ED               	rrcf	postdec0
  8474  0031F0  32ED               	rrcf	postdec0
  8475  0031F2  32EF               	rrcf	indf0
  8476                           	line	46
  8477                           	
  8478  0031F4                     l428:		; BSR set to: ?
  8479                           
  8480                           	line	42
  8481  0031F4  C240  FFE9         	movff	(___ftpack@arg),fsr0l
  8482  0031F8  C241  FFEA         	movff	(___ftpack@arg+1),fsr0h
  8483  0031FC  52EE               	movf	postinc0
  8484  0031FE  52EE               	movf	postinc0
  8485  003200  0EFF               	movlw	low highword(0FF0000h)
  8486  003202  14ED               	andwf	postdec0,w
  8487  003204  A4D8               	btfss	status,2
  8488  003206  EF07  F019         	goto	u4391
  8489  00320A  EF09  F019         	goto	u4390
  8490  00320E                     u4391:
  8491  00320E  EFE4  F018         	goto	l429
  8492  003212                     u4390:
  8493                           	
  8494  003212                     l430:		; BSR set to: ?
  8495                           
  8496                           	line	47
  8497  003212  EF17  F019         	goto	l431
  8498                           	
  8499  003216                     l432:		; BSR set to: ?
  8500                           
  8501                           	line	48
  8502  003216  0102               	movlb	2	; () banked
  8503  003218  0102               	movlb	2	; () banked
  8504  00321A  0742               	decf	((___ftpack@exp))&0ffh
  8505                           	line	49
  8506  00321C  C240  FFE9         	movff	(___ftpack@arg),fsr0l
  8507  003220  C241  FFEA         	movff	(___ftpack@arg+1),fsr0h
  8508  003224  90D8               	bcf	status,0
  8509  003226  36EE               	rlcf	postinc0
  8510  003228  36EE               	rlcf	postinc0
  8511  00322A  36ED               	rlcf	postdec0
  8512  00322C  52ED               	movf	postdec0
  8513                           	line	50
  8514                           	
  8515  00322E                     l431:		; BSR set to: ?
  8516                           
  8517                           	line	47
  8518  00322E  C240  FFE9         	movff	(___ftpack@arg),fsr0l
  8519  003232  C241  FFEA         	movff	(___ftpack@arg+1),fsr0h
  8520  003236  CFEE F243          	movff	postinc0,??___ftpack+0+0
  8521  00323A  CFEE F244          	movff	postinc0,??___ftpack+0+0+1
  8522  00323E  CFEE F245          	movff	postinc0,??___ftpack+0+0+2
  8523  003242  0102               	movlb	2	; () banked
  8524                           	
  8525  003244  AF44               	btfss	(??___ftpack+0+1)&0ffh,(15)&7
  8526  003246  EF27  F019         	goto	u4401
  8527  00324A  EF29  F019         	goto	u4400
  8528  00324E                     u4401:
  8529  00324E  EF0B  F019         	goto	l432
  8530  003252                     u4400:
  8531                           	
  8532  003252                     l433:		; BSR set to: ?
  8533                           
  8534                           	line	51
  8535  003252  0102               	movlb	2	; () banked
  8536                           	
  8537  003254  0102               	movlb	2	; () banked
  8538  003256  B142               	btfsc	((___ftpack@exp))&0ffh,(0)&7
  8539  003258  EF30  F019         	goto	u4411
  8540  00325C  EF32  F019         	goto	u4410
  8541  003260                     u4411:
  8542  003260  EF3D  F019         	goto	l434
  8543  003264                     u4410:
  8544                           	line	52
  8545  003264  C240  FFE9         	movff	(___ftpack@arg),fsr0l
  8546  003268  C241  FFEA         	movff	(___ftpack@arg+1),fsr0h
  8547  00326C  0EFF               	movlw	low(0FF7FFFh)
  8548  00326E  16EE               	andwf	postinc0
  8549  003270  0E7F               	movlw	high(0FF7FFFh)
  8550  003272  16EE               	andwf	postinc0
  8551  003274  0EFF               	movlw	low highword(0FF7FFFh)
  8552  003276  16ED               	andwf	postdec0
  8553  003278  52ED               	movf	postdec0
  8554                           	
  8555  00327A                     l434:		; BSR set to: ?
  8556                           
  8557                           	line	53
  8558  00327A  0102               	movlb	2	; () banked
  8559  00327C  90D8               	bcf status,0
  8560  00327E  3342               	rrcf	((___ftpack@exp))&0ffh
  8561                           
  8562                           	line	54
  8563  003280  0102               	movlb	2	; () banked
  8564  003282  0102               	movlb	2	; () banked
  8565  003284  5142               	movf	((___ftpack@exp))&0ffh,w
  8566  003286  0102               	movlb	2	; () banked
  8567  003288  6F45               	movwf	(??___ftpack+0+0+2)&0ffh
  8568  00328A  6B44               	clrf	(??___ftpack+0+0+1)&0ffh
  8569  00328C  6B43               	clrf	(??___ftpack+0+0)&0ffh
  8570  00328E  C240  FFE9         	movff	(___ftpack@arg),fsr0l
  8571  003292  C241  FFEA         	movff	(___ftpack@arg+1),fsr0h
  8572  003296  0102               	movlb	2	; () banked
  8573  003298  5143               	movf	(??___ftpack+0+0)&0ffh,w
  8574  00329A  12EE               	iorwf	postinc0
  8575  00329C  5144               	movf	(??___ftpack+0+1)&0ffh,w
  8576  00329E  12EE               	iorwf	postinc0
  8577  0032A0  5145               	movf	(??___ftpack+0+2)&0ffh,w
  8578  0032A2  12ED               	iorwf	postdec0
  8579  0032A4  52ED               	movf	postdec0
  8580                           	line	55
  8581  0032A6                     l423:
  8582                           			; BSR set to: ?
  8583                           
  8584  0032A6  0012               	return
  8585                           	opt stack 0
  8586                           GLOBAL __end_of___ftpack
  8587  0032A8                     	__end_of___ftpack:
  8588                           	FNSIZE	___ftpack,3,3
  8589                           ; =============== function ___ftpack ends ======
                                 ======
  8590                           
  8591                           	signat	___ftpack,8312
  8592                           	global	_timer0_isr
  8593                           	global	??_timer0_isr
  8594                           	global	?_timer0_isr
  8595                           
  8596                           ; *************** function _timer0_isr *********
                                 ********
  8597                           ; Defined at:
  8598                           ;		line 699 in file "main.c"
  8599                           ; Parameters:
  8600                           ;		None
  8601                           ; Auto variables:
  8602                           ;		None
  8603                           ; Return value:
  8604                           ;		type: void 
  8605                           ;		size: 0
  8606                           ; Registers used:
  8607                           ;		wreg, fsr0l, fsr0h, status,2, status,0, cstac
                                 k
  8608                           ; Tracked objects:
  8609                           ;		On entry : 0/0
  8610                           ;		On exit  : 0/0
  8611                           ;		Unchanged: 0/0
  8612                           ; Data sizes:
  8613                           ;		Autos:    0
  8614                           ;		Params:   0
  8615                           ;		Temp:    14
  8616                           ;		Total:   14
  8617                           ; This function calls:
  8618                           ;		___asftadd
  8619                           ; This function is called by:
  8620                           ;		Interrupt level 2
  8621                           ; This function uses a non-reentrant model
  8622                           ; 
  8623                                   psect   text33,class=CODE,space=0,reloc=
                                 2
  8624                           
  8625                           	opt lm
  8626                           	file	"main.c"
  8627                           	line	699
  8628  000000                     	__size_of_timer0_isr	equ	__end_of_timer0_isr-_t
                                 imer0_isr
  8629                           ;main.c: 698: void interrupt timer0_isr(void)
  8630                           ;main.c: 699: {
  8631                           	
  8632  003946                     _timer0_isr:		; BSR set to: ?
  8633                           
  8634  003946  0006               	pop	; remove dummy address from shadow register
                                  refresh
  8635                           
  8636                           	opt stack 31
  8637                                   psect   intcode,class=CODE,space=0,reloc
                                 =2
  8638                           	global	int_func
  8639  000008                     int_func:
  8640                                   psect   intcode
  8641  000008  CFFA F248          	movff	pclat+0,??_timer0_isr+0
  8642  00000C  CFFB F249          	movff	pclat+1,??_timer0_isr+1
  8643  000010  CFE9 F24A          	movff	fsr0l+0,??_timer0_isr+2
  8644  000014  EDA3  F01C         	call	_timer0_isr,f	;refresh shadow registers
  8645                                   psect   text33
  8646  003948  CFEA F24B          	movff	fsr0h+0,??_timer0_isr+3
  8647  00394C  CFE1 F24C          	movff	fsr1l+0,??_timer0_isr+4
  8648  003950  CFE2 F24D          	movff	fsr1h+0,??_timer0_isr+5
  8649  003954  CFD9 F24E          	movff	fsr2l+0,??_timer0_isr+6
  8650  003958  CFDA F24F          	movff	fsr2h+0,??_timer0_isr+7
  8651  00395C  CFF3 F250          	movff	prodl+0,??_timer0_isr+8
  8652  003960  CFF4 F251          	movff	prodh+0,??_timer0_isr+9
  8653  003964  CFF6 F252          	movff	tblptrl+0,??_timer0_isr+10
  8654  003968  CFF7 F253          	movff	tblptrh+0,??_timer0_isr+11
  8655  00396C  CFF8 F254          	movff	tblptru+0,??_timer0_isr+12
  8656  003970  CFF5 F255          	movff	tablat+0,??_timer0_isr+13
  8657                           	line	700
  8658  003974  AAF2               	btfss	c:(32661/8),(32661)&7
  8659  003976  EFBF  F01C         	goto	i2u4301
  8660  00397A  EFC1  F01C         	goto	i2u4300
  8661  00397E                     i2u4301:
  8662  00397E  EF13  F01D         	goto	i2l223
  8663  003982                     i2u4300:
  8664  003982  A4F2               	btfss	c:(32658/8),(32658)&7	;volatile
  8665  003984  EFC6  F01C         	goto	i2u4311
  8666  003988  EFC8  F01C         	goto	i2u4310
  8667  00398C                     i2u4311:
  8668  00398C  EF13  F01D         	goto	i2l223
  8669  003990                     i2u4310:
  8670                           	line	702
  8671                           ;main.c: 701: {
  8672                           ;main.c: 702: TMR0IF=0;
  8673  003990  94F2               	bcf	c:(32658/8),(32658)&7	;volatile
  8674                           	line	703
  8675                           ;main.c: 703: TMR0H=0XF8;
  8676  003992  0EF8               	movlw	low(0F8h)
  8677  003994  6ED7               	movwf	((c:4055)),c	;volatile
  8678                           	line	704
  8679                           ;main.c: 704: TMR0L=0X30;
  8680  003996  0E30               	movlw	low(030h)
  8681  003998  6ED6               	movwf	((c:4054)),c	;volatile
  8682                           	line	705
  8683                           ;main.c: 705: count++;
  8684  00399A  4A44               	infsnz	((c:68)),c
  8685  00399C  2A45               	incf	((c:68+1)),c
  8686                           	line	706
  8687                           ;main.c: 706: samplecount++;
  8688  00399E  0E00               	movlw	low(float24(1.0000000000000000))
  8689  0039A0  0102               	movlb	2	; () banked
  8690  0039A2  0102               	movlb	2	; () banked
  8691  0039A4  6F58               	movwf	(0+(?___asftadd+02h))&0ffh
  8692  0039A6  0E80               	movlw	high(float24(1.0000000000000000))
  8693  0039A8  0102               	movlb	2	; () banked
  8694  0039AA  0102               	movlb	2	; () banked
  8695  0039AC  6F59               	movwf	(1+(?___asftadd+02h))&0ffh
  8696  0039AE  0E3F               	movlw	low highword(float24(1.0000000000000000))
  8697  0039B0  0102               	movlb	2	; () banked
  8698  0039B2  0102               	movlb	2	; () banked
  8699  0039B4  6F5A               	movwf	(2+(?___asftadd+02h))&0ffh
  8700                           
  8701  0039B6  0E03               	movlw	low((c:3))
  8702  0039B8  0102               	movlb	2	; () banked
  8703  0039BA  0102               	movlb	2	; () banked
  8704  0039BC  6F56               	movwf	((?___asftadd))&0ffh
  8705  0039BE  0E00               	movlw	high((c:3))
  8706  0039C0  0102               	movlb	2	; () banked
  8707  0039C2  6F57               	movwf	((?___asftadd+1))&0ffh
  8708  0039C4  EC48  F021         	call	___asftadd	;wreg free
  8709                           	line	709
  8710                           ;main.c: 709: if(count==1000 )
  8711  0039C8  5045               	movf	((c:68+1)),c,w
  8712  0039CA  0A03               	xorlw	3
  8713  0039CC  0EE8               	movlw	232
  8714  0039CE  B4D8               	btfsc	status,2
  8715  0039D0  1844               	xorwf ((c:68)),c,w
  8716                           
  8717  0039D2  A4D8               	btfss	status,2
  8718  0039D4  EFEE  F01C         	goto	i2u4321
  8719  0039D8  EFF0  F01C         	goto	i2u4320
  8720  0039DC                     i2u4321:
  8721  0039DC  EF02  F01D         	goto	i2l224
  8722  0039E0                     i2u4320:
  8723                           	line	711
  8724                           ;main.c: 710: {
  8725                           ;main.c: 711: flag=1; sampleflag =0;
  8726  0039E0  0E01               	movlw	low(01h)
  8727  0039E2  6E46               	movwf	((c:70)),c
  8728  0039E4  0E00               	movlw	high(01h)
  8729  0039E6  6E47               	movwf	((c:70+1)),c
  8730  0039E8  0E00               	movlw	low(0)
  8731  0039EA  6E53               	movwf	((c:83)),c
  8732  0039EC  0E00               	movlw	high(0)
  8733  0039EE  6E54               	movwf	((c:83+1)),c
  8734                           	line	712
  8735                           ;main.c: 712: count=0;samplecount =0;
  8736  0039F0  0E00               	movlw	low(0)
  8737  0039F2  6E44               	movwf	((c:68)),c
  8738  0039F4  0E00               	movlw	high(0)
  8739  0039F6  6E45               	movwf	((c:68+1)),c
  8740  0039F8  0E00               	movlw	low(float24(0.00000000000000000))
  8741  0039FA  6E03               	movwf	((c:3)),c
  8742  0039FC  0E00               	movlw	high(float24(0.00000000000000000))
  8743  0039FE  6E04               	movwf	((c:3+1)),c
  8744  003A00  0E00               	movlw	low highword(float24(0.00000000000000000)
                                 )
  8745  003A02  6E05               	movwf	((c:3+2)),c
  8746                           
  8747                           	line	713
  8748                           	
  8749  003A04                     i2l224:		; BSR set to: ?
  8750                           
  8751                           	line	722
  8752                           ;main.c: 713: }
  8753                           ;main.c: 722: if(outint)
  8754  003A04  5027               	movf	((c:38+1)),c,w
  8755  003A06  1026               	iorwf ((c:38)),c,w
  8756                           
  8757  003A08  B4D8               	btfsc	status,2
  8758  003A0A  EF09  F01D         	goto	i2u4331
  8759  003A0E  EF0B  F01D         	goto	i2u4330
  8760  003A12                     i2u4331:
  8761  003A12  EF11  F01D         	goto	i2l225
  8762  003A16                     i2u4330:
  8763                           	line	724
  8764                           ;main.c: 723: {
  8765                           ;main.c: 724: outint--;
  8766  003A16  0626               	decf	((c:38)),c
  8767  003A18  A0D8               	btfss	status,0
  8768  003A1A  0627               	decf	((c:38+1)),c
  8769                           	line	726
  8770                           ;main.c: 726: LATD3 = 0;
  8771  003A1C  968C               	bcf	c:(31843/8),(31843)&7	;volatile
  8772                           	line	727
  8773                           ;main.c: 727: }
  8774  003A1E  EF12  F01D         	goto	i2l226
  8775                           	line	728
  8776                           	
  8777  003A22                     i2l225:		; BSR set to: ?
  8778                           
  8779                           	line	730
  8780                           ;main.c: 728: else
  8781                           ;main.c: 729: {
  8782                           ;main.c: 730: LATD3 = 1;
  8783  003A22  868C               	bsf	c:(31843/8),(31843)&7	;volatile
  8784                           	line	731
  8785                           	
  8786  003A24                     i2l226:		; BSR set to: ?
  8787                           
  8788                           	line	735
  8789                           ;main.c: 731: }
  8790                           ;main.c: 735: TMR0IF=0;
  8791  003A24  94F2               	bcf	c:(32658/8),(32658)&7	;volatile
  8792                           	line	736
  8793                           	
  8794  003A26                     i2l223:		; BSR set to: ?
  8795                           
  8796                           	line	737
  8797                           ;main.c: 736: }
  8798                           ;main.c: 737: }
  8799  003A26                     i2l222:
  8800                           			; BSR set to: ?
  8801                           
  8802  003A26  C255  FFF5         	movff	??_timer0_isr+13,tablat+0
  8803  003A2A  C254  FFF8         	movff	??_timer0_isr+12,tblptru+0
  8804  003A2E  C253  FFF7         	movff	??_timer0_isr+11,tblptrh+0
  8805  003A32  C252  FFF6         	movff	??_timer0_isr+10,tblptrl+0
  8806  003A36  C251  FFF4         	movff	??_timer0_isr+9,prodh+0
  8807  003A3A  C250  FFF3         	movff	??_timer0_isr+8,prodl+0
  8808  003A3E  C24F  FFDA         	movff	??_timer0_isr+7,fsr2h+0
  8809  003A42  C24E  FFD9         	movff	??_timer0_isr+6,fsr2l+0
  8810  003A46  C24D  FFE2         	movff	??_timer0_isr+5,fsr1h+0
  8811  003A4A  C24C  FFE1         	movff	??_timer0_isr+4,fsr1l+0
  8812  003A4E  C24B  FFEA         	movff	??_timer0_isr+3,fsr0h+0
  8813  003A52  C24A  FFE9         	movff	??_timer0_isr+2,fsr0l+0
  8814  003A56  C249  FFFB         	movff	??_timer0_isr+1,pclat+1
  8815  003A5A  C248  FFFA         	movff	??_timer0_isr+0,pclat+0
  8816  003A5E  0011               	retfie f
  8817                           	opt stack 0
  8818                           GLOBAL __end_of_timer0_isr
  8819  003A60                     	__end_of_timer0_isr:
  8820                           	FNSIZE	_timer0_isr,14,0
  8821                           ; =============== function _timer0_isr ends ====
                                 ========
  8822                           
  8823                           	signat	_timer0_isr,88
  8824                                   psect   text34,class=CODE,space=0,reloc=
                                 2
  8825                           	global	intlevel2
  8826                           
  8827                           	opt lm
  8828                           	FNBREAK ___asftadd,intlevel2
  8829                           	global	___asftadd
  8830                           	global	??___asftadd
  8831                           	global	?___asftadd
  8832                           
  8833                           ; *************** function ___asftadd **********
                                 *******
  8834                           ; Defined at:
  8835                           ;		line 5 in file "C:\Program Files\HI-TECH Soft
                                 ware\PICC-18\PRO\9.65\sources\asftadd.c"
  8836                           ; Parameters:
  8837                           ;		f1p            size:   2offs:   0	type: PTR f
                                 loat ; Largest target is 3
  8838                           ;		 -> samplecount(3), 
  8839                           ;		f2             size:   3offs:   2	type: float
                                  
  8840                           ; Auto variables:
  8841                           ;		None
  8842                           ; Return value:
  8843                           ;		type: float 
  8844                           ;		size: 3
  8845                           ; Registers used:
  8846                           ;		wreg, fsr0l, fsr0h, status,2, status,0, cstac
                                 k
  8847                           ; Tracked objects:
  8848                           ;		On entry : 0/0
  8849                           ;		On exit  : 0/0
  8850                           ;		Unchanged: 0/0
  8851                           ; Data sizes:
  8852                           ;		Autos:    0
  8853                           ;		Params:   5
  8854                           ;		Temp:     0
  8855                           ;		Total:    5
  8856                           ; This function calls:
  8857                           ;		i2___ftadd
  8858                           ; This function is called by:
  8859                           ;		_timer0_isr
  8860                           ; This function uses a non-reentrant model
  8861                           ; 
  8862                           	file	"C:\Program Files\HI-TECH Software\PICC-18
                                 \PRO\9.65\sources\asftadd.c"
  8863                           	line	5
  8864  000000                     	__size_of___asftadd	equ	__end_of___asftadd-___a
                                 sftadd
  8865                           	
  8866  004290                     ___asftadd:		; BSR set to: ?
  8867                           
  8868                           	opt stack 30
  8869                           	line	6
  8870  004290  C258  F25E         	movff	(___asftadd@f2),0+(?i2___ftadd+03h)
  8871  004294  C259  F25F         	movff	(___asftadd@f2+1),1+(?i2___ftadd+03h)
  8872  004298  C25A  F260         	movff	(___asftadd@f2+2),2+(?i2___ftadd+03h)
  8873  00429C  C256  FFE9         	movff	(___asftadd@f1p),fsr0l
  8874  0042A0  C257  FFEA         	movff	(___asftadd@f1p+1),fsr0h
  8875  0042A4  0102               	movlb	2	; () banked
  8876  0042A6  CFEE F25B          	movff	postinc0,(?i2___ftadd)
  8877  0042AA  0102               	movlb	2	; () banked
  8878  0042AC  CFEE F25C          	movff	postinc0,(?i2___ftadd+1)
  8879  0042B0  0102               	movlb	2	; () banked
  8880  0042B2  CFED F25D          	movff	postdec0,(?i2___ftadd+2)
  8881  0042B6  EC8D  F00D         	call	i2___ftadd	;wreg free
  8882  0042BA  C256  FFE9         	movff	(___asftadd@f1p),fsr0l
  8883  0042BE  C257  FFEA         	movff	(___asftadd@f1p+1),fsr0h
  8884  0042C2  C25B  FFEE         	movff	0+?i2___ftadd,postinc0
  8885  0042C6  C25C  FFEE         	movff	1+?i2___ftadd,postinc0
  8886  0042CA  C25D  FFED         	movff	2+?i2___ftadd,postdec0
  8887  0042CE  52ED               	movf	postdec0
  8888  0042D0  EF6A  F021         	goto	i2l476
  8889                           	line	7
  8890  0042D4                     i2l476:
  8891                           			; BSR set to: ?
  8892                           
  8893  0042D4  0012               	return
  8894                           	opt stack 0
  8895                           GLOBAL __end_of___asftadd
  8896  0042D6                     	__end_of___asftadd:
  8897                           	FNSIZE	___asftadd,0,5
  8898                           ; =============== function ___asftadd ends =====
                                 =======
  8899                           
  8900                           	signat	___asftadd,8315
  8901                                   psect   text35,class=CODE,space=0,reloc=
                                 2
  8902                           	global	intlevel2
  8903                           
  8904                           	opt lm
  8905                           	FNBREAK i2___ftadd,intlevel2
  8906                           	global	i2___ftadd
  8907                           	global	i2___ftadd
  8908                           	global	??i2___ftadd
  8909                           	global	?i2___ftadd
  8910                           
  8911                           ; *************** function i2___ftadd **********
                                 *******
  8912                           ; Defined at:
  8913                           ;		line 17 in file "C:\Program Files\HI-TECH Sof
                                 tware\PICC-18\PRO\9.65\sources\ftadd.c"
  8914                           ; Parameters:
  8915                           ;		f1             size:   3offs:   0	type: float
                                  
  8916                           ;		f2             size:   3offs:   3	type: float
                                  
  8917                           ; Auto variables:
  8918                           ;		sign2       	       	type: unsigned char 
  8919                           ;		cntr        	       	type: unsigned char 
  8920                           ;		sign1       	       	type: unsigned char 
  8921                           ;		exp2        	       	type: unsigned char 
  8922                           ;		exp1        	       	type: unsigned char 
  8923                           ; Return value:
  8924                           ;		type: float 
  8925                           ;		size: 3
  8926                           ; Registers used:
  8927                           ;		wreg, fsr0l, fsr0h, status,2, status,0, cstac
                                 k
  8928                           ; Tracked objects:
  8929                           ;		On entry : 0/0
  8930                           ;		On exit  : 0/0
  8931                           ;		Unchanged: 0/0
  8932                           ; Data sizes:
  8933                           ;		Autos:    5
  8934                           ;		Params:   6
  8935                           ;		Temp:     1
  8936                           ;		Total:   12
  8937                           ; This function calls:
  8938                           ;		i2___ftunpack
  8939                           ;		i2___ftpack
  8940                           ; This function is called by:
  8941                           ;		i2_actual
  8942                           ;		i2_pid
  8943                           ;		___asftadd
  8944                           ;		i2___ftsub
  8945                           ; This function uses a non-reentrant model
  8946                           ; 
  8947                           	file	"C:\Program Files\HI-TECH Software\PICC-18
                                 \PRO\9.65\sources\ftadd.c"
  8948                           	line	17
  8949  000000                     	__size_ofi2___ftadd	equ	__end_ofi2___ftadd-i2__
                                 _ftadd
  8950                           	
  8951  001B1A                     i2___ftadd:		; BSR set to: ?
  8952                           
  8953                           	opt stack 29
  8954                           	line	20
  8955  001B1A  EF8F  F00D         	goto	i2l450
  8956                           	line	21
  8957                           	
  8958  001B1E                     i2l450:		; BSR set to: ?
  8959                           
  8960                           	line	22
  8961  001B1E  0102               	movlb	2	; () banked
  8962  001B20  0E65               	movlw	low(i2___ftadd@exp1)
  8963  001B22  0102               	movlb	2	; () banked
  8964  001B24  0102               	movlb	2	; () banked
  8965  001B26  6F69               	movwf	(0+(?i2___ftunpack+02h))&0ffh
  8966  001B28  0102               	movlb	2	; () banked
  8967  001B2A  0E02               	movlw	high(i2___ftadd@exp1)
  8968  001B2C  0102               	movlb	2	; () banked
  8969  001B2E  6F6A               	movwf	(1+(?i2___ftunpack+02h))&0ffh
  8970  001B30  0102               	movlb	2	; () banked
  8971  001B32  0E5B               	movlw	low(i2___ftadd@f1)
  8972  001B34  0102               	movlb	2	; () banked
  8973  001B36  0102               	movlb	2	; () banked
  8974  001B38  6F67               	movwf	((?i2___ftunpack))&0ffh
  8975  001B3A  0102               	movlb	2	; () banked
  8976  001B3C  0E02               	movlw	high(i2___ftadd@f1)
  8977  001B3E  0102               	movlb	2	; () banked
  8978  001B40  6F68               	movwf	((?i2___ftunpack+1))&0ffh
  8979  001B42  ECC9  F01F         	call	i2___ftunpack	;wreg free
  8980  001B46  0102               	movlb	2	; () banked
  8981  001B48  0102               	movlb	2	; () banked
  8982  001B4A  6F63               	movwf	((i2___ftadd@sign1))&0ffh
  8983                           	line	23
  8984  001B4C  0102               	movlb	2	; () banked
  8985  001B4E  0102               	movlb	2	; () banked
  8986  001B50  6765               	tstfsz	((i2___ftadd@exp1))&0ffh
  8987  001B52  EFAD  F00D         	goto	i2u4161
  8988  001B56  EFAF  F00D         	goto	i2u4160
  8989  001B5A                     i2u4161:
  8990  001B5A  EFB7  F00D         	goto	i2l451
  8991  001B5E                     i2u4160:
  8992                           	line	24
  8993  001B5E  C25E  F25B         	movff	(i2___ftadd@f2),(?i2___ftadd)
  8994  001B62  C25F  F25C         	movff	(i2___ftadd@f2+1),(?i2___ftadd+1)
  8995  001B66  C260  F25D         	movff	(i2___ftadd@f2+2),(?i2___ftadd+2)
  8996  001B6A  EF5D  F00F         	goto	i2l449
  8997                           	
  8998  001B6E                     i2l451:		; BSR set to: ?
  8999                           
  9000                           	line	25
  9001  001B6E  0102               	movlb	2	; () banked
  9002  001B70  0E64               	movlw	low(i2___ftadd@exp2)
  9003  001B72  0102               	movlb	2	; () banked
  9004  001B74  0102               	movlb	2	; () banked
  9005  001B76  6F69               	movwf	(0+(?i2___ftunpack+02h))&0ffh
  9006  001B78  0102               	movlb	2	; () banked
  9007  001B7A  0E02               	movlw	high(i2___ftadd@exp2)
  9008  001B7C  0102               	movlb	2	; () banked
  9009  001B7E  6F6A               	movwf	(1+(?i2___ftunpack+02h))&0ffh
  9010  001B80  0102               	movlb	2	; () banked
  9011  001B82  0E5E               	movlw	low(i2___ftadd@f2)
  9012  001B84  0102               	movlb	2	; () banked
  9013  001B86  0102               	movlb	2	; () banked
  9014  001B88  6F67               	movwf	((?i2___ftunpack))&0ffh
  9015  001B8A  0102               	movlb	2	; () banked
  9016  001B8C  0E02               	movlw	high(i2___ftadd@f2)
  9017  001B8E  0102               	movlb	2	; () banked
  9018  001B90  6F68               	movwf	((?i2___ftunpack+1))&0ffh
  9019  001B92  ECC9  F01F         	call	i2___ftunpack	;wreg free
  9020  001B96  0102               	movlb	2	; () banked
  9021  001B98  0102               	movlb	2	; () banked
  9022  001B9A  6F61               	movwf	((i2___ftadd@sign2))&0ffh
  9023                           	line	26
  9024  001B9C  0102               	movlb	2	; () banked
  9025  001B9E  0102               	movlb	2	; () banked
  9026  001BA0  5164               	movf	((i2___ftadd@exp2))&0ffh,w
  9027  001BA2  B4D8               	btfsc	status,2
  9028  001BA4  EFD6  F00D         	goto	i2u4171
  9029  001BA8  EFD8  F00D         	goto	i2u4170
  9030  001BAC                     i2u4171:
  9031  001BAC  EF32  F00F         	goto	i2l452
  9032  001BB0                     i2u4170:
  9033                           	line	27
  9034  001BB0  0102               	movlb	2	; () banked
  9035  001BB2  6F66               	movwf	(??i2___ftadd+5+0)&0ffh
  9036  001BB4  0E06               	movlw	low(06h)
  9037  001BB6  0102               	movlb	2	; () banked
  9038  001BB8  0102               	movlb	2	; () banked
  9039  001BBA  6F62               	movwf	((i2___ftadd@cntr))&0ffh
  9040  001BBC  0102               	movlb	2	; () banked
  9041  001BBE  5166               	movf	(??i2___ftadd+5+0)&0ffh,w
  9042                           	line	29
  9043  001BC0  0102               	movlb	2	; () banked
  9044  001BC2  0102               	movlb	2	; () banked
  9045  001BC4  5164               	movf	((i2___ftadd@exp2))&0ffh,w
  9046  001BC6  0102               	movlb	2	; () banked
  9047  001BC8  0102               	movlb	2	; () banked
  9048  001BCA  6165               	cpfslt	((i2___ftadd@exp1))&0ffh
  9049  001BCC  EFEA  F00D         	goto	i2u4181
  9050  001BD0  EFEC  F00D         	goto	i2u4180
  9051  001BD4                     i2u4181:
  9052  001BD4  EF48  F00E         	goto	i2l453
  9053  001BD8                     i2u4180:
  9054                           	line	30
  9055  001BD8  0102               	movlb	2	; () banked
  9056  001BDA  0102               	movlb	2	; () banked
  9057  001BDC  5165               	movf	((i2___ftadd@exp1))&0ffh,w
  9058  001BDE  0102               	movlb	2	; () banked
  9059  001BE0  0102               	movlb	2	; () banked
  9060  001BE2  5D64               	subwf	((i2___ftadd@exp2))&0ffh,w
  9061  001BE4  0102               	movlb	2	; () banked
  9062  001BE6  6F66               	movwf	(??i2___ftadd+5+0)&0ffh
  9063  001BE8  0E19               	movlw	(019h)&0ffh
  9064  001BEA  0102               	movlb	2	; () banked
  9065  001BEC  5D66               	subwf	((??i2___ftadd+5+0))&0ffh,w
  9066  001BEE  A0D8               	btfss	status,0
  9067  001BF0  EFFC  F00D         	goto	i2u4191
  9068  001BF4  EFFE  F00D         	goto	i2u4190
  9069  001BF8                     i2u4191:
  9070  001BF8  EF10  F00E         	goto	i2l458
  9071  001BFC                     i2u4190:
  9072                           	line	32
  9073  001BFC  0E00               	movlw	low(0)
  9074  001BFE  0102               	movlb	2	; () banked
  9075  001C00  0102               	movlb	2	; () banked
  9076  001C02  6F5B               	movwf	((i2___ftadd@f1))&0ffh
  9077  001C04  0E00               	movlw	high(0)
  9078  001C06  0102               	movlb	2	; () banked
  9079  001C08  0102               	movlb	2	; () banked
  9080  001C0A  6F5C               	movwf	((i2___ftadd@f1+1))&0ffh
  9081  001C0C  0E00               	movlw	low highword(0)
  9082  001C0E  0102               	movlb	2	; () banked
  9083  001C10  0102               	movlb	2	; () banked
  9084  001C12  6F5D               	movwf	((i2___ftadd@f1+2))&0ffh
  9085                           
  9086                           	line	33
  9087  001C14  C264  F265         	movff	(i2___ftadd@exp2),(i2___ftadd@exp1)
  9088                           	line	34
  9089  001C18  C261  F263         	movff	(i2___ftadd@sign2),(i2___ftadd@sign1)
  9090                           	line	35
  9091  001C1C  EF46  F00E         	goto	i2l455
  9092                           	line	38
  9093                           	
  9094  001C20                     i2l458:		; BSR set to: ?
  9095                           
  9096                           	line	39
  9097  001C20  0102               	movlb	2	; () banked
  9098  001C22  90D8               	bcf	status,0
  9099  001C24  0102               	movlb	2	; () banked
  9100  001C26  375E               	rlcf	((i2___ftadd@f2))&0ffh
  9101  001C28  0102               	movlb	2	; () banked
  9102  001C2A  375F               	rlcf	((i2___ftadd@f2+1))&0ffh
  9103  001C2C  0102               	movlb	2	; () banked
  9104  001C2E  3760               	rlcf	((i2___ftadd@f2+2))&0ffh
  9105                           	line	40
  9106  001C30  0102               	movlb	2	; () banked
  9107  001C32  0102               	movlb	2	; () banked
  9108  001C34  0764               	decf	((i2___ftadd@exp2))&0ffh
  9109                           	line	41
  9110  001C36  0102               	movlb	2	; () banked
  9111  001C38  0102               	movlb	2	; () banked
  9112  001C3A  5164               	movf	((i2___ftadd@exp2))&0ffh,w
  9113  001C3C  0102               	movlb	2	; () banked
  9114  001C3E  0102               	movlb	2	; () banked
  9115  001C40  1965               	xorwf	((i2___ftadd@exp1))&0ffh,w
  9116  001C42  B4D8               	btfsc	status,2
  9117  001C44  EF26  F00E         	goto	i2u4201
  9118  001C48  EF28  F00E         	goto	i2u4200
  9119  001C4C                     i2u4201:
  9120  001C4C  EF2D  F00E         	goto	i2l457
  9121  001C50                     i2u4200:
  9122  001C50  0102               	movlb	2	; () banked
  9123  001C52  0102               	movlb	2	; () banked
  9124  001C54  2F62               	decfsz	((i2___ftadd@cntr))&0ffh
  9125                           	
  9126  001C56  EF10  F00E         	goto	i2l458
  9127                           	
  9128  001C5A                     i2l600000481:		; BSR set to: ?
  9129                           
  9130                           	
  9131  001C5A                     i2l457:		; BSR set to: ?
  9132                           
  9133                           	line	42
  9134  001C5A  EF3A  F00E         	goto	i2l459
  9135                           	
  9136  001C5E                     i2l460:		; BSR set to: ?
  9137                           
  9138                           	line	43
  9139  001C5E  0102               	movlb	2	; () banked
  9140  001C60  90D8               	bcf	status,0
  9141  001C62  0102               	movlb	2	; () banked
  9142  001C64  335D               	rrcf	((i2___ftadd@f1+2))&0ffh
  9143  001C66  0102               	movlb	2	; () banked
  9144  001C68  335C               	rrcf	((i2___ftadd@f1+1))&0ffh
  9145  001C6A  0102               	movlb	2	; () banked
  9146  001C6C  335B               	rrcf	((i2___ftadd@f1))&0ffh
  9147                           	line	44
  9148  001C6E  0102               	movlb	2	; () banked
  9149  001C70  0102               	movlb	2	; () banked
  9150  001C72  2B65               	incf	((i2___ftadd@exp1))&0ffh
  9151                           	line	45
  9152                           	
  9153  001C74                     i2l459:		; BSR set to: ?
  9154                           
  9155                           	line	42
  9156  001C74  0102               	movlb	2	; () banked
  9157  001C76  0102               	movlb	2	; () banked
  9158  001C78  5164               	movf	((i2___ftadd@exp2))&0ffh,w
  9159  001C7A  0102               	movlb	2	; () banked
  9160  001C7C  0102               	movlb	2	; () banked
  9161  001C7E  6365               	cpfseq	((i2___ftadd@exp1))&0ffh
  9162  001C80  EF44  F00E         	goto	i2u4211
  9163  001C84  EF46  F00E         	goto	i2u4210
  9164  001C88                     i2u4211:
  9165  001C88  EF2F  F00E         	goto	i2l460
  9166  001C8C                     i2u4210:
  9167                           	
  9168  001C8C                     i2l461:		; BSR set to: ?
  9169                           
  9170                           	line	46
  9171                           	
  9172  001C8C                     i2l455:		; BSR set to: ?
  9173                           
  9174                           	line	47
  9175  001C8C  EFAB  F00E         	goto	i2l462
  9176                           	
  9177  001C90                     i2l453:		; BSR set to: ?
  9178                           
  9179  001C90  0102               	movlb	2	; () banked
  9180  001C92  0102               	movlb	2	; () banked
  9181  001C94  5165               	movf	((i2___ftadd@exp1))&0ffh,w
  9182  001C96  0102               	movlb	2	; () banked
  9183  001C98  0102               	movlb	2	; () banked
  9184  001C9A  1964               	xorwf	((i2___ftadd@exp2))&0ffh,w
  9185  001C9C  B4D8               	btfsc	status,2
  9186  001C9E  EF53  F00E         	goto	i2u4221
  9187  001CA2  EF55  F00E         	goto	i2u4220
  9188  001CA6                     i2u4221:
  9189  001CA6  EFAB  F00E         	goto	i2l462
  9190  001CAA                     i2u4220:
  9191                           	line	48
  9192  001CAA  0102               	movlb	2	; () banked
  9193  001CAC  0102               	movlb	2	; () banked
  9194  001CAE  5164               	movf	((i2___ftadd@exp2))&0ffh,w
  9195  001CB0  0102               	movlb	2	; () banked
  9196  001CB2  0102               	movlb	2	; () banked
  9197  001CB4  5D65               	subwf	((i2___ftadd@exp1))&0ffh,w
  9198  001CB6  0102               	movlb	2	; () banked
  9199  001CB8  6F66               	movwf	(??i2___ftadd+5+0)&0ffh
  9200  001CBA  0E19               	movlw	(019h)&0ffh
  9201  001CBC  0102               	movlb	2	; () banked
  9202  001CBE  5D66               	subwf	((??i2___ftadd+5+0))&0ffh,w
  9203  001CC0  A0D8               	btfss	status,0
  9204  001CC2  EF65  F00E         	goto	i2u4231
  9205  001CC6  EF67  F00E         	goto	i2u4230
  9206  001CCA                     i2u4231:
  9207  001CCA  EF75  F00E         	goto	i2l468
  9208  001CCE                     i2u4230:
  9209                           	line	49
  9210  001CCE  0E00               	movlw	low(0)
  9211  001CD0  0102               	movlb	2	; () banked
  9212  001CD2  0102               	movlb	2	; () banked
  9213  001CD4  6F5E               	movwf	((i2___ftadd@f2))&0ffh
  9214  001CD6  0E00               	movlw	high(0)
  9215  001CD8  0102               	movlb	2	; () banked
  9216  001CDA  0102               	movlb	2	; () banked
  9217  001CDC  6F5F               	movwf	((i2___ftadd@f2+1))&0ffh
  9218  001CDE  0E00               	movlw	low highword(0)
  9219  001CE0  0102               	movlb	2	; () banked
  9220  001CE2  0102               	movlb	2	; () banked
  9221  001CE4  6F60               	movwf	((i2___ftadd@f2+2))&0ffh
  9222                           
  9223  001CE6  EFAB  F00E         	goto	i2l462
  9224                           	line	53
  9225                           	
  9226  001CEA                     i2l468:		; BSR set to: ?
  9227                           
  9228                           	line	54
  9229  001CEA  0102               	movlb	2	; () banked
  9230  001CEC  90D8               	bcf	status,0
  9231  001CEE  0102               	movlb	2	; () banked
  9232  001CF0  375B               	rlcf	((i2___ftadd@f1))&0ffh
  9233  001CF2  0102               	movlb	2	; () banked
  9234  001CF4  375C               	rlcf	((i2___ftadd@f1+1))&0ffh
  9235  001CF6  0102               	movlb	2	; () banked
  9236  001CF8  375D               	rlcf	((i2___ftadd@f1+2))&0ffh
  9237                           	line	55
  9238  001CFA  0102               	movlb	2	; () banked
  9239  001CFC  0102               	movlb	2	; () banked
  9240  001CFE  0765               	decf	((i2___ftadd@exp1))&0ffh
  9241                           	line	56
  9242  001D00  0102               	movlb	2	; () banked
  9243  001D02  0102               	movlb	2	; () banked
  9244  001D04  5164               	movf	((i2___ftadd@exp2))&0ffh,w
  9245  001D06  0102               	movlb	2	; () banked
  9246  001D08  0102               	movlb	2	; () banked
  9247  001D0A  1965               	xorwf	((i2___ftadd@exp1))&0ffh,w
  9248  001D0C  B4D8               	btfsc	status,2
  9249  001D0E  EF8B  F00E         	goto	i2u4241
  9250  001D12  EF8D  F00E         	goto	i2u4240
  9251  001D16                     i2u4241:
  9252  001D16  EF92  F00E         	goto	i2l467
  9253  001D1A                     i2u4240:
  9254  001D1A  0102               	movlb	2	; () banked
  9255  001D1C  0102               	movlb	2	; () banked
  9256  001D1E  2F62               	decfsz	((i2___ftadd@cntr))&0ffh
  9257                           	
  9258  001D20  EF75  F00E         	goto	i2l468
  9259                           	
  9260  001D24                     i2l600000482:		; BSR set to: ?
  9261                           
  9262                           	
  9263  001D24                     i2l467:		; BSR set to: ?
  9264                           
  9265                           	line	57
  9266  001D24  EF9F  F00E         	goto	i2l469
  9267                           	
  9268  001D28                     i2l470:		; BSR set to: ?
  9269                           
  9270                           	line	58
  9271  001D28  0102               	movlb	2	; () banked
  9272  001D2A  90D8               	bcf	status,0
  9273  001D2C  0102               	movlb	2	; () banked
  9274  001D2E  3360               	rrcf	((i2___ftadd@f2+2))&0ffh
  9275  001D30  0102               	movlb	2	; () banked
  9276  001D32  335F               	rrcf	((i2___ftadd@f2+1))&0ffh
  9277  001D34  0102               	movlb	2	; () banked
  9278  001D36  335E               	rrcf	((i2___ftadd@f2))&0ffh
  9279                           	line	59
  9280  001D38  0102               	movlb	2	; () banked
  9281  001D3A  0102               	movlb	2	; () banked
  9282  001D3C  2B64               	incf	((i2___ftadd@exp2))&0ffh
  9283                           	line	60
  9284                           	
  9285  001D3E                     i2l469:		; BSR set to: ?
  9286                           
  9287                           	line	57
  9288  001D3E  0102               	movlb	2	; () banked
  9289  001D40  0102               	movlb	2	; () banked
  9290  001D42  5164               	movf	((i2___ftadd@exp2))&0ffh,w
  9291  001D44  0102               	movlb	2	; () banked
  9292  001D46  0102               	movlb	2	; () banked
  9293  001D48  6365               	cpfseq	((i2___ftadd@exp1))&0ffh
  9294  001D4A  EFA9  F00E         	goto	i2u4251
  9295  001D4E  EFAB  F00E         	goto	i2u4250
  9296  001D52                     i2u4251:
  9297  001D52  EF94  F00E         	goto	i2l470
  9298  001D56                     i2u4250:
  9299                           	
  9300  001D56                     i2l471:		; BSR set to: ?
  9301                           
  9302                           	line	61
  9303                           	
  9304  001D56                     i2l465:		; BSR set to: ?
  9305                           
  9306                           	line	62
  9307                           	
  9308  001D56                     i2l463:		; BSR set to: ?
  9309                           
  9310                           	line	63
  9311                           	
  9312  001D56                     i2l462:		; BSR set to: ?
  9313                           
  9314  001D56  0102               	movlb	2	; () banked
  9315  001D58  0102               	movlb	2	; () banked
  9316  001D5A  5163               	movf	((i2___ftadd@sign1))&0ffh,w
  9317  001D5C  B4D8               	btfsc	status,2
  9318  001D5E  EFB3  F00E         	goto	i2u4261
  9319  001D62  EFB5  F00E         	goto	i2u4260
  9320  001D66                     i2u4261:
  9321  001D66  EFCD  F00E         	goto	i2l472
  9322  001D6A                     i2u4260:
  9323                           	line	64
  9324  001D6A  0EFF               	movlw	low(0FFFFFFh)
  9325  001D6C  0102               	movlb	2	; () banked
  9326  001D6E  0102               	movlb	2	; () banked
  9327  001D70  1B5B               	xorwf	((i2___ftadd@f1))&0ffh
  9328  001D72  0EFF               	movlw	high(0FFFFFFh)
  9329  001D74  0102               	movlb	2	; () banked
  9330  001D76  0102               	movlb	2	; () banked
  9331  001D78  1B5C               	xorwf	((i2___ftadd@f1+1))&0ffh
  9332  001D7A  0EFF               	movlw	low highword(0FFFFFFh)
  9333  001D7C  0102               	movlb	2	; () banked
  9334  001D7E  0102               	movlb	2	; () banked
  9335  001D80  1B5D               	xorwf	((i2___ftadd@f1+2))&0ffh
  9336                           
  9337                           	line	65
  9338  001D82  0E01               	movlw	low(01h)
  9339  001D84  0102               	movlb	2	; () banked
  9340  001D86  0102               	movlb	2	; () banked
  9341  001D88  275B               	addwf	((i2___ftadd@f1))&0ffh
  9342  001D8A  0E00               	movlw	high(01h)
  9343  001D8C  0102               	movlb	2	; () banked
  9344  001D8E  0102               	movlb	2	; () banked
  9345  001D90  235C               	addwfc	((i2___ftadd@f1+1))&0ffh
  9346  001D92  0E00               	movlw	low highword(01h)
  9347  001D94  0102               	movlb	2	; () banked
  9348  001D96  0102               	movlb	2	; () banked
  9349  001D98  235D               	addwfc	((i2___ftadd@f1+2))&0ffh
  9350                           
  9351                           	line	66
  9352                           	
  9353  001D9A                     i2l472:		; BSR set to: ?
  9354                           
  9355                           	line	67
  9356  001D9A  0102               	movlb	2	; () banked
  9357  001D9C  0102               	movlb	2	; () banked
  9358  001D9E  5161               	movf	((i2___ftadd@sign2))&0ffh,w
  9359  001DA0  B4D8               	btfsc	status,2
  9360  001DA2  EFD5  F00E         	goto	i2u4271
  9361  001DA6  EFD7  F00E         	goto	i2u4270
  9362  001DAA                     i2u4271:
  9363  001DAA  EFEF  F00E         	goto	i2l473
  9364  001DAE                     i2u4270:
  9365                           	line	68
  9366  001DAE  0EFF               	movlw	low(0FFFFFFh)
  9367  001DB0  0102               	movlb	2	; () banked
  9368  001DB2  0102               	movlb	2	; () banked
  9369  001DB4  1B5E               	xorwf	((i2___ftadd@f2))&0ffh
  9370  001DB6  0EFF               	movlw	high(0FFFFFFh)
  9371  001DB8  0102               	movlb	2	; () banked
  9372  001DBA  0102               	movlb	2	; () banked
  9373  001DBC  1B5F               	xorwf	((i2___ftadd@f2+1))&0ffh
  9374  001DBE  0EFF               	movlw	low highword(0FFFFFFh)
  9375  001DC0  0102               	movlb	2	; () banked
  9376  001DC2  0102               	movlb	2	; () banked
  9377  001DC4  1B60               	xorwf	((i2___ftadd@f2+2))&0ffh
  9378                           
  9379                           	line	69
  9380  001DC6  0E01               	movlw	low(01h)
  9381  001DC8  0102               	movlb	2	; () banked
  9382  001DCA  0102               	movlb	2	; () banked
  9383  001DCC  275E               	addwf	((i2___ftadd@f2))&0ffh
  9384  001DCE  0E00               	movlw	high(01h)
  9385  001DD0  0102               	movlb	2	; () banked
  9386  001DD2  0102               	movlb	2	; () banked
  9387  001DD4  235F               	addwfc	((i2___ftadd@f2+1))&0ffh
  9388  001DD6  0E00               	movlw	low highword(01h)
  9389  001DD8  0102               	movlb	2	; () banked
  9390  001DDA  0102               	movlb	2	; () banked
  9391  001DDC  2360               	addwfc	((i2___ftadd@f2+2))&0ffh
  9392                           
  9393                           	line	70
  9394                           	
  9395  001DDE                     i2l473:		; BSR set to: ?
  9396                           
  9397                           	line	71
  9398  001DDE  0102               	movlb	2	; () banked
  9399  001DE0  6F66               	movwf	(??i2___ftadd+5+0)&0ffh
  9400  001DE2  0E00               	movlw	low(0)
  9401  001DE4  0102               	movlb	2	; () banked
  9402  001DE6  0102               	movlb	2	; () banked
  9403  001DE8  6F63               	movwf	((i2___ftadd@sign1))&0ffh
  9404  001DEA  0102               	movlb	2	; () banked
  9405  001DEC  5166               	movf	(??i2___ftadd+5+0)&0ffh,w
  9406                           	line	72
  9407  001DEE  0102               	movlb	2	; () banked
  9408  001DF0  0102               	movlb	2	; () banked
  9409  001DF2  515E               	movf	((i2___ftadd@f2))&0ffh,w
  9410  001DF4  0102               	movlb	2	; () banked
  9411  001DF6  0102               	movlb	2	; () banked
  9412  001DF8  275B               	addwf	((i2___ftadd@f1))&0ffh
  9413  001DFA  0102               	movlb	2	; () banked
  9414  001DFC  0102               	movlb	2	; () banked
  9415  001DFE  515F               	movf	((i2___ftadd@f2+1))&0ffh,w
  9416  001E00  0102               	movlb	2	; () banked
  9417  001E02  0102               	movlb	2	; () banked
  9418  001E04  235C               	addwfc	((i2___ftadd@f1+1))&0ffh
  9419  001E06  0102               	movlb	2	; () banked
  9420  001E08  0102               	movlb	2	; () banked
  9421  001E0A  5160               	movf	((i2___ftadd@f2+2))&0ffh,w
  9422  001E0C  0102               	movlb	2	; () banked
  9423  001E0E  0102               	movlb	2	; () banked
  9424  001E10  235D               	addwfc	((i2___ftadd@f1+2))&0ffh
  9425                           
  9426                           	line	73
  9427  001E12  0102               	movlb	2	; () banked
  9428                           	
  9429  001E14  0102               	movlb	2	; () banked
  9430  001E16  AF5D               	btfss	((i2___ftadd@f1+2))&0ffh,(23)&7
  9431  001E18  EF10  F00F         	goto	i2u4281
  9432  001E1C  EF12  F00F         	goto	i2u4280
  9433  001E20                     i2u4281:
  9434  001E20  EF32  F00F         	goto	i2l452
  9435  001E24                     i2u4280:
  9436                           	line	74
  9437  001E24  0EFF               	movlw	low(0FFFFFFh)
  9438  001E26  0102               	movlb	2	; () banked
  9439  001E28  0102               	movlb	2	; () banked
  9440  001E2A  1B5B               	xorwf	((i2___ftadd@f1))&0ffh
  9441  001E2C  0EFF               	movlw	high(0FFFFFFh)
  9442  001E2E  0102               	movlb	2	; () banked
  9443  001E30  0102               	movlb	2	; () banked
  9444  001E32  1B5C               	xorwf	((i2___ftadd@f1+1))&0ffh
  9445  001E34  0EFF               	movlw	low highword(0FFFFFFh)
  9446  001E36  0102               	movlb	2	; () banked
  9447  001E38  0102               	movlb	2	; () banked
  9448  001E3A  1B5D               	xorwf	((i2___ftadd@f1+2))&0ffh
  9449                           
  9450                           	line	75
  9451  001E3C  0E01               	movlw	low(01h)
  9452  001E3E  0102               	movlb	2	; () banked
  9453  001E40  0102               	movlb	2	; () banked
  9454  001E42  275B               	addwf	((i2___ftadd@f1))&0ffh
  9455  001E44  0E00               	movlw	high(01h)
  9456  001E46  0102               	movlb	2	; () banked
  9457  001E48  0102               	movlb	2	; () banked
  9458  001E4A  235C               	addwfc	((i2___ftadd@f1+1))&0ffh
  9459  001E4C  0E00               	movlw	low highword(01h)
  9460  001E4E  0102               	movlb	2	; () banked
  9461  001E50  0102               	movlb	2	; () banked
  9462  001E52  235D               	addwfc	((i2___ftadd@f1+2))&0ffh
  9463                           
  9464                           	line	76
  9465  001E54  0102               	movlb	2	; () banked
  9466  001E56  6F66               	movwf	(??i2___ftadd+5+0)&0ffh
  9467  001E58  0E01               	movlw	low(01h)
  9468  001E5A  0102               	movlb	2	; () banked
  9469  001E5C  0102               	movlb	2	; () banked
  9470  001E5E  6F63               	movwf	((i2___ftadd@sign1))&0ffh
  9471  001E60  0102               	movlb	2	; () banked
  9472  001E62  5166               	movf	(??i2___ftadd+5+0)&0ffh,w
  9473                           	line	77
  9474                           	
  9475  001E64                     i2l474:		; BSR set to: ?
  9476                           
  9477                           	line	78
  9478                           	
  9479  001E64                     i2l452:		; BSR set to: ?
  9480                           
  9481                           	line	79
  9482  001E64  C265  F269         	movff	(i2___ftadd@exp1),0+(?i2___ftpack+02h)
  9483  001E68  0102               	movlb	2	; () banked
  9484  001E6A  0E5B               	movlw	low(i2___ftadd@f1)
  9485  001E6C  0102               	movlb	2	; () banked
  9486  001E6E  0102               	movlb	2	; () banked
  9487  001E70  6F67               	movwf	((?i2___ftpack))&0ffh
  9488  001E72  0102               	movlb	2	; () banked
  9489  001E74  0E02               	movlw	high(i2___ftadd@f1)
  9490  001E76  0102               	movlb	2	; () banked
  9491  001E78  6F68               	movwf	((?i2___ftpack+1))&0ffh
  9492  001E7A  EC54  F019         	call	i2___ftpack	;wreg free
  9493                           	line	80
  9494  001E7E  0102               	movlb	2	; () banked
  9495  001E80  0102               	movlb	2	; () banked
  9496  001E82  5163               	movf	((i2___ftadd@sign1))&0ffh,w
  9497  001E84  B4D8               	btfsc	status,2
  9498  001E86  EF47  F00F         	goto	i2u4291
  9499  001E8A  EF49  F00F         	goto	i2u4290
  9500  001E8E                     i2u4291:
  9501  001E8E  EF55  F00F         	goto	i2l475
  9502  001E92                     i2u4290:
  9503                           	line	81
  9504  001E92  0E00               	movlw	low(0800000h)
  9505  001E94  0102               	movlb	2	; () banked
  9506  001E96  0102               	movlb	2	; () banked
  9507  001E98  1B5B               	xorwf	((i2___ftadd@f1))&0ffh
  9508  001E9A  0E00               	movlw	high(0800000h)
  9509  001E9C  0102               	movlb	2	; () banked
  9510  001E9E  0102               	movlb	2	; () banked
  9511  001EA0  1B5C               	xorwf	((i2___ftadd@f1+1))&0ffh
  9512  001EA2  0E80               	movlw	low highword(0800000h)
  9513  001EA4  0102               	movlb	2	; () banked
  9514  001EA6  0102               	movlb	2	; () banked
  9515  001EA8  1B5D               	xorwf	((i2___ftadd@f1+2))&0ffh
  9516                           
  9517                           	
  9518  001EAA                     i2l475:		; BSR set to: ?
  9519                           
  9520                           	line	82
  9521  001EAA  C25B  F25B         	movff	(i2___ftadd@f1),(?i2___ftadd)
  9522  001EAE  C25C  F25C         	movff	(i2___ftadd@f1+1),(?i2___ftadd+1)
  9523  001EB2  C25D  F25D         	movff	(i2___ftadd@f1+2),(?i2___ftadd+2)
  9524  001EB6  EF5D  F00F         	goto	i2l449
  9525                           	line	83
  9526  001EBA                     i2l449:
  9527                           			; BSR set to: ?
  9528                           
  9529  001EBA  0012               	return
  9530                           	opt stack 0
  9531                           GLOBAL __end_ofi2___ftadd
  9532  001EBC                     	__end_ofi2___ftadd:
  9533                           	FNSIZE	i2___ftadd,6,6
  9534                           ; =============== function i2___ftadd ends =====
                                 =======
  9535                           
  9536                           	signat	i2___ftadd,8315
  9537                                   psect   text36,class=CODE,space=0,reloc=
                                 2
  9538                           	global	intlevel2
  9539                           
  9540                           	opt lm
  9541                           	FNBREAK i2___ftpack,intlevel2
  9542                           	global	i2___ftpack
  9543                           	global	i2___ftpack
  9544                           	global	??i2___ftpack
  9545                           	global	?i2___ftpack
  9546                           
  9547                           ; *************** function i2___ftpack *********
                                 ********
  9548                           ; Defined at:
  9549                           ;		line 33 in file "C:\Program Files\HI-TECH Sof
                                 tware\PICC-18\PRO\9.65\sources\float.c"
  9550                           ; Parameters:
  9551                           ;		arg            size:   2offs:   0	type: PTR u
                                 nsigned um; Largest target is 3
  9552                           ;		 -> __lwtoft@f1(3), __lltoft@f1(3), __lbtoft@
                                 f1(3), __abtoft@f1(3), 
  9553                           ;		 -> i2___ftmul@f3(3), i2___ftdiv@f3(3), i2___
                                 ftadd@f1(3), i2___awtoft@f1(3), 
  9554                           ;		 -> __altoft@f1(3), 
  9555                           ;		exp            size:   1offs:   2	type: unsig
                                 ned char 
  9556                           ; Auto variables:
  9557                           ;		None
  9558                           ; Return value:
  9559                           ;		type: void 
  9560                           ;		size: 0
  9561                           ; Registers used:
  9562                           ;		wreg, fsr0l, fsr0h, status,2, status,0
  9563                           ; Tracked objects:
  9564                           ;		On entry : 0/0
  9565                           ;		On exit  : 0/0
  9566                           ;		Unchanged: 0/0
  9567                           ; Data sizes:
  9568                           ;		Autos:    0
  9569                           ;		Params:   3
  9570                           ;		Temp:     3
  9571                           ;		Total:    6
  9572                           ; This function calls:
  9573                           ;		Nothing
  9574                           ; This function is called by:
  9575                           ;		i2___awtoft
  9576                           ;		i2___ftadd
  9577                           ;		i2___ftdiv
  9578                           ;		i2___ftmul
  9579                           ; This function uses a non-reentrant model
  9580                           ; 
  9581                           	file	"C:\Program Files\HI-TECH Software\PICC-18
                                 \PRO\9.65\sources\float.c"
  9582                           	line	33
  9583  000000                     	__size_ofi2___ftpack	equ	__end_ofi2___ftpack-i2
                                 ___ftpack
  9584                           	
  9585  0032A8                     i2___ftpack:		; BSR set to: ?
  9586                           
  9587                           	opt stack 28
  9588                           	line	34
  9589  0032A8  0102               	movlb	2	; () banked
  9590  0032AA  0102               	movlb	2	; () banked
  9591  0032AC  5169               	movf	((i2___ftpack@exp))&0ffh,w
  9592  0032AE  B4D8               	btfsc	status,2
  9593  0032B0  EF5C  F019         	goto	i2u4361
  9594  0032B4  EF5E  F019         	goto	i2u4360
  9595  0032B8                     i2u4361:
  9596  0032B8  EF6C  F019         	goto	i2l600000484
  9597  0032BC                     i2u4360:
  9598  0032BC  C267  FFE9         	movff	(i2___ftpack@arg),fsr0l
  9599  0032C0  C268  FFEA         	movff	(i2___ftpack@arg+1),fsr0h
  9600  0032C4  50EE               	movf	postinc0,w
  9601  0032C6  10EE               	iorwf	postinc0,w
  9602  0032C8  10ED               	iorwf	postdec0,w
  9603  0032CA  A4D8               	btfss	status,2
  9604  0032CC  EF6A  F019         	goto	i2u4371
  9605  0032D0  EF6C  F019         	goto	i2u4370
  9606  0032D4                     i2u4371:
  9607  0032D4  EF79  F019         	goto	i2l424
  9608  0032D8                     i2u4370:
  9609                           	
  9610  0032D8                     i2l600000484:		; BSR set to: ?
  9611                           
  9612                           	line	35
  9613  0032D8  C267  FFE9         	movff	(i2___ftpack@arg),fsr0l
  9614  0032DC  C268  FFEA         	movff	(i2___ftpack@arg+1),fsr0h
  9615  0032E0  0E00               	movlw	low(0)
  9616  0032E2  6EEE               	movwf	postinc0
  9617  0032E4  0E00               	movlw	high(0)
  9618  0032E6  6EEE               	movwf	postinc0
  9619  0032E8  0E00               	movlw	low highword(0)
  9620  0032EA  6EED               	movwf	postdec0
  9621  0032EC  52ED               	movf	postdec0
  9622                           	line	36
  9623  0032EE  EF08  F01A         	goto	i2l423
  9624                           	line	37
  9625                           	
  9626  0032F2                     i2l424:		; BSR set to: ?
  9627                           
  9628                           	line	38
  9629  0032F2  EF88  F019         	goto	i2l425
  9630                           	
  9631  0032F6                     i2l426:		; BSR set to: ?
  9632                           
  9633                           	line	39
  9634  0032F6  0102               	movlb	2	; () banked
  9635  0032F8  0102               	movlb	2	; () banked
  9636  0032FA  2B69               	incf	((i2___ftpack@exp))&0ffh
  9637                           	line	40
  9638  0032FC  C267  FFE9         	movff	(i2___ftpack@arg),fsr0l
  9639  003300  C268  FFEA         	movff	(i2___ftpack@arg+1),fsr0h
  9640  003304  52EC               	movf	preinc0
  9641  003306  52EC               	movf	preinc0
  9642  003308  90D8               	bcf	status,0
  9643  00330A  32ED               	rrcf	postdec0
  9644  00330C  32ED               	rrcf	postdec0
  9645  00330E  32EF               	rrcf	indf0
  9646                           	line	41
  9647                           	
  9648  003310                     i2l425:		; BSR set to: ?
  9649                           
  9650                           	line	38
  9651  003310  C267  FFE9         	movff	(i2___ftpack@arg),fsr0l
  9652  003314  C268  FFEA         	movff	(i2___ftpack@arg+1),fsr0h
  9653  003318  52EE               	movf	postinc0
  9654  00331A  52EE               	movf	postinc0
  9655  00331C  0EFE               	movlw	low highword(0FE0000h)
  9656  00331E  14ED               	andwf	postdec0,w
  9657  003320  A4D8               	btfss	status,2
  9658  003322  EF95  F019         	goto	i2u4381
  9659  003326  EF97  F019         	goto	i2u4380
  9660  00332A                     i2u4381:
  9661  00332A  EF7B  F019         	goto	i2l426
  9662  00332E                     i2u4380:
  9663                           	
  9664  00332E                     i2l427:		; BSR set to: ?
  9665                           
  9666                           	line	42
  9667  00332E  EFAF  F019         	goto	i2l428
  9668                           	
  9669  003332                     i2l429:		; BSR set to: ?
  9670                           
  9671                           	line	43
  9672  003332  0102               	movlb	2	; () banked
  9673  003334  0102               	movlb	2	; () banked
  9674  003336  2B69               	incf	((i2___ftpack@exp))&0ffh
  9675                           	line	44
  9676  003338  C267  FFE9         	movff	(i2___ftpack@arg),fsr0l
  9677  00333C  C268  FFEA         	movff	(i2___ftpack@arg+1),fsr0h
  9678  003340  2AEE               	incf	postinc0
  9679  003342  0E00               	movlw	0
  9680  003344  22EE               	addwfc	postinc0
  9681  003346  22ED               	addwfc	postdec0
  9682  003348  52ED               	movf	postdec0
  9683                           	line	45
  9684  00334A  C267  FFE9         	movff	(i2___ftpack@arg),fsr0l
  9685  00334E  C268  FFEA         	movff	(i2___ftpack@arg+1),fsr0h
  9686  003352  52EC               	movf	preinc0
  9687  003354  52EC               	movf	preinc0
  9688  003356  90D8               	bcf	status,0
  9689  003358  32ED               	rrcf	postdec0
  9690  00335A  32ED               	rrcf	postdec0
  9691  00335C  32EF               	rrcf	indf0
  9692                           	line	46
  9693                           	
  9694  00335E                     i2l428:		; BSR set to: ?
  9695                           
  9696                           	line	42
  9697  00335E  C267  FFE9         	movff	(i2___ftpack@arg),fsr0l
  9698  003362  C268  FFEA         	movff	(i2___ftpack@arg+1),fsr0h
  9699  003366  52EE               	movf	postinc0
  9700  003368  52EE               	movf	postinc0
  9701  00336A  0EFF               	movlw	low highword(0FF0000h)
  9702  00336C  14ED               	andwf	postdec0,w
  9703  00336E  A4D8               	btfss	status,2
  9704  003370  EFBC  F019         	goto	i2u4391
  9705  003374  EFBE  F019         	goto	i2u4390
  9706  003378                     i2u4391:
  9707  003378  EF99  F019         	goto	i2l429
  9708  00337C                     i2u4390:
  9709                           	
  9710  00337C                     i2l430:		; BSR set to: ?
  9711                           
  9712                           	line	47
  9713  00337C  EFCC  F019         	goto	i2l431
  9714                           	
  9715  003380                     i2l432:		; BSR set to: ?
  9716                           
  9717                           	line	48
  9718  003380  0102               	movlb	2	; () banked
  9719  003382  0102               	movlb	2	; () banked
  9720  003384  0769               	decf	((i2___ftpack@exp))&0ffh
  9721                           	line	49
  9722  003386  C267  FFE9         	movff	(i2___ftpack@arg),fsr0l
  9723  00338A  C268  FFEA         	movff	(i2___ftpack@arg+1),fsr0h
  9724  00338E  90D8               	bcf	status,0
  9725  003390  36EE               	rlcf	postinc0
  9726  003392  36EE               	rlcf	postinc0
  9727  003394  36ED               	rlcf	postdec0
  9728  003396  52ED               	movf	postdec0
  9729                           	line	50
  9730                           	
  9731  003398                     i2l431:		; BSR set to: ?
  9732                           
  9733                           	line	47
  9734  003398  C267  FFE9         	movff	(i2___ftpack@arg),fsr0l
  9735  00339C  C268  FFEA         	movff	(i2___ftpack@arg+1),fsr0h
  9736  0033A0  CFEE F26A          	movff	postinc0,??i2___ftpack+0+0
  9737  0033A4  CFEE F26B          	movff	postinc0,??i2___ftpack+0+0+1
  9738  0033A8  CFEE F26C          	movff	postinc0,??i2___ftpack+0+0+2
  9739  0033AC  0102               	movlb	2	; () banked
  9740                           	
  9741  0033AE  AF6B               	btfss	(??i2___ftpack+0+1)&0ffh,(15)&7
  9742  0033B0  EFDC  F019         	goto	i2u4401
  9743  0033B4  EFDE  F019         	goto	i2u4400
  9744  0033B8                     i2u4401:
  9745  0033B8  EFC0  F019         	goto	i2l432
  9746  0033BC                     i2u4400:
  9747                           	
  9748  0033BC                     i2l433:		; BSR set to: ?
  9749                           
  9750                           	line	51
  9751  0033BC  0102               	movlb	2	; () banked
  9752                           	
  9753  0033BE  0102               	movlb	2	; () banked
  9754  0033C0  B169               	btfsc	((i2___ftpack@exp))&0ffh,(0)&7
  9755  0033C2  EFE5  F019         	goto	i2u4411
  9756  0033C6  EFE7  F019         	goto	i2u4410
  9757  0033CA                     i2u4411:
  9758  0033CA  EFF2  F019         	goto	i2l434
  9759  0033CE                     i2u4410:
  9760                           	line	52
  9761  0033CE  C267  FFE9         	movff	(i2___ftpack@arg),fsr0l
  9762  0033D2  C268  FFEA         	movff	(i2___ftpack@arg+1),fsr0h
  9763  0033D6  0EFF               	movlw	low(0FF7FFFh)
  9764  0033D8  16EE               	andwf	postinc0
  9765  0033DA  0E7F               	movlw	high(0FF7FFFh)
  9766  0033DC  16EE               	andwf	postinc0
  9767  0033DE  0EFF               	movlw	low highword(0FF7FFFh)
  9768  0033E0  16ED               	andwf	postdec0
  9769  0033E2  52ED               	movf	postdec0
  9770                           	
  9771  0033E4                     i2l434:		; BSR set to: ?
  9772                           
  9773                           	line	53
  9774  0033E4  0102               	movlb	2	; () banked
  9775  0033E6  90D8               	bcf status,0
  9776  0033E8  3369               	rrcf	((i2___ftpack@exp))&0ffh
  9777                           
  9778                           	line	54
  9779  0033EA  0102               	movlb	2	; () banked
  9780  0033EC  0102               	movlb	2	; () banked
  9781  0033EE  5169               	movf	((i2___ftpack@exp))&0ffh,w
  9782  0033F0  0102               	movlb	2	; () banked
  9783  0033F2  6F6C               	movwf	(??i2___ftpack+0+0+2)&0ffh
  9784  0033F4  6B6B               	clrf	(??i2___ftpack+0+0+1)&0ffh
  9785  0033F6  6B6A               	clrf	(??i2___ftpack+0+0)&0ffh
  9786  0033F8  C267  FFE9         	movff	(i2___ftpack@arg),fsr0l
  9787  0033FC  C268  FFEA         	movff	(i2___ftpack@arg+1),fsr0h
  9788  003400  0102               	movlb	2	; () banked
  9789  003402  516A               	movf	(??i2___ftpack+0+0)&0ffh,w
  9790  003404  12EE               	iorwf	postinc0
  9791  003406  516B               	movf	(??i2___ftpack+0+1)&0ffh,w
  9792  003408  12EE               	iorwf	postinc0
  9793  00340A  516C               	movf	(??i2___ftpack+0+2)&0ffh,w
  9794  00340C  12ED               	iorwf	postdec0
  9795  00340E  52ED               	movf	postdec0
  9796                           	line	55
  9797  003410                     i2l423:
  9798                           			; BSR set to: ?
  9799                           
  9800  003410  0012               	return
  9801                           	opt stack 0
  9802                           GLOBAL __end_ofi2___ftpack
  9803  003412                     	__end_ofi2___ftpack:
  9804                           	FNSIZE	i2___ftpack,3,3
  9805                           ; =============== function i2___ftpack ends ====
                                 ========
  9806                           
  9807                           	signat	i2___ftpack,8312
  9808                                   psect   text37,class=CODE,space=0,reloc=
                                 2
  9809                           	global	intlevel2
  9810                           
  9811                           	opt lm
  9812                           	FNBREAK i2___ftunpack,intlevel2
  9813                           	global	i2___ftunpack
  9814                           	global	i2___ftunpack
  9815                           	global	??i2___ftunpack
  9816                           	global	?i2___ftunpack
  9817                           
  9818                           ; *************** function i2___ftunpack *******
                                 **********
  9819                           ; Defined at:
  9820                           ;		line 13 in file "C:\Program Files\HI-TECH Sof
                                 tware\PICC-18\PRO\9.65\sources\float.c"
  9821                           ; Parameters:
  9822                           ;		arg            size:   2offs:   0	type: PTR u
                                 nsigned um; Largest target is 3
  9823                           ;		 -> i2___fttol@f1(3), i2___ftmul@f2(3), i2___
                                 ftmul@f1(3), i2___ftdiv@f2(3), 
  9824                           ;		 -> i2___ftdiv@f1(3), i2___ftadd@f2(3), i2___
                                 ftadd@f1(3), 
  9825                           ;		exp            size:   2offs:   2	type: PTR u
                                 nsigned char ; Largest target is 1
  9826                           ;		 -> i2___fttol@exp1(1), i2___ftmul@cntr(1), i
                                 2___ftmul@exp1(1), i2___ftdiv@exp2(1), 
  9827                           ;		 -> i2___ftdiv@exp1(1), i2___ftadd@exp2(1), i
                                 2___ftadd@exp1(1), 
  9828                           ; Auto variables:
  9829                           ;		sign        	       	type: unsigned char 
  9830                           ; Return value:
  9831                           ;		type: unsigned char 
  9832                           ;		size: 1
  9833                           ; Registers used:
  9834                           ;		wreg, fsr0l, fsr0h, status,2, status,0
  9835                           ; Tracked objects:
  9836                           ;		On entry : 0/0
  9837                           ;		On exit  : 0/0
  9838                           ;		Unchanged: 0/0
  9839                           ; Data sizes:
  9840                           ;		Autos:    1
  9841                           ;		Params:   4
  9842                           ;		Temp:     3
  9843                           ;		Total:    8
  9844                           ; This function calls:
  9845                           ;		Nothing
  9846                           ; This function is called by:
  9847                           ;		i2___ftadd
  9848                           ;		i2___ftdiv
  9849                           ;		i2___ftmul
  9850                           ;		i2___fttol
  9851                           ; This function uses a non-reentrant model
  9852                           ; 
  9853                           	file	"C:\Program Files\HI-TECH Software\PICC-18
                                 \PRO\9.65\sources\float.c"
  9854                           	line	13
  9855  000000                     	__size_ofi2___ftunpack	equ	__end_ofi2___ftunpac
                                 k-i2___ftunpack
  9856                           	
  9857  003F92                     i2___ftunpack:		; BSR set to: ?
  9858                           
  9859                           	opt stack 28
  9860                           	line	16
  9861  003F92  C267  FFE9         	movff	(i2___ftunpack@arg),fsr0l
  9862  003F96  C268  FFEA         	movff	(i2___ftunpack@arg+1),fsr0h
  9863  003F9A  0E01               	movlw	1
  9864  003F9C  34EB               	rlcf	plusw0,w
  9865  003F9E  0E02               	movlw	2
  9866  003FA0  34EB               	rlcf	plusw0,w
  9867                           
  9868  003FA2  0102               	movlb	2	; () banked
  9869  003FA4  0102               	movlb	2	; () banked
  9870  003FA6  6F6B               	movwf	((i2___ftunpack@sign))&0ffh
  9871  003FA8  C269  FFE9         	movff	(i2___ftunpack@exp),fsr0l
  9872  003FAC  C26A  FFEA         	movff	(i2___ftunpack@exp+1),fsr0h
  9873  003FB0  0102               	movlb	2	; () banked
  9874  003FB2  C26B  FFEF         	movff	(i2___ftunpack@sign),indf0
  9875                           
  9876                           	line	17
  9877  003FB6  0102               	movlb	2	; () banked
  9878  003FB8  0102               	movlb	2	; () banked
  9879  003FBA  676B               	tstfsz	((i2___ftunpack@sign))&0ffh
  9880  003FBC  EFE2  F01F         	goto	i2u4341
  9881  003FC0  EFE4  F01F         	goto	i2u4340
  9882  003FC4                     i2u4341:
  9883  003FC4  EFF2  F01F         	goto	i2l421
  9884  003FC8                     i2u4340:
  9885                           	line	18
  9886  003FC8  C267  FFE9         	movff	(i2___ftunpack@arg),fsr0l
  9887  003FCC  C268  FFEA         	movff	(i2___ftunpack@arg+1),fsr0h
  9888  003FD0  0E00               	movlw	low(0)
  9889  003FD2  6EEE               	movwf	postinc0
  9890  003FD4  0E00               	movlw	high(0)
  9891  003FD6  6EEE               	movwf	postinc0
  9892  003FD8  0E00               	movlw	low highword(0)
  9893  003FDA  6EED               	movwf	postdec0
  9894  003FDC  52ED               	movf	postdec0
  9895                           	line	19
  9896  003FDE  0E00               	movlw	(0)&0ffh
  9897  003FE0  EF25  F020         	goto	i2l420
  9898                           	line	20
  9899                           	
  9900  003FE4                     i2l421:		; BSR set to: ?
  9901                           
  9902                           	line	21
  9903  003FE4  0102               	movlb	2	; () banked
  9904  003FE6  6F6C               	movwf	(??i2___ftunpack+1+0)&0ffh
  9905  003FE8  0E00               	movlw	low(0)
  9906  003FEA  0102               	movlb	2	; () banked
  9907  003FEC  0102               	movlb	2	; () banked
  9908  003FEE  6F6B               	movwf	((i2___ftunpack@sign))&0ffh
  9909  003FF0  0102               	movlb	2	; () banked
  9910  003FF2  516C               	movf	(??i2___ftunpack+1+0)&0ffh,w
  9911                           	line	22
  9912  003FF4  C267  FFE9         	movff	(i2___ftunpack@arg),fsr0l
  9913  003FF8  C268  FFEA         	movff	(i2___ftunpack@arg+1),fsr0h
  9914  003FFC  0E01               	movlw	0+(15/8)
  9915  003FFE  8EEB               	bsf	plusw0,(15)&7
  9916                           	line	23
  9917  004000  C267  FFE9         	movff	(i2___ftunpack@arg),fsr0l
  9918  004004  C268  FFEA         	movff	(i2___ftunpack@arg+1),fsr0h
  9919  004008  CFEE F26C          	movff	postinc0,??i2___ftunpack+1+0
  9920  00400C  CFEE F26D          	movff	postinc0,??i2___ftunpack+1+0+1
  9921  004010  CFEE F26E          	movff	postinc0,??i2___ftunpack+1+0+2
  9922  004014  0102               	movlb	2	; () banked
  9923                           	
  9924  004016  AF6E               	btfss	(??i2___ftunpack+1+2)&0ffh,(23)&7
  9925  004018  EF10  F020         	goto	i2u4351
  9926  00401C  EF12  F020         	goto	i2u4350
  9927  004020                     i2u4351:
  9928  004020  EF15  F020         	goto	i2l422
  9929  004024                     i2u4350:
  9930                           	line	24
  9931  004024  0102               	movlb	2	; () banked
  9932  004026  0102               	movlb	2	; () banked
  9933  004028  2B6B               	incf	((i2___ftunpack@sign))&0ffh
  9934                           	
  9935  00402A                     i2l422:		; BSR set to: ?
  9936                           
  9937                           	line	25
  9938  00402A  C267  FFE9         	movff	(i2___ftunpack@arg),fsr0l
  9939  00402E  C268  FFEA         	movff	(i2___ftunpack@arg+1),fsr0h
  9940  004032  0EFF               	movlw	low(0FFFFh)
  9941  004034  16EE               	andwf	postinc0
  9942  004036  0EFF               	movlw	high(0FFFFh)
  9943  004038  16EE               	andwf	postinc0
  9944  00403A  0E00               	movlw	low highword(0FFFFh)
  9945  00403C  16ED               	andwf	postdec0
  9946  00403E  52ED               	movf	postdec0
  9947                           	line	26
  9948  004040  0102               	movlb	2	; () banked
  9949  004042  0102               	movlb	2	; () banked
  9950  004044  516B               	movf	((i2___ftunpack@sign))&0ffh,w
  9951  004046  EF25  F020         	goto	i2l420
  9952                           	line	27
  9953  00404A                     i2l420:
  9954                           			; BSR set to: ?
  9955                           
  9956  00404A  0012               	return
  9957                           	opt stack 0
  9958                           GLOBAL __end_ofi2___ftunpack
  9959  00404C                     	__end_ofi2___ftunpack:
  9960                           	FNSIZE	i2___ftunpack,4,4
  9961                           ; =============== function i2___ftunpack ends ==
                                 ==========
  9962                           
  9963                           	signat	i2___ftunpack,8313
  9964                           	FNCALL	_main,_lcd_init
  9965                           	FNCALL	_main,_adc_init
  9966                           	FNCALL	_main,_timer0_init
  9967                           	FNCALL	_main,_cal_pid_parameters
  9968                           	FNCALL	_main,_Display
  9969                           	FNCALL	_main,_DelayMs
  9970                           	FNCALL	_main,_waitkey
  9971                           	FNCALL	_main,_Navigate
  9972                           	FNCALL	_main,_choose_tcouple
  9973                           	FNCALL	_main,___fttol
  9974                           	FNCALL	_main,_dispnum
  9975                           	FNCALL	_main,___awtoft
  9976                           	FNCALL	_main,_getkey
  9977                           	FNCALL	_main,_read_adc
  9978                           	FNCALL	_main,_currenttemp
  9979                           	FNCALL	_main,_pid
  9980                           	FNCALL	_Navigate,___wmul
  9981                           	FNCALL	_Navigate,___awmod
  9982                           	FNCALL	_Navigate,___awdiv
  9983                           	FNCALL	_read_adc,_DelayMs
  9984                           	FNCALL	_dispnum,___awmod
  9985                           	FNCALL	_dispnum,___awdiv
  9986                           	FNCALL	_dispnum,_Display
  9987                           	FNCALL	___awtoft,___ftpack
  9988                           	FNCALL	___awtoft,___ftneg
  9989                           	FNCALL	_adc_init,_DelayMs
  9990                           	FNCALL	_lcd_init,_DelayMs
  9991                           	FNCALL	_lcd_init,_lcd_command
  9992                           	FNCALL	_pid,_pid_error
  9993                           	FNCALL	_pid,___ftmul
  9994                           	FNCALL	_pid,___ftadd
  9995                           	FNCALL	_pid,___ftge
  9996                           	FNCALL	_pid,___fttol
  9997                           	FNCALL	_currenttemp,___ftmul
  9998                           	FNCALL	_currenttemp,___ftdiv
  9999                           	FNCALL	_currenttemp,_actual
 10000                           	FNCALL	_actual,___wmul
 10001                           	FNCALL	_actual,___ftge
 10002                           	FNCALL	_actual,___ftsub
 10003                           	FNCALL	_actual,___ftdiv
 10004                           	FNCALL	_actual,___ftmul
 10005                           	FNCALL	_actual,___ftadd
 10006                           	FNCALL	_pid_error,_calc_err
 10007                           	FNCALL	_Display,_DelayMs
 10008                           	FNCALL	_Display,_lcd_command
 10009                           	FNCALL	_Display,_lcd_data
 10010                           	FNCALL	___fttol,___ftunpack
 10011                           	FNCALL	___ftdiv,___ftunpack
 10012                           	FNCALL	___ftdiv,___ftpack
 10013                           	FNCALL	_lcd_command,_DelayMs
 10014                           	FNCALL	___ftmul,___ftunpack
 10015                           	FNCALL	___ftmul,___ftpack
 10016                           	FNCALL	_lcd_data,_DelayMs
 10017                           	FNCALL	_calc_err,___ftsub
 10018                           	FNCALL	___ftsub,___ftadd
 10019                           	FNCALL	___ftadd,___ftunpack
 10020                           	FNCALL	___ftadd,___ftpack
 10021                           	FNROOT	_main
 10022                           	FNCALL	_timer0_isr,___asftadd
 10023                           	FNCALL	___asftadd,i2___ftadd
 10024                           	FNCALL	i2___ftadd,i2___ftunpack
 10025                           	FNCALL	i2___ftadd,i2___ftpack
 10026                           	FNCALL	intlevel2,_timer0_isr
 10027                           	global	intlevel2
 10028                           	FNROOT	intlevel2
 10029                           ;	FNARG	_dispnum,___ftunpack
 10030                           ;	FNARG	_dispnum,___fttol
 10031                           ;	FNARG	___awmod,___wmul
 10032                           ;	FNARG	___awdiv,___awmod
 10033                           ;	FNARG	___awdiv,___wmul
 10034                           ;	FNARG	___ftdiv,___ftadd
 10035                           ;	FNARG	___ftdiv,___ftsub
 10036                           ;	FNARG	___ftdiv,___ftmul
 10037                           ;	FNARG	___ftge,___wmul
 10038                           ;	FNARG	___ftmul,___ftadd
 10039                           ;	FNARG	___ftmul,___ftsub
 10040                           	global	_j
 10041                           	global	_j
 10042                                   psect   text38,class=CODE,space=0,reloc=
                                 2
 10043  000000                     _j  equ     87
 10044                           
 10045                           	opt lm
 10046                           
 10047                           	DABS	1,87,186	;_j
 10048                           	global	_k
 10049                           	global	_k
 10050  000000                     _k  equ     273
 10051                           
 10052                           	DABS	1,273,186	;_k
 10053                           	global	_states
 10054                           	global	_states
 10055  000000                     _states  equ     459
 10056                           
 10057                           	DABS	1,459,30	;_states
 10058                                   psect   idata,class=CODE,space=0
 10059                           	file	"main.c"
 10060                           	line	126
 10061                           
 10062                           ;initializer for _j
 10063  001068  00                 	db	low(float24(0.00000000000000000))
 10064  001069  00                 	db	high(float24(0.00000000000000000))
 10065  00106A  00                 	db	low highword(float24(0.00000000000000000))
 10066  00106B  CB                 	db	low(float24(0.50700000000000001))
 10067  00106C  01                 	db	high(float24(0.50700000000000001))
 10068  00106D  3F                 	db	low highword(float24(0.50700000000000001))
 10069  00106E  00                 	db	low(float24(20.000000000000000))
 10070  00106F  A0                 	db	high(float24(20.000000000000000))
 10071  001070  41                 	db	low highword(float24(20.000000000000000))
 10072  001071  BC                 	db	low(float24(1.5369999999999999))
 10073  001072  C4                 	db	high(float24(1.5369999999999999))
 10074  001073  3F                 	db	low highword(float24(1.5369999999999999))
 10075  001074  00                 	db	low(float24(40.000000000000000))
 10076  001075  20                 	db	high(float24(40.000000000000000))
 10077  001076  42                 	db	low highword(float24(40.000000000000000))
 10078  001077  71                 	db	low(float24(2.5850000000000000))
 10079  001078  25                 	db	high(float24(2.5850000000000000))
 10080  001079  40                 	db	low highword(float24(2.5850000000000000))
 10081  00107A  00                 	db	low(float24(60.000000000000000))
 10082  00107B  70                 	db	high(float24(60.000000000000000))
 10083  00107C  42                 	db	low highword(float24(60.000000000000000))
 10084  00107D  9A                 	db	low(float24(3.6499999999999999))
 10085  00107E  69                 	db	high(float24(3.6499999999999999))
 10086  00107F  40                 	db	low highword(float24(3.6499999999999999))
 10087  001080  00                 	db	low(float24(80.000000000000000))
 10088  001081  A0                 	db	high(float24(80.000000000000000))
 10089  001082  42                 	db	low highword(float24(80.000000000000000))
 10090  001083  3B                 	db	low(float24(4.7260000000000000))
 10091  001084  97                 	db	high(float24(4.7260000000000000))
 10092  001085  40                 	db	low highword(float24(4.7260000000000000))
 10093  001086  00                 	db	low(float24(100.00000000000000))
 10094  001087  C8                 	db	high(float24(100.00000000000000))
 10095  001088  42                 	db	low highword(float24(100.00000000000000))
 10096  001089  0C                 	db	low(float24(5.8140000000000001))
 10097  00108A  BA                 	db	high(float24(5.8140000000000001))
 10098  00108B  40                 	db	low highword(float24(5.8140000000000001))
 10099  00108C  00                 	db	low(float24(120.00000000000000))
 10100  00108D  F0                 	db	high(float24(120.00000000000000))
 10101  00108E  42                 	db	low highword(float24(120.00000000000000))
 10102  00108F  17                 	db	low(float24(6.9089999999999998))
 10103  001090  DD                 	db	high(float24(6.9089999999999998))
 10104  001091  40                 	db	low highword(float24(6.9089999999999998))
 10105  001092  00                 	db	low(float24(140.00000000000000))
 10106  001093  0C                 	db	high(float24(140.00000000000000))
 10107  001094  43                 	db	low highword(float24(140.00000000000000))
 10108  001095  29                 	db	low(float24(8.0099999999999998))
 10109  001096  00                 	db	high(float24(8.0099999999999998))
 10110  001097  41                 	db	low highword(float24(8.0099999999999998))
 10111  001098  00                 	db	low(float24(160.00000000000000))
 10112  001099  20                 	db	high(float24(160.00000000000000))
 10113  00109A  43                 	db	low highword(float24(160.00000000000000))
 10114  00109B  D7                 	db	low(float24(9.1150000000000002))
 10115  00109C  11                 	db	high(float24(9.1150000000000002))
 10116  00109D  41                 	db	low highword(float24(9.1150000000000002))
 10117  00109E  00                 	db	low(float24(180.00000000000000))
 10118  00109F  34                 	db	high(float24(180.00000000000000))
 10119  0010A0  43                 	db	low highword(float24(180.00000000000000))
 10120  0010A1  96                 	db	low(float24(10.224000000000000))
 10121  0010A2  23                 	db	high(float24(10.224000000000000))
 10122  0010A3  41                 	db	low highword(float24(10.224000000000000))
 10123  0010A4  00                 	db	low(float24(200.00000000000000))
 10124  0010A5  48                 	db	high(float24(200.00000000000000))
 10125  0010A6  43                 	db	low highword(float24(200.00000000000000))
 10126  0010A7  58                 	db	low(float24(11.334000000000000))
 10127  0010A8  35                 	db	high(float24(11.334000000000000))
 10128  0010A9  41                 	db	low highword(float24(11.334000000000000))
 10129  0010AA  00                 	db	low(float24(220.00000000000000))
 10130  0010AB  5C                 	db	high(float24(220.00000000000000))
 10131  0010AC  43                 	db	low highword(float24(220.00000000000000))
 10132  0010AD  1F                 	db	low(float24(12.445000000000000))
 10133  0010AE  47                 	db	high(float24(12.445000000000000))
 10134  0010AF  41                 	db	low highword(float24(12.445000000000000))
 10135  0010B0  00                 	db	low(float24(240.00000000000000))
 10136  0010B1  70                 	db	high(float24(240.00000000000000))
 10137  0010B2  43                 	db	low highword(float24(240.00000000000000))
 10138  0010B3  E1                 	db	low(float24(13.555000000000000))
 10139  0010B4  58                 	db	high(float24(13.555000000000000))
 10140  0010B5  41                 	db	low highword(float24(13.555000000000000))
 10141  0010B6  00                 	db	low(float24(260.00000000000000))
 10142  0010B7  82                 	db	high(float24(260.00000000000000))
 10143  0010B8  43                 	db	low highword(float24(260.00000000000000))
 10144  0010B9  A4                 	db	low(float24(14.664999999999999))
 10145  0010BA  6A                 	db	high(float24(14.664999999999999))
 10146  0010BB  41                 	db	low highword(float24(14.664999999999999))
 10147  0010BC  00                 	db	low(float24(280.00000000000000))
 10148  0010BD  8C                 	db	high(float24(280.00000000000000))
 10149  0010BE  43                 	db	low highword(float24(280.00000000000000))
 10150  0010BF  5E                 	db	low(float24(15.773000000000000))
 10151  0010C0  7C                 	db	high(float24(15.773000000000000))
 10152  0010C1  41                 	db	low highword(float24(15.773000000000000))
 10153  0010C2  00                 	db	low(float24(300.00000000000000))
 10154  0010C3  96                 	db	high(float24(300.00000000000000))
 10155  0010C4  43                 	db	low highword(float24(300.00000000000000))
 10156  0010C5  0C                 	db	low(float24(16.881000000000000))
 10157  0010C6  87                 	db	high(float24(16.881000000000000))
 10158  0010C7  41                 	db	low highword(float24(16.881000000000000))
 10159  0010C8  00                 	db	low(float24(320.00000000000000))
 10160  0010C9  A0                 	db	high(float24(320.00000000000000))
 10161  0010CA  43                 	db	low highword(float24(320.00000000000000))
 10162  0010CB  E3                 	db	low(float24(17.986000000000001))
 10163  0010CC  8F                 	db	high(float24(17.986000000000001))
 10164  0010CD  41                 	db	low highword(float24(17.986000000000001))
 10165  0010CE  00                 	db	low(float24(340.00000000000000))
 10166  0010CF  AA                 	db	high(float24(340.00000000000000))
 10167  0010D0  43                 	db	low highword(float24(340.00000000000000))
 10168  0010D1  B8                 	db	low(float24(19.090000000000000))
 10169  0010D2  98                 	db	high(float24(19.090000000000000))
 10170  0010D3  41                 	db	low highword(float24(19.090000000000000))
 10171  0010D4  00                 	db	low(float24(360.00000000000000))
 10172  0010D5  B4                 	db	high(float24(360.00000000000000))
 10173  0010D6  43                 	db	low highword(float24(360.00000000000000))
 10174  0010D7  8D                 	db	low(float24(20.193999999999999))
 10175  0010D8  A1                 	db	high(float24(20.193999999999999))
 10176  0010D9  41                 	db	low highword(float24(20.193999999999999))
 10177  0010DA  00                 	db	low(float24(380.00000000000000))
 10178  0010DB  BE                 	db	high(float24(380.00000000000000))
 10179  0010DC  43                 	db	low highword(float24(380.00000000000000))
 10180  0010DD  60                 	db	low(float24(21.297000000000001))
 10181  0010DE  AA                 	db	high(float24(21.297000000000001))
 10182  0010DF  41                 	db	low highword(float24(21.297000000000001))
 10183  0010E0  00                 	db	low(float24(400.00000000000000))
 10184  0010E1  C8                 	db	high(float24(400.00000000000000))
 10185  0010E2  43                 	db	low highword(float24(400.00000000000000))
 10186  0010E3  33                 	db	low(float24(22.399999999999999))
 10187  0010E4  B3                 	db	high(float24(22.399999999999999))
 10188  0010E5  41                 	db	low highword(float24(22.399999999999999))
 10189  0010E6  00                 	db	low(float24(420.00000000000000))
 10190  0010E7  D2                 	db	high(float24(420.00000000000000))
 10191  0010E8  43                 	db	low highword(float24(420.00000000000000))
 10192  0010E9  08                 	db	low(float24(23.504000000000001))
 10193  0010EA  BC                 	db	high(float24(23.504000000000001))
 10194  0010EB  41                 	db	low highword(float24(23.504000000000001))
 10195  0010EC  00                 	db	low(float24(440.00000000000000))
 10196  0010ED  DC                 	db	high(float24(440.00000000000000))
 10197  0010EE  43                 	db	low highword(float24(440.00000000000000))
 10198  0010EF  E1                 	db	low(float24(24.609999999999999))
 10199  0010F0  C4                 	db	high(float24(24.609999999999999))
 10200  0010F1  41                 	db	low highword(float24(24.609999999999999))
 10201  0010F2  00                 	db	low(float24(460.00000000000000))
 10202  0010F3  E6                 	db	high(float24(460.00000000000000))
 10203  0010F4  43                 	db	low highword(float24(460.00000000000000))
 10204  0010F5  C3                 	db	low(float24(25.719999999999999))
 10205  0010F6  CD                 	db	high(float24(25.719999999999999))
 10206  0010F7  41                 	db	low highword(float24(25.719999999999999))
 10207  0010F8  00                 	db	low(float24(480.00000000000000))
 10208  0010F9  F0                 	db	high(float24(480.00000000000000))
 10209  0010FA  43                 	db	low highword(float24(480.00000000000000))
 10210  0010FB  AC                 	db	low(float24(26.834000000000000))
 10211  0010FC  D6                 	db	high(float24(26.834000000000000))
 10212  0010FD  41                 	db	low highword(float24(26.834000000000000))
 10213  0010FE  00                 	db	low(float24(500.00000000000000))
 10214  0010FF  FA                 	db	high(float24(500.00000000000000))
 10215  001100  43                 	db	low highword(float24(500.00000000000000))
 10216  001101  25                 	db	low(float24(27.393000000000001))
 10217  001102  DB                 	db	high(float24(27.393000000000001))
 10218  001103  41                 	db	low highword(float24(27.393000000000001))
 10219  001104  00                 	db	low(float24(520.00000000000000))
 10220  001105  02                 	db	high(float24(520.00000000000000))
 10221  001106  44                 	db	low highword(float24(520.00000000000000))
 10222  001107  A4                 	db	low(float24(29.079999999999998))
 10223  001108  E8                 	db	high(float24(29.079999999999998))
 10224  001109  41                 	db	low highword(float24(29.079999999999998))
 10225  00110A  00                 	db	low(float24(540.00000000000000))
 10226  00110B  07                 	db	high(float24(540.00000000000000))
 10227  00110C  44                 	db	low highword(float24(540.00000000000000))
 10228  00110D  2D                 	db	low(float24(29.646999999999998))
 10229  00110E  ED                 	db	high(float24(29.646999999999998))
 10230  00110F  41                 	db	low highword(float24(29.646999999999998))
 10231  001110  00                 	db	low(float24(560.00000000000000))
 10232  001111  0C                 	db	high(float24(560.00000000000000))
 10233  001112  44                 	db	low highword(float24(560.00000000000000))
 10234  001113  E1                 	db	low(float24(31.359999999999999))
 10235  001114  FA                 	db	high(float24(31.359999999999999))
 10236  001115  41                 	db	low highword(float24(31.359999999999999))
 10237  001116  00                 	db	low(float24(580.00000000000000))
 10238  001117  11                 	db	high(float24(580.00000000000000))
 10239  001118  44                 	db	low highword(float24(580.00000000000000))
 10240  001119  83                 	db	low(float24(31.939000000000000))
 10241  00111A  FF                 	db	high(float24(31.939000000000000))
 10242  00111B  41                 	db	low highword(float24(31.939000000000000))
 10243  00111C  00                 	db   0
 10244  00111D  00                 	db   0
 10245  00111E  00                 	db   0
 10246  00111F  00                 	db   0
 10247  001120  00                 	db   0
 10248  001121  00                 	db   0
 10249                           	line	92
 10250                           
 10251                           ;initializer for _k
 10252  001122  00                 	db	low(float24(0.00000000000000000))
 10253  001123  00                 	db	high(float24(0.00000000000000000))
 10254  001124  00                 	db	low highword(float24(0.00000000000000000))
 10255  001125  00                 	db	low(float24(0.00000000000000000))
 10256  001126  00                 	db	high(float24(0.00000000000000000))
 10257  001127  00                 	db	low highword(float24(0.00000000000000000))
 10258  001128  00                 	db	low(float24(20.000000000000000))
 10259  001129  A0                 	db	high(float24(20.000000000000000))
 10260  00112A  41                 	db	low highword(float24(20.000000000000000))
 10261  00112B  4A                 	db	low(float24(0.79800000000000004))
 10262  00112C  4C                 	db	high(float24(0.79800000000000004))
 10263  00112D  3F                 	db	low highword(float24(0.79800000000000004))
 10264  00112E  00                 	db	low(float24(40.000000000000000))
 10265  00112F  20                 	db	high(float24(40.000000000000000))
 10266  001130  42                 	db	low highword(float24(40.000000000000000))
 10267  001131  35                 	db	low(float24(1.6110000000000000))
 10268  001132  CE                 	db	high(float24(1.6110000000000000))
 10269  001133  3F                 	db	low highword(float24(1.6110000000000000))
 10270  001134  00                 	db	low(float24(60.000000000000000))
 10271  001135  70                 	db	high(float24(60.000000000000000))
 10272  001136  42                 	db	low highword(float24(60.000000000000000))
 10273  001137  E7                 	db	low(float24(2.4359999999999999))
 10274  001138  1B                 	db	high(float24(2.4359999999999999))
 10275  001139  40                 	db	low highword(float24(2.4359999999999999))
 10276  00113A  00                 	db	low(float24(80.000000000000000))
 10277  00113B  A0                 	db	high(float24(80.000000000000000))
 10278  00113C  42                 	db	low highword(float24(80.000000000000000))
 10279  00113D  31                 	db	low(float24(3.6280000000000001))
 10280  00113E  68                 	db	high(float24(3.6280000000000001))
 10281  00113F  40                 	db	low highword(float24(3.6280000000000001))
 10282  001140  00                 	db	low(float24(100.00000000000000))
 10283  001141  C8                 	db	high(float24(100.00000000000000))
 10284  001142  42                 	db	low highword(float24(100.00000000000000))
 10285  001143  12                 	db	low(float24(4.0960000000000001))
 10286  001144  83                 	db	high(float24(4.0960000000000001))
 10287  001145  40                 	db	low highword(float24(4.0960000000000001))
 10288  001146  00                 	db	low(float24(120.00000000000000))
 10289  001147  F0                 	db	high(float24(120.00000000000000))
 10290  001148  42                 	db	low highword(float24(120.00000000000000))
 10291  001149  7F                 	db	low(float24(5.3280000000000003))
 10292  00114A  AA                 	db	high(float24(5.3280000000000003))
 10293  00114B  40                 	db	low highword(float24(5.3280000000000003))
 10294  00114C  00                 	db	low(float24(140.00000000000000))
 10295  00114D  0C                 	db	high(float24(140.00000000000000))
 10296  00114E  43                 	db	low highword(float24(140.00000000000000))
 10297  00114F  85                 	db	low(float24(5.7350000000000003))
 10298  001150  B7                 	db	high(float24(5.7350000000000003))
 10299  001151  40                 	db	low highword(float24(5.7350000000000003))
 10300  001152  00                 	db	low(float24(160.00000000000000))
 10301  001153  20                 	db	high(float24(160.00000000000000))
 10302  001154  43                 	db	low highword(float24(160.00000000000000))
 10303  001155  1D                 	db	low(float24(6.9409999999999998))
 10304  001156  DE                 	db	high(float24(6.9409999999999998))
 10305  001157  40                 	db	low highword(float24(6.9409999999999998))
 10306  001158  00                 	db	low(float24(180.00000000000000))
 10307  001159  34                 	db	high(float24(180.00000000000000))
 10308  00115A  43                 	db	low highword(float24(180.00000000000000))
 10309  00115B  E1                 	db	low(float24(7.3399999999999999))
 10310  00115C  EA                 	db	high(float24(7.3399999999999999))
 10311  00115D  40                 	db	low highword(float24(7.3399999999999999))
 10312  00115E  00                 	db	low(float24(200.00000000000000))
 10313  00115F  48                 	db	high(float24(200.00000000000000))
 10314  001160  43                 	db	low highword(float24(200.00000000000000))
 10315  001161  A0                 	db	low(float24(8.5389999999999997))
 10316  001162  08                 	db	high(float24(8.5389999999999997))
 10317  001163  41                 	db	low highword(float24(8.5389999999999997))
 10318  001164  00                 	db	low(float24(220.00000000000000))
 10319  001165  5C                 	db	high(float24(220.00000000000000))
 10320  001166  43                 	db	low highword(float24(220.00000000000000))
 10321  001167  0A                 	db	low(float24(8.9399999999999995))
 10322  001168  0F                 	db	high(float24(8.9399999999999995))
 10323  001169  41                 	db	low highword(float24(8.9399999999999995))
 10324  00116A  00                 	db	low(float24(240.00000000000000))
 10325  00116B  70                 	db	high(float24(240.00000000000000))
 10326  00116C  43                 	db	low highword(float24(240.00000000000000))
 10327  00116D  73                 	db	low(float24(10.153000000000000))
 10328  00116E  22                 	db	high(float24(10.153000000000000))
 10329  00116F  41                 	db	low highword(float24(10.153000000000000))
 10330  001170  00                 	db	low(float24(260.00000000000000))
 10331  001171  82                 	db	high(float24(260.00000000000000))
 10332  001172  43                 	db	low highword(float24(260.00000000000000))
 10333  001173  FA                 	db	low(float24(10.561000000000000))
 10334  001174  28                 	db	high(float24(10.561000000000000))
 10335  001175  41                 	db	low highword(float24(10.561000000000000))
 10336  001176  00                 	db	low(float24(280.00000000000000))
 10337  001177  8C                 	db	high(float24(280.00000000000000))
 10338  001178  43                 	db	low highword(float24(280.00000000000000))
 10339  001179  1D                 	db	low(float24(11.382000000000000))
 10340  00117A  36                 	db	high(float24(11.382000000000000))
 10341  00117B  41                 	db	low highword(float24(11.382000000000000))
 10342  00117C  00                 	db	low(float24(300.00000000000000))
 10343  00117D  96                 	db	high(float24(300.00000000000000))
 10344  00117E  43                 	db	low highword(float24(300.00000000000000))
 10345  00117F  58                 	db	low(float24(12.209000000000000))
 10346  001180  43                 	db	high(float24(12.209000000000000))
 10347  001181  41                 	db	low highword(float24(12.209000000000000))
 10348  001182  00                 	db	low(float24(320.00000000000000))
 10349  001183  A0                 	db	high(float24(320.00000000000000))
 10350  001184  43                 	db	low highword(float24(320.00000000000000))
 10351  001185  A4                 	db	low(float24(13.039999999999999))
 10352  001186  50                 	db	high(float24(13.039999999999999))
 10353  001187  41                 	db	low highword(float24(13.039999999999999))
 10354  001188  00                 	db	low(float24(340.00000000000000))
 10355  001189  AA                 	db	high(float24(340.00000000000000))
 10356  00118A  43                 	db	low highword(float24(340.00000000000000))
 10357  00118B  FC                 	db	low(float24(13.874000000000001))
 10358  00118C  5D                 	db	high(float24(13.874000000000001))
 10359  00118D  41                 	db	low highword(float24(13.874000000000001))
 10360  00118E  00                 	db	low(float24(360.00000000000000))
 10361  00118F  B4                 	db	high(float24(360.00000000000000))
 10362  001190  43                 	db	low highword(float24(360.00000000000000))
 10363  001191  68                 	db	low(float24(14.712999999999999))
 10364  001192  6B                 	db	high(float24(14.712999999999999))
 10365  001193  41                 	db	low highword(float24(14.712999999999999))
 10366  001194  00                 	db	low(float24(380.00000000000000))
 10367  001195  BE                 	db	high(float24(380.00000000000000))
 10368  001196  43                 	db	low highword(float24(380.00000000000000))
 10369  001197  DD                 	db	low(float24(15.554000000000000))
 10370  001198  78                 	db	high(float24(15.554000000000000))
 10371  001199  41                 	db	low highword(float24(15.554000000000000))
 10372  00119A  00                 	db	low(float24(400.00000000000000))
 10373  00119B  C8                 	db	high(float24(400.00000000000000))
 10374  00119C  43                 	db	low highword(float24(400.00000000000000))
 10375  00119D  2D                 	db	low(float24(16.396999999999998))
 10376  00119E  83                 	db	high(float24(16.396999999999998))
 10377  00119F  41                 	db	low highword(float24(16.396999999999998))
 10378  0011A0  00                 	db	low(float24(420.00000000000000))
 10379  0011A1  D2                 	db	high(float24(420.00000000000000))
 10380  0011A2  43                 	db	low highword(float24(420.00000000000000))
 10381  0011A3  F2                 	db	low(float24(17.242999999999999))
 10382  0011A4  89                 	db	high(float24(17.242999999999999))
 10383  0011A5  41                 	db	low highword(float24(17.242999999999999))
 10384  0011A6  00                 	db	low(float24(440.00000000000000))
 10385  0011A7  DC                 	db	high(float24(440.00000000000000))
 10386  0011A8  43                 	db	low highword(float24(440.00000000000000))
 10387  0011A9  BA                 	db	low(float24(18.091000000000001))
 10388  0011AA  90                 	db	high(float24(18.091000000000001))
 10389  0011AB  41                 	db	low highword(float24(18.091000000000001))
 10390  0011AC  00                 	db	low(float24(460.00000000000000))
 10391  0011AD  E6                 	db	high(float24(460.00000000000000))
 10392  0011AE  43                 	db	low highword(float24(460.00000000000000))
 10393  0011AF  87                 	db	low(float24(18.940999999999999))
 10394  0011B0  97                 	db	high(float24(18.940999999999999))
 10395  0011B1  41                 	db	low highword(float24(18.940999999999999))
 10396  0011B2  00                 	db	low(float24(480.00000000000000))
 10397  0011B3  F0                 	db	high(float24(480.00000000000000))
 10398  0011B4  43                 	db	low highword(float24(480.00000000000000))
 10399  0011B5  56                 	db	low(float24(19.792000000000002))
 10400  0011B6  9E                 	db	high(float24(19.792000000000002))
 10401  0011B7  41                 	db	low highword(float24(19.792000000000002))
 10402  0011B8  00                 	db	low(float24(500.00000000000000))
 10403  0011B9  FA                 	db	high(float24(500.00000000000000))
 10404  0011BA  43                 	db	low highword(float24(500.00000000000000))
 10405  0011BB  27                 	db	low(float24(20.643999999999998))
 10406  0011BC  A5                 	db	high(float24(20.643999999999998))
 10407  0011BD  41                 	db	low highword(float24(20.643999999999998))
 10408  0011BE  00                 	db	low(float24(520.00000000000000))
 10409  0011BF  02                 	db	high(float24(520.00000000000000))
 10410  0011C0  44                 	db	low highword(float24(520.00000000000000))
 10411  0011C1  FA                 	db	low(float24(21.497000000000000))
 10412  0011C2  AB                 	db	high(float24(21.497000000000000))
 10413  0011C3  41                 	db	low highword(float24(21.497000000000000))
 10414  0011C4  00                 	db	low(float24(540.00000000000000))
 10415  0011C5  07                 	db	high(float24(540.00000000000000))
 10416  0011C6  44                 	db	low highword(float24(540.00000000000000))
 10417  0011C7  CD                 	db	low(float24(22.350000000000001))
 10418  0011C8  B2                 	db	high(float24(22.350000000000001))
 10419  0011C9  41                 	db	low highword(float24(22.350000000000001))
 10420  0011CA  00                 	db	low(float24(560.00000000000000))
 10421  0011CB  0C                 	db	high(float24(560.00000000000000))
 10422  0011CC  44                 	db	low highword(float24(560.00000000000000))
 10423  0011CD  A0                 	db	low(float24(23.202999999999999))
 10424  0011CE  B9                 	db	high(float24(23.202999999999999))
 10425  0011CF  41                 	db	low highword(float24(23.202999999999999))
 10426  0011D0  00                 	db	low(float24(580.00000000000000))
 10427  0011D1  11                 	db	high(float24(580.00000000000000))
 10428+ 0011D2  44                 	db	low highword(float24(580.00000000000000))
 10429+ 0011D3  71                 	db	low(float24(24.055000000000000))
 10430+ 0011D4  C0                 	db	high(float24(24.055000000000000))
 10431+ 0011D5  41                 	db	low highword(float24(24.055000000000000))
 10432+ 0011D6  00                 	db   0
 10433+ 0011D7  00                 	db   0
 10434+ 0011D8  00                 	db   0
 10435+ 0011D9  00                 	db   0
 10436+ 0011DA  00                 	db   0
 10437+ 0011DB  00                 	db   0
 10438+                          	line	214
 10439+                          
 10440+                          ;initializer for _states
 10441+ 0011DC  00                 	db	low(0)
 10442+ 0011DD  00                 	db	low(0)
 10443+ 0011DE  0000               	dw	(0)&0ffffh
 10444+ 0011E0  0000               	dw	(0)&0ffffh
 10445+ 0011E2  02                 	db	low(02h)
 10446+ 0011E3  01                 	db	low(01h)
 10447+ 0011E4  0000               	dw	(0)&0ffffh
 10448+ 0011E6  0000               	dw	(0)&0ffffh
 10449+ 0011E8  03                 	db	low(03h)
 10450+ 0011E9  01                 	db	low(01h)
 10451+ 0011EA  0001               	dw	(01h)&0ffffh
 10452+ 0011EC  0000               	dw	(0)&0ffffh
 10453+ 0011EE  04                 	db	low(04h)
 10454+ 0011EF  02                 	db	low(02h)
 10455+ 0011F0  0244               	dw	(0244h)&0ffffh
 10456+ 0011F2  0000               	dw	(0)&0ffffh
 10457+ 0011F4  00                 	db	low(0)
 10458+ 0011F5  00                 	db	low(0)
 10459+ 0011F6  0000               	dw	(0)&0ffffh
 10460+ 0011F8  0000               	dw	(0)&0ffffh
 10461+                                  psect   smallconst,class=SMALLCONST,spac
      +                          e=0,reloc=2
 10462+ 001000  00                 	db	0	;reserve
 10463+                          	global	_string1
 10464+                          	line	199
 10465+ 001001                     _string1:
 10466+ 001001  50                 	db	low(050h)
 10467+ 001002  49                 	db	low(049h)
 10468+ 001003  44                 	db	low(044h)
 10469+ 001004  20                 	db	low(020h)
 10470+ 001005  43                 	db	low(043h)
 10471+ 001006  4F                 	db	low(04Fh)
 10472+ 001007  4E                 	db	low(04Eh)
 10473+ 001008  54                 	db	low(054h)
 10474+ 001009  52                 	db	low(052h)
 10475+ 00100A  4F                 	db	low(04Fh)
 10476+ 00100B  4C                 	db	low(04Ch)
 10477+ 00100C  4C                 	db	low(04Ch)
 10478+ 00100D  45                 	db	low(045h)
 10479+ 00100E  52                 	db	low(052h)
 10480+ 00100F  20                 	db	low(020h)
 10481+ 001010  20                 	db	low(020h)
 10482+ 001011  00                 	db	low(0)
 10483+                          	global	_string2
 10484+                          	line	198
 10485+ 001012                     _string2:
 10486+ 001012  74                 	db	low(074h)
 10487+ 001013  5F                 	db	low(05Fh)
 10488+ 001014  63                 	db	low(063h)
 10489+ 001015  6F                 	db	low(06Fh)
 10490+ 001016  75                 	db	low(075h)
 10491+ 001017  70                 	db	low(070h)
 10492+ 001018  6C                 	db	low(06Ch)
 10493+ 001019  65                 	db	low(065h)
 10494+ 00101A  20                 	db	low(020h)
 10495+ 00101B  74                 	db	low(074h)
 10496+ 00101C  79                 	db	low(079h)
 10497+ 00101D  70                 	db	low(070h)
 10498+ 00101E  65                 	db	low(065h)
 10499+ 00101F  20                 	db	low(020h)
 10500+ 001020  20                 	db	low(020h)
 10501+ 001021  20                 	db	low(020h)
 10502+ 001022  00                 	db	low(0)
 10503+                          	global	_string3
 10504+                          	line	200
 10505+ 001023                     _string3:
 10506+ 001023  20                 	db	low(020h)
 10507+ 001024  20                 	db	low(020h)
 10508+ 001025  20                 	db	low(020h)
 10509+ 001026  20                 	db	low(020h)
 10510+ 001027  20                 	db	low(020h)
 10511+ 001028  4A                 	db	low(04Ah)
 10512+ 001029  20                 	db	low(020h)
 10513+ 00102A  20                 	db	low(020h)
 10514+ 00102B  20                 	db	low(020h)
 10515+ 00102C  20                 	db	low(020h)
 10516+ 00102D  20                 	db	low(020h)
 10517+ 00102E  20                 	db	low(020h)
 10518+ 00102F  20                 	db	low(020h)
 10519+ 001030  20                 	db	low(020h)
 10520+ 001031  20                 	db	low(020h)
 10521+ 001032  20                 	db	low(020h)
 10522+ 001033  00                 	db	low(0)
 10523+                          	global	_string4
 10524+                          	line	201
 10525+ 001034                     _string4:
 10526+ 001034  20                 	db	low(020h)
 10527+ 001035  20                 	db	low(020h)
 10528+ 001036  20                 	db	low(020h)
 10529+ 001037  20                 	db	low(020h)
 10530+ 001038  20                 	db	low(020h)
 10531+ 001039  4B                 	db	low(04Bh)
 10532+ 00103A  20                 	db	low(020h)
 10533+ 00103B  20                 	db	low(020h)
 10534+ 00103C  20                 	db	low(020h)
 10535+ 00103D  20                 	db	low(020h)
 10536+ 00103E  20                 	db	low(020h)
 10537+ 00103F  20                 	db	low(020h)
 10538+ 001040  20                 	db	low(020h)
 10539+ 001041  20                 	db	low(020h)
 10540+ 001042  20                 	db	low(020h)
 10541+ 001043  20                 	db	low(020h)
 10542+ 001044  00                 	db	low(0)
 10543+                          	global	_string5
 10544+                          	line	202
 10545+ 001045                     _string5:
 10546+ 001045  20                 	db	low(020h)
 10547+ 001046  20                 	db	low(020h)
 10548+ 001047  20                 	db	low(020h)
 10549+ 001048  53                 	db	low(053h)
 10550+ 001049  45                 	db	low(045h)
 10551+ 00104A  54                 	db	low(054h)
 10552+ 00104B  20                 	db	low(020h)
 10553+ 00104C  54                 	db	low(054h)
 10554+ 00104D  45                 	db	low(045h)
 10555+ 00104E  4D                 	db	low(04Dh)
 10556+ 00104F  50                 	db	low(050h)
 10557+ 001050  20                 	db	low(020h)
 10558+ 001051  20                 	db	low(020h)
 10559+ 001052  20                 	db	low(020h)
 10560+ 001053  20                 	db	low(020h)
 10561+ 001054  20                 	db	low(020h)
 10562+ 001055  00                 	db	low(0)
 10563+                          	global	_string6
 10564+                          	line	203
 10565+ 001056                     _string6:
 10566+ 001056  20                 	db	low(020h)
 10567+ 001057  50                 	db	low(050h)
 10568+ 001058  49                 	db	low(049h)
 10569+ 001059  44                 	db	low(044h)
 10570+ 00105A  20                 	db	low(020h)
 10571+ 00105B  54                 	db	low(054h)
 10572+ 00105C  2D                 	db	low(02Dh)
 10573+ 00105D  53                 	db	low(053h)
 10574+ 00105E  45                 	db	low(045h)
 10575+ 00105F  54                 	db	low(054h)
 10576+ 001060  20                 	db	low(020h)
 10577+ 001061  54                 	db	low(054h)
 10578+ 001062  2D                 	db	low(02Dh)
 10579+ 001063  43                 	db	low(043h)
 10580+ 001064  55                 	db	low(055h)
 10581+ 001065  52                 	db	low(052h)
 10582+ 001066  00                 	db	low(0)
 10583+                          	global	_string1
 10584+                          	global	_string2
 10585+                          	global	_string3
 10586+                          	global	_string4
 10587+                          	global	_string5
 10588+                          	global	_string6
 10589+                          	global	_numstr
 10590+                          	global	_numstr
 10591+ 000000                     _numstr  equ     9
 10592+                          
 10593+                          	DABS	1,9,16	;_numstr
 10594+                          	global	_a
 10595+                          	global	_a
 10596+ 000000                     _a  equ     35
 10597+                          
 10598+                          	DABS	1,35,3	;_a
 10599+                          	global	_accumcount
 10600+                          	global	_accumcount
 10601+ 000000                     _accumcount  equ     74
 10602+                          
 10603+                          	DABS	1,74,3	;_accumcount
 10604+                          	global	_cur_temperature
 10605+                          	global	_cur_temperature
 10606+ 000000                     _cur_temperature  equ     46
 10607+                          
 10608+                          	DABS	1,46,3	;_cur_temperature
 10609+                          	global	_e0
 10610+                          	global	_e0
 10611+ 000000                     _e0  equ     43
 10612+                          
 10613+                          	DABS	1,43,3	;_e0
 10614+                          	global	_e1
 10615+                          	global	_e1
 10616+ 000000                     _e1  equ     40
 10617+                          
 10618+                          	DABS	1,40,3	;_e1
 10619+                          	global	_e2
 10620+                          	global	_e2
 10621+ 000000                     _e2  equ     60
 10622+                          
 10623+                          	DABS	1,60,3	;_e2
 10624+                          	global	_k1
 10625+                          	global	_k1
 10626+ 000000                     _k1  equ     63
 10627+                          
 10628+                          	DABS	1,63,3	;_k1
 10629+                          	global	_k2
 10630+                          	global	_k2
 10631+ 000000                     _k2  equ     54
 10632+                          
 10633+                          	DABS	1,54,3	;_k2
 10634+                          	global	_k3
 10635+                          	global	_k3
 10636+ 000000                     _k3  equ     57
 10637+                          
 10638+                          	DABS	1,57,3	;_k3
 10639+                          	global	_kd
 10640+                          	global	_kd
 10641+ 000000                     _kd  equ     77
 10642+                          
 10643+                          	DABS	1,77,3	;_kd
 10644+                          	global	_ki
 10645+                          	global	_ki
 10646+ 000000                     _ki  equ     80
 10647+                          
 10648+                          	DABS	1,80,3	;_ki
 10649+                          	global	_u
 10650+                          	global	_u
 10651+ 000000                     _u  equ     32
 10652+                          
 10653+                          	DABS	1,32,3	;_u
 10654+                          	global	_u1
 10655+                          	global	_u1
 10656+ 000000                     _u1  equ     51
 10657+                          
 10658+                          	DABS	1,51,3	;_u1
 10659+                          	global	_ADC_Count
 10660+                          	global	_ADC_Count
 10661+ 000000                     _ADC_Count  equ     49
 10662+                          
 10663+                          	DABS	1,49,2	;_ADC_Count
 10664+                          	global	_count
 10665+                          	global	_count
 10666+ 000000                     _count  equ     68
 10667+                          
 10668+                          	DABS	1,68,2	;_count
 10669+                          	global	_cur_inc
 10670+                          	global	_cur_inc
 10671+ 000000                     _cur_inc  equ     28
 10672+                          
 10673+                          	DABS	1,28,2	;_cur_inc
 10674+                          	global	_flag
 10675+                          	global	_flag
 10676+ 000000                     _flag  equ     70
 10677+                          
 10678+                          	DABS	1,70,2	;_flag
 10679+                          	global	_outint
 10680+                          	global	_outint
 10681+ 000000                     _outint  equ     38
 10682+                          
 10683+                          	DABS	1,38,2	;_outint
 10684+                          	global	_outint_1
 10685+                          	global	_outint_1
 10686+ 000000                     _outint_1  equ     85
 10687+                          
 10688+                          	DABS	1,85,2	;_outint_1
 10689+                          	global	_sampleflag
 10690+                          	global	_sampleflag
 10691+ 000000                     _sampleflag  equ     83
 10692+                          
 10693+                          	DABS	1,83,2	;_sampleflag
 10694+                          	global	_sw
 10695+                          	global	_sw
 10696+ 000000                     _sw  equ     25
 10697+                          
 10698+                          	DABS	1,25,2	;_sw
 10699+                          	global	_thermocouple_type
 10700+                          	global	_thermocouple_type
 10701+ 000000                     _thermocouple_type  equ     30
 10702+                          
 10703+                          	DABS	1,30,2	;_thermocouple_type
 10704+                          	global	_DATA
 10705+                          	global	_DATA
 10706+ 000000                     _DATA  equ     27
 10707+                          
 10708+                          	DABS	1,27,1	;_DATA
 10709+                          	global	_PIDFlag
 10710+                          	global	_PIDFlag
 10711+ 000000                     _PIDFlag  equ     73
 10712+                          
 10713+                          	DABS	1,73,1	;_PIDFlag
 10714+                          	global	_nodigit
 10715+                          	global	_nodigit
 10716+ 000000                     _nodigit  equ     66
 10717+                          
 10718+                          	DABS	1,66,1	;_nodigit
 10719+                          	global	_pid_cycle_no
 10720+                          	global	_pid_cycle_no
 10721+ 000000                     _pid_cycle_no  equ     67
 10722+                          
 10723+                          	DABS	1,67,1	;_pid_cycle_no
 10724+                          	global	_position
 10725+                          	global	_position
 10726+ 000000                     _position  equ     72
 10727+                          
 10728+                          	DABS	1,72,1	;_position
 10729+                          	global	_accum
 10730+                          	global	_accum
 10731+ 000000                     _accum  equ     6
 10732+                          
 10733+                          	DABS	1,6,3	;_accum
 10734+                          	global	_samplecount
 10735+                          	global	_samplecount
 10736+ 000000                     _samplecount  equ     3
 10737+                          
 10738+                          	DABS	1,3,3	;_samplecount
 10739+                          	global	_set_temperature
 10740+                          	global	_set_temperature
 10741+ 000000                     _set_temperature  equ     0
 10742+                          
 10743+                          	DABS	1,0,3	;_set_temperature
 10744+                          	global	_ADCON0
 10745+ 000000                     _ADCON0	equ	0xFC2
 10746+                          	global	_ADCON0bits
 10747+ 000000                     _ADCON0bits	equ	0xFC2
 10748+                          	global	_ADCON1
 10749+ 000000                     _ADCON1	equ	0xFC1
 10750+                          	global	_ADCON2
 10751+ 000000                     _ADCON2	equ	0xFC0
 10752+                          	global	_ADRESH
 10753+ 000000                     _ADRESH	equ	0xFC4
 10754+                          	global	_ADRESL
 10755+ 000000                     _ADRESL	equ	0xFC3
 10756+                          	global	_INTCONbits
 10757+ 000000                     _INTCONbits	equ	0xFF2
 10758+                          	global	_OSCCON
 10759+ 000000                     _OSCCON	equ	0xFD3
 10760+                          	global	_OSCTUNE
 10761+ 000000                     _OSCTUNE	equ	0xF9B
 10762+                          	global	_T0CON
 10763+ 000000                     _T0CON	equ	0xFD5
 10764+                          	global	_TMR0H
 10765+ 000000                     _TMR0H	equ	0xFD7
 10766+                          	global	_TMR0L
 10767+ 000000                     _TMR0L	equ	0xFD6
 10768+                          	global	_TRISA
 10769+ 000000                     _TRISA	equ	0xF92
 10770+                          	global	_TRISC
 10771+ 000000                     _TRISC	equ	0xF94
 10772+                          	global	_TRISE
 10773+ 000000                     _TRISE	equ	0xF96
 10774+                          	global	_ADIF
 10775+ 000000                     _ADIF	equ	0x7CF6
 10776+                          	global	_LATA1
 10777+ 000000                     _LATA1	equ	0x7C49
 10778+                          	global	_LATA2
 10779+ 000000                     _LATA2	equ	0x7C4A
 10780+                          	global	_LATA3
 10781+ 000000                     _LATA3	equ	0x7C4B
 10782+                          	global	_LATA4
 10783+ 000000                     _LATA4	equ	0x7C4C
 10784+                          	global	_LATA5
 10785+ 000000                     _LATA5	equ	0x7C4D
 10786+                          	global	_LATB0
 10787+ 000000                     _LATB0	equ	0x7C50
 10788+                          	global	_LATB1
 10789+ 000000                     _LATB1	equ	0x7C51
 10790+                          	global	_LATD1
 10791+ 000000                     _LATD1	equ	0x7C61
 10792+                          	global	_LATD3
 10793+ 000000                     _LATD3	equ	0x7C63
 10794+                          	global	_LATD4
 10795+ 000000                     _LATD4	equ	0x7C64
 10796+                          	global	_LATD5
 10797+ 000000                     _LATD5	equ	0x7C65
 10798+                          	global	_LATD6
 10799+ 000000                     _LATD6	equ	0x7C66
 10800+                          	global	_LATD7
 10801+ 000000                     _LATD7	equ	0x7C67
 10802+                          	global	_RA6
 10803+ 000000                     _RA6	equ	0x7C06
 10804+                          	global	_RA7
 10805+ 000000                     _RA7	equ	0x7C07
 10806+                          	global	_RC0
 10807+ 000000                     _RC0	equ	0x7C10
 10808+                          	global	_RC1
 10809+ 000000                     _RC1	equ	0x7C11
 10810+                          	global	_RD0
 10811+ 000000                     _RD0	equ	0x7C18
 10812+                          	global	_TMR0IE
 10813+ 000000                     _TMR0IE	equ	0x7F95
 10814+                          	global	_TMR0IF
 10815+ 000000                     _TMR0IF	equ	0x7F92
 10816+                          	global	_TRISB0
 10817+ 000000                     _TRISB0	equ	0x7C98
 10818+                          	global	_TRISB1
 10819+ 000000                     _TRISB1	equ	0x7C99
 10820+                          	global	_TRISB7
 10821+ 000000                     _TRISB7	equ	0x7C9F
 10822+                          	global	_TRISD0
 10823+ 000000                     _TRISD0	equ	0x7CA8
 10824+                          	global	_TRISD1
 10825+ 000000                     _TRISD1	equ	0x7CA9
 10826+                          	global	_TRISD2
 10827+ 000000                     _TRISD2	equ	0x7CAA
 10828+                          	global	_TRISD3
 10829+ 000000                     _TRISD3	equ	0x7CAB
 10830+                          	global	_TRISD4
 10831+ 000000                     _TRISD4	equ	0x7CAC
 10832+                          	global	_TRISD5
 10833+ 000000                     _TRISD5	equ	0x7CAD
 10834+                          	global	_TRISD6
 10835+ 000000                     _TRISD6	equ	0x7CAE
 10836+                          	global	_TRISD7
 10837+ 000000                     _TRISD7	equ	0x7CAF
 10838+ 001067  00                 	db 0	; dummy byte at the end
 10839+                          	psect	intsave_regs,class=BIGRAM,space=1
 10840+                          	PSECT	param2,class=BANK2,space=1
 10841+                          	GLOBAL	__Lparam2
 10842+                          	FNCONF	param2,??,?
 10843+                          	GLOBAL	__Labsbss0
 10844+ 000000                     __Labsbss0	EQU	0
 10845+                          	GLOBAL	__Habsbss0
 10846+ 000000                     __Habsbss0	EQU	87
 10847+                          	GLOBAL	__Ldata0
 10848+ 000000                     __Ldata0	EQU	87
 10849+                          	GLOBAL	__Hdata0
 10850+ 000000                     __Hdata0	EQU	489
 10851+                          GLOBAL	__Lparam, __Hparam
 10852+                          GLOBAL	__Lparam2, __Hparam2
 10853+ 000000                     __Lparam	EQU	__Lparam2
 10854+ 000000                     __Hparam	EQU	__Hparam2


HI-TECH Software PICC-18 Macro Assembler V9.65 build 7190 
Symbol Table                                           Tue Apr 07 13:46:09 2015

               ___asftadd@f2 0258                            _a 000023  
                          _j 000057                            _k 000111  
                          _u 000020                 lcd_data@data 0219  
              ___asftadd@f1p 0256                           _e0 00002B  
                         _e1 000028                           _e2 00003C  
                         _k1 00003F                           _k2 000036  
                         _k3 000039                 ___awdiv@sign 021F  
                         _u1 000033                           _kd 00004D  
                         _ki 000050                           _sw 000019  
        ___wmul@multiplicand 0230                   i2___ftpack 32A8  
               ___ftadd@exp1 023E                 ___ftadd@exp2 023D  
               ___ftadd@cntr 023B                          l200 3DFE  
                        l121 16A4                          l202 2CB6  
                        l122 12F0                          l203 40EC  
                        l211 3ED6                          l131 140C  
                        l204 405E                          l212 3E1E  
                        l140 2D2E                          l132 1440  
                        l205 40EC                          l213 3EB4  
                        l221 4216                          l141 2CCA  
                        l133 1440                          l125 166A  
                        l150 2D9E                          l142 2D44  
                        l134 146C                          l126 12F4  
                        l118 12AE                          l207 40BC  
                        l231 17A4                          l215 3E7E  
                        l143 2CDE                          l135 1526  
                        l127 133C                          l119 12D8  
                        l208 408E                          l320 34D6  
                        l232 1AF2                          l216 4418  
                        l240 279A                          l160 2E6A  
                        l152 2DC8                          l144 2CF2  
                        l136 1578                          l128 136C  
                        l209 40B4                          l233 3B58  
                        l241 26EA                          l217 43C8  
                        l161 2E7E                          l145 2D06  
                        l137 1584                          l129 13A6  
                        l314 356A                          l322 353C  
                        l330 38B0                          l250 411E  
                        l234 3B08                          l242 2716  
                        l162 2E92                          l218 4248  
                        l154 2DF2                          l146 2D1A  
                        l138 1666                          l323 34D6  
                        l315 3452                          l331 389E  
                        l251 4134                          l227 1B18  
                        l235 3B48                          l243 2784  
                        l171 2F68                          l163 2EA6  
                        l219 4208                          l139 2E46  
                        l147 2D2E                          l420 3F90  
                        l500 313C                          l324 3526  
                        l316 347A                          l332 38C2  
                        l228 16DC                          l236 3B48  
                        l244 279A                          l252 4358  
                        l164 2EBA                          l156 2E1C  
                        l148 2D76                          l180 229A  
                        l421 3F2A                          l237 4392  
                        l501 3092                          l325 355E  
                        l317 353C                          l245 4176  
                        l229 1B18                          l253 433A  
                        l173 2F92                          l165 2EEC  
                        l149 2E46                          l181 2344  
                        l430 3212                          l422 3F70  
                        l510 30F4                          l318 34C4  
                        l326 3944                          l334 3916  
                        l246 4176                          l238 43FA  
                        l254 4358                          l342 3D24  
                        l166 2FBC                          l190 2480  
                        l182 234C                          l431 322E  
                        l423 32A6                          l511 3128  
                        l319 34B2                          l335 38C2  
                        l327 3854                          l247 4160  
                        l239 279A                          l343 3C7A  
                        l167 2F14                          l159 2FCE  
                        l191 2484                          l183 25AE  
                        l432 3216                          l424 3188  
                        l504 308E                          l336 3900  
                        l328 3874                          l248 40F2  
                        l344 3CC0                          l176 25BA  
                        l192 24DA                          l184 256A  
                        l433 3252                          l425 31A6  
                        l505 3070                          l337 3938  
                        l329 3916                          l249 4108  
                        l345 3D14                          l169 2F3E  
                        l193 24DE                          l185 2350  
                        l177 2270                          l434 327A  
                        l426 318C                          l450 1EC0  
                        l506 30F4                          l194 2518  
                        l186 23E6                          l178 22D8  
                        l427 31C4                          l451 1F10  
                        l507 30C4                          l195 255E  
                        l187 23E6                          l428 31F4  
                        l460 2000                          l452 2206  
                        l196 3812                          l508 30E2  
                        l188 23EA                          l429 31C8  
                        l461 202E                          l453 2032  
                        l197 36BE                          l509 30C8  
                        l189 2480                          l470 20CA  
                        l462 20F8                          l198 3E02  
                        l463 20F8                          l471 20F8  
                        l455 202E                          l199 3D7C  
                        l472 213C                          l473 2180  
                        l465 20F8                          l457 1FFC  
                        l449 225C                          l481 2AE2  
                        l474 2206                          l458 1FC2  
                        l490 2864                          l482 2A5C  
                        l475 224C                          l467 20C6  
                        l459 2016                          l491 289A  
                        l483 2AC8                          l468 208C  
                        l484 2B16                          l469 20E0  
                        l493 2934                          l477 2B26  
                        l590 4186                          l494 28D4  
                        l486 2978                          l478 29E2  
                        l591 41B0                          l495 290A  
                        l487 2846                          l479 2A32  
                        l496 2968                          l592 428E  
                        l489 28C4                          l593 427E  
                        l498 431A                          l587 41EA  
                        l596 3C46                          l589 41DE  
                        l597 3BA4                          l598 3BEE  
                        _RC0 007C10                          _RC1 007C11  
                        _RD0 007C18                          _RA6 007C06  
                        _RA7 007C07                          _pid 25BC  
               ___awmod@sign 021E             ??_choose_tcouple 020A  
                        wreg 000FE8                 ___ftdiv@exp1 0236  
               ___ftdiv@exp2 0234                ___ftadd@sign1 023C  
              ___ftadd@sign2 023A                         ?_pid 020A  
                       _ADIF 007CF6                         _DATA 00001B  
                       u3100 13E6                         u3101 13E2  
                       u3110 141E                         u3111 141A  
                       u4000 2876                         u3200 24D2  
                       u3120 1568                         u4001 2872  
                       u3201 24CE                         u3121 1564  
                       u4010 28E6                         u3210 2CD8  
                       u3130 1596                         u4011 28E2  
                       u3211 2CD4                         u3131 1592  
                       u4020 2962                         u3300 2DE0  
                       u3220 2CEC                         u3140 22D8  
                       u3060 12AA                         u4021 295E  
                       u3301 2DDC                         u3221 2CE8  
                       u3141 22D4                         u3061 12A6  
                       u4030 4198                         u3310 2E0A  
                       u3230 2D00                         u3150 22F6  
                       u3070 12D8                         u4031 4194  
                       u3311 2E06                         u3231 2CFC  
                       u3151 22F2                         u3071 12D4  
                       u4200 1FF2                         u4040 41DE  
                       u3400 2F02                         u3320 2E34  
                       u3240 2D14                         u3160 236E  
                       u3080 1368                         u4201 1FEE  
                       u4105 363E                         u4041 41DA  
                       u3401 2EFE                         u3321 2E30  
                       u3241 2D10                         u3161 236A  
                       u3081 1364                         u4210 202E  
                       u4130 408A                         u4106 3644  
                       u3410 2F2C                         u3330 4216  
                       u3250 2D28                         u3170 23D6  
                       u3090 13A6                         u4211 202A  
                       u4131 4086                         u4115 3664  
                       u3411 2F28                         u3331 4212  
                       u3251 2D24                         u3171 23D2  
                       u3091 13A2                         u4220 204C  
                       u4140 40B4                         u4116 366A  
                       u3500 434C                         u3420 2F56  
                       u3340 2E64                         u3260 2D44  
                       u3180 2408                         u4221 2048  
                       u4141 40B0                         u4125 3690  
                       u3501 4348                         u3421 2F52  
                       u3341 2E60                         u3261 2D40  
                       u3181 2404                         u4230 2070  
                       u4150 40EC                         u4126 3696  
                       u3510 25D0                         u3430 2F80  
                       u3350 2E78                         u3270 2D5C  
                       u3190 2470                         u4231 206C  
                       u4151 40E8                         u4055 3580  
                       u3511 25CC                         u3431 2F7C  
                       u3351 2E74                         u3271 2D58  
                       u3191 246C                         u4400 3252  
                       u4240 20BC                         u4160 1F00  
                       u4056 3586                         u3600 181E  
                       u3520 26DE                         u3440 2FAA  
                       u3360 2E8C                         u3280 2D8C  
                       u4401 324E                         u4241 20B8  
                       u4161 1EFC                         u4065 35A0  
                       u3601 181A                         u3521 26DA  
                       u3441 2FA6                         u3361 2E88  
                       u3281 2D88                         u4410 3264  
                       u4250 20F8                         u4170 1F52  
                       u4066 35A6                         u3610 18AA  
                       u3530 270A                         u3450 3EB4  
                       u3370 2EA0                         u3290 2DB6  
                       u4411 3260                         u4251 20F4  
                       u4171 1F4E                         u4075 35C6  
                       u3611 18A6                         u3531 2706  
                       u3451 3EB0                         u3371 2E9C  
                       u3291 2DB2                         u4340 3F0E  
                       u4260 210C                         u4180 1F7A  
                       u4076 35CC                         u3700 3D78  
                       u3620 1B18                         u3540 277C  
                       u3460 3C5E                         u3380 2EB4  
                       u4341 3F0A                         u4261 2108  
                       u4181 1F76                         u4085 35F2  
                       u3701 3D74                         u3621 1B14  
                       u3541 2778                         u3461 3C5A  
                       u3381 2EB0                         u4350 3F6A  
                       u4270 2150                         u4190 1F9E  
                       u4086 35F8                         u3710 3DC2  
                       u3630 4266                         u3550 2792  
                       u3470 3CA8                         u3390 2ED2  
                       u4351 3F66                         u4271 214C  
                       u4191 1F9A                         u4095 361E  
                       u3631 4262                         u3551 278E  
                       u3535 26FC                         u3471 3CA4  
                       u3391 2ECE                         u4360 3152  
                       u4280 21C6                         u4096 3624  
                       u3800 3052                         u3720 3DFE  
                       u3640 3836                         u3560 3ADA  
                       u3480 3CF8                         u4361 314E  
                       u4281 21C2                         u3801 304E  
                       u3721 3DFA                         u3641 3832  
                       u3561 3AD6                         u3481 3CF4  
                       u4370 316E                         u4290 2234  
                       u3810 30A6                         u3730 3434  
                       u3650 3866                         u3570 3B1A  
                       u3490 432E                         u4371 316A  
                       u4291 2230                         u3811 30A2  
                       u3731 3430                         u3651 3862  
                       u3571 3B16                         u3491 432A  
                       u4380 31C4                         u3820 30F4  
                       u3740 3464                         u3660 388A  
                       u3580 16D8                         u4381 31C0  
                       u3821 30F0                         u3741 3460  
                       u3717 3DB8                         u3661 3886  
                       u3581 16D4                         u4390 3212  
                       u3830 3108                         u3750 349E  
                       u3670 38C2                         u3590 174C  
                       u4391 320E                         u3831 3104  
                       u3751 349A                         u3671 38BE  
                       u3591 1748                         u3840 29D2  
                       u3760 34D6                         u3680 38E8  
                       u3905 371A                         u3841 29CE  
                       u3761 34D2                         u3681 38E4  
                       u3906 3720                         u3850 2A22  
                       u3770 3508                         u3690 392A  
                       u3915 3746                         u3851 2A1E  
                       u3771 3504                         u3691 3926  
                       u3595 173E                         u3916 374C  
                       u3860 2A9E                         u3780 3550  
                       u3925 3772                         u3861 2A9A  
                       u3781 354C                         u3926 3778  
                       u3870 2B10                         u3790 303A  
                       u3935 3792                         u3871 2B0C  
                       u3791 3036                         u3960 3B6C  
                       u3936 3798                         u3961 3B68  
                       u3945 37B8                         u3970 3BB6  
                       u3946 37BE                         u3971 3BB2  
                       u3955 37E4                         u3980 2824  
                       u3956 37EA                         u3981 2820  
                       u3885 36D4                         u3990 2836  
                       u3886 36DA                         u3991 2832  
                       u3895 36F4                         u3896 36FA  
                       _flag 000046                         _main 11FA  
               ___ftpack@arg 0240                 ___ftpack@exp 0242  
                       fsr0h 000FEA                         fsr1h 000FE2  
                       indf0 000FEF                         fsr0l 000FE9  
                       fsr2h 000FDA                         fsr1l 000FE1  
                       fsr2l 000FD9                 i2___ftadd@f1 025B  
               i2___ftadd@f2 025E                         pclat 000FFA  
                       prodh 000FF4                         prodl 000FF3  
                       start 0018              __end_of_DelayMs 40EE  
               ___ftmul@exp1 0235                 ___ftmul@cntr 0236  
            __end_of_Display 3E04                 i2___ftunpack 3F92  
               ___fttol@exp1 0218                 ___fttol@lval 0219  
                      ??_pid 020A                ___ftdiv@sign1 0235  
              ___ftdiv@sign2 0237                        l30021 1698  
                      l30022 1678                        l30023 25A2  
                      l30024 257C                        ?_main 0200  
            __end_of___awdiv 356C              __end_of___ftadd 225E  
            __end_of___awmod 3946              __end_of___ftdiv 2B28  
            __end_of___ftneg 4290              __end_of___ftmul 297A  
                      _T0CON 000FD5              ___awdiv@divisor 021C  
            __end_of___ftsub 431C              __end_of___fttol 313E  
                      _LATA1 007C49                        _LATB0 007C50  
                      _LATA2 007C4A                        _LATB1 007C51  
                      _LATA3 007C4B                        _LATA4 007C4C  
                      _LATA5 007C4D                        _LATD1 007C61  
                      _LATD3 007C63                        _LATD4 007C64  
                      _LATD5 007C65                        _LATD6 007C66  
                      _LATD7 007C67                        i2l222 3A26  
                      i2l223 3A26                        i2l224 3A04  
                      i2l225 3A22                        i2l226 3A24  
                      i2l420 404A                        i2l421 3FE4  
                      i2l422 402A                        i2l430 337C  
                      i2l431 3398                        i2l423 3410  
                      i2l432 3380                        i2l424 32F2  
                      i2l433 33BC                        i2l425 3310  
                      i2l434 33E4                        i2l426 32F6  
                      i2l450 1B1E                        i2l427 332E  
                      i2l451 1B6E                        i2l428 335E  
                      i2l460 1C5E                        i2l452 1E64  
                      i2l429 3332                        i2l461 1C8C  
                      i2l453 1C90                        i2l470 1D28  
                      i2l462 1D56                        i2l463 1D56  
                      i2l471 1D56                        i2l455 1C8C  
                      i2l472 1D9A                        i2l473 1DDE  
                      i2l465 1D56                        i2l457 1C5A  
                      i2l449 1EBA                        i2l474 1E64  
                      i2l458 1C20                        i2l475 1EAA  
                      i2l467 1D24                        i2l459 1C74  
                      i2l468 1CEA                        i2l476 42D4  
                      i2l469 1D3E              ___awdiv@counter 021E  
                      _TMR0H 000FD7                        _TMR0L 000FD6  
                      _TRISA 000F92                        _TRISC 000F94  
                      _TRISE 000F96              _set_temperature 000000  
               ?_currenttemp 020A              __end_of_dispnum 3ED8  
                      _accum 000006                        _count 000044  
                      main@i 0206                        tablat 000FF5  
            __end_of_waitkey 2E48                        plusw0 000FEB  
                      status 000FD8                ___ftmul@sign1 0234  
               __end_of_main 16AC             __end_of_Navigate 25BC  
                ?i2___ftpack 0267                       ??_main 0200  
              ___fttol@sign1 0217                __activetblptr 000003  
                Navigate@max 020E                  Navigate@key 020A  
             lcd_command@cmd 0219                       _ADCON0 000FC2  
                     _ADCON1 000FC1                       _ADCON2 000FC0  
                     _ADRESH 000FC4                       _ADRESL 000FC3  
           ___awdiv@dividend 021A             __end_of___awtoft 3D26  
           __end_of___ftpack 32A8             __end_of_adc_init 43CA  
           i2___ftunpack@arg 0267             i2___ftunpack@exp 0269  
                  ??_DelayMs 021D                       i2u4200 1C50  
                     i2u4201 1C4C                       i2u4210 1C8C  
                     i2u4211 1C88                       i2u4220 1CAA  
                     i2u4300 3982                       i2u4221 1CA6  
                     i2u4301 397E                       i2u4230 1CCE  
                     i2u4310 3990                       i2u4231 1CCA  
                     i2u4311 398C                       i2u4400 33BC  
                     i2u4240 1D1A                       i2u4160 1B5E  
                     i2u4320 39E0                       i2u4401 33B8  
                     i2u4241 1D16                       i2u4161 1B5A  
                     i2u4321 39DC                       i2u4410 33CE  
                     i2u4250 1D56                       i2u4170 1BB0  
                     i2u4330 3A16                       i2u4411 33CA  
                     i2u4251 1D52                       i2u4171 1BAC  
                     i2u4331 3A12                       i2u4340 3FC8  
                     i2u4260 1D6A                       i2u4180 1BD8  
                     i2u4341 3FC4                       i2u4261 1D66  
                     i2u4181 1BD4                       i2u4350 4024  
                     i2u4270 1DAE                       i2u4190 1BFC  
                     i2u4351 4020                       i2u4271 1DAA  
                     i2u4191 1BF8                       i2u4360 32BC  
                     i2u4280 1E24                       i2u4361 32B8  
                     i2u4281 1E20                       i2u4370 32D8  
                     i2u4290 1E92                       i2u4371 32D4  
                     i2u4291 1E8E                       i2u4380 332E  
                     i2u4381 332A                       i2u4390 337C  
                     i2u4391 3378                       _OSCCON 000FD3  
           __end_of_calc_err 4394                       _TMR0IE 007F95  
                     _TMR0IF 007F92                       _TRISB0 007C98  
                     _TRISB1 007C99                       _TRISD0 007CA8  
                     _TRISD1 007CA9                       _TRISD2 007CAA  
                     _TRISD3 007CAB                       _TRISB7 007C9F  
                     _TRISD4 007CAC                       _TRISD5 007CAD  
                     _TRISD6 007CAE                       _TRISD7 007CAF  
                  ??_Display 0215                       __Ldata 000057  
           __end_of_lcd_data 36C0             __end_of_lcd_init 2CB8  
                     ___ftge 3B5A                       ___wmul 4178  
                  ??___awdiv 021E                    ??___ftadd 023A  
                  ??___awmod 021E                    ??___ftdiv 0234  
                     _actual 16AC                    ??___ftneg 0214  
                  ??___ftmul 0234                 ?_timer0_init 020A  
                  ??___ftsub 0234                    ??___fttol 0217  
                     _getkey 2E48             __end_of_read_adc 424A  
           ___awdiv@quotient 0220              ___awmod@divisor 021C  
            ___awmod@counter 021F                       _numstr 000009  
                     _states 0001CB                       _outint 000026  
                  ??_dispnum 020D            __end_ofi2___ftadd 1EBC  
             i2___ftadd@exp1 0265               i2___ftadd@exp2 0264  
             i2___ftadd@cntr 0262                 __mediumconst 1068  
                     preinc0 000FEC                       tblptrh 000FF7  
                     tblptrl 000FF6                       tblptru 000FF8  
                  ??_waitkey 020C                   __accesstop 0080  
                 ___ftadd@f1 0234                   ___ftadd@f2 0237  
                 ___ftge@ff1 022E                   ___ftge@ff2 0231  
                 ___ftdiv@f1 022E                   ___ftdiv@f2 0231  
                 ___ftdiv@f3 0238                   ___ftneg@f1 0211  
                 ___awtoft@c 020A               i2___ftpack@arg 0267  
             i2___ftpack@exp 0269                   ___ftmul@f1 022E  
                 ___ftmul@f2 0231                   ___ftmul@f3 0237  
                 ___ftsub@f1 022E                   ___ftsub@f2 0231  
                 ___fttol@f1 0213                   ___ftunpack 3ED8  
              dispnum@number 020A                   _accumcount 00004A  
 __end_of_cal_pid_parameters 43FC                   _actual$972 0215  
                  ?_Navigate 020A                      ?___ftge 022E  
                    ?___wmul 022E                      ?_actual 0210  
             ___ftunpack@arg 0240               ___ftunpack@exp 0242  
                    ?_getkey 020A            __end_of___asftadd 42D6  
          _thermocouple_type 00001E                    l600000481 1FFC  
                  l600000482 20C6                    l600000484 316E  
                  l600000479 2836                    ?___awtoft 020A  
                  ?___ftpack 0240                    ?_adc_init 020A  
                  ?_calc_err 0213            i2___ftunpack@sign 026B  
                    _PIDFlag 000049                      _OSCTUNE 000F9B  
                  ?_lcd_data 0219                    ?_lcd_init 020A  
                    _DelayMs 404C                    ?_read_adc 020A  
                 ??_Navigate 020E                      _Display 3D26  
                  _ADC_Count 000031                      __Hdata0 0001E9  
                    __Ldata0 000057                      __Hparam 026F  
                    __Lparam 0200                  ?___ftunpack 0240  
                    ___awdiv 3412                      ___ftadd 1EBC  
                    ___awmod 3814                      ___ftdiv 297A  
                    ___ftneg 424A                      ___ftmul 279C  
                    ___ftsub 42D6                      ___fttol 2FD0  
                    _pid$951 020A                      _pid$952 020D  
                    _pid$953 0210                 ??i2___ftpack 026A  
                 ??___awtoft 020D                   ??___ftpack 0243  
                    __ramtop 1000                   ??_adc_init 020A  
                    _dispnum 3E04                   ??_calc_err 0216  
                 actual@tmp1 0223                   actual@tmp2 021D  
                 actual@vtg1 0226                   actual@vtg2 0220  
                    _cur_inc 00001C                      actual@i 0218  
                    actual@t 0213             ___awmod@dividend 021A  
                    _nodigit 000042            __end_of_pid_error 4178  
                    _waitkey 2CB8                   ??_lcd_data 021A  
                    main@ret 0204                   ??_lcd_init 020A  
                    _string1 1001                      _string2 1012  
                    _string3 1023                      _string4 1034  
                    _string5 1045                      _string6 1056  
                 _sampleflag 000053                __Lmediumconst 1068  
                 ??_read_adc 020C                      int_func 0008  
         __end_ofi2___ftpack 3412              i2___ftadd@sign1 0263  
            i2___ftadd@sign2 0261                      postdec0 000FED  
                 _timer0_isr 3946                      postinc0 000FEE  
             getkey@detected 020C              actual@actualtmp 0229  
            actual@actualvtg 0210                    i2___ftadd 1B1A  
            Navigate@cur_dig 0210        Navigate@statevariable 020C  
              ??_lcd_command 021A                  ___awtoft@f1 020D  
                 dispnum@pos 020C                    Navigate@i 0212  
             __end_of___ftge 3C48               __end_of___wmul 41EC  
             __end_of_actual 1B1A               __end_of_getkey 2FD0  
                __end_of_pid 279C                    __Habsbss0 000057  
                 ?i2___ftadd 025B                    __Labsbss0 000000  
         _cal_pid_parameters 43CA                     ??___ftge 0234  
                ?_timer0_isr 0248          ?_cal_pid_parameters 020A  
              ?i2___ftunpack 0267                     ??___wmul 0232  
                   ??_actual 0215          __end_of_lcd_command 3814  
                   ??_getkey 020C                    ___asftadd 4290  
              ??_currenttemp 020D         ??_cal_pid_parameters 020A  
                   ?_DelayMs 021B               _choose_tcouple 431C  
                   ?_Display 0212              currenttemp@temp 020D  
             ??i2___ftunpack 026B                 ??___ftunpack 0244  
                   ?___awdiv 021A                     ?___ftadd 0234  
                   ?___awmod 021A                     ?___ftdiv 022E  
                   ?___ftneg 0211                     ?___ftmul 022E  
                   ?___ftsub 022E                     ?___fttol 0213  
            ___ftunpack@sign 0244                     ?_dispnum 020A  
                __smallconst 1000                   ?___asftadd 0256  
               _pid_cycle_no 000043                     ?_waitkey 020A  
                ??i2___ftadd 0261       __end_of_choose_tcouple 435A  
                  _pid_error 40EE           __end_of___ftunpack 3F92  
        __end_of_currenttemp 3B5A               ___wmul@product 0232  
                   DelayMs@i 021D                     DelayMs@j 021F  
                _lcd_command 36C0                ??_timer0_init 020A  
                   Display@i 0215                  i2l600000481 1C5A  
                i2l600000482 1D24                  i2l600000484 32D8  
                 _ADCON0bits 000FC2            ___wmul@multiplier 022E  
            ?_choose_tcouple 020A                   ?_pid_error 0213  
                   _Navigate 225E                     __Hparam2 026F  
            _cur_temperature 00002E                     __Lparam2 0200  
               __Lsmallconst 1000                     ___awtoft 3C48  
                   ___ftpack 313E                     _adc_init 4394  
                   __config1 00F0FF                     __config2 00FEF9  
                   __config3 007DFF                     __config4 00FFFE  
                   __config5 00FFFF                     __config6 00FFFF  
                   __config7 00BFFF                     _calc_err 435A  
        __end_of_timer0_init 441A                  ??___asftadd 025B  
                _currenttemp 3A60                     _main$933 0200  
       __end_ofi2___ftunpack 404C                     _lcd_data 356C  
                   _lcd_init 2B28                  actual@slope 021A  
                   _read_adc 41EC              waitkey@detected 020C  
               ??_timer0_isr 0248                     _position 000048  
                   _outint_1 000055                     dispnum@i 020D  
                 DelayMs@del 021B                   _INTCONbits 000FF2  
                _samplecount 000003                     intlevel2 441A  
                ??_pid_error 0213           __end_of_timer0_isr 3A60  
                _timer0_init 43FC                   Display@pos 0214  
                 Display@str 0212                calc_err@error 0216  
               ?_lcd_command 0219  
